
lfibonacci:     file format elf32-i386


Disassembly of section .init:

080483cc <_init>:
 80483cc:	55                   	push   %ebp
 80483cd:	89 e5                	mov    %esp,%ebp
 80483cf:	53                   	push   %ebx
 80483d0:	83 ec 04             	sub    $0x4,%esp
 80483d3:	e8 00 00 00 00       	call   80483d8 <_init+0xc>
 80483d8:	5b                   	pop    %ebx
 80483d9:	81 c3 1c 1c 00 00    	add    $0x1c1c,%ebx
 80483df:	8b 93 fc ff ff ff    	mov    -0x4(%ebx),%edx
 80483e5:	85 d2                	test   %edx,%edx
 80483e7:	74 05                	je     80483ee <_init+0x22>
 80483e9:	e8 1e 00 00 00       	call   804840c <__gmon_start__@plt>
 80483ee:	e8 3d 01 00 00       	call   8048530 <frame_dummy>
 80483f3:	e8 48 09 00 00       	call   8048d40 <__do_global_ctors_aux>
 80483f8:	58                   	pop    %eax
 80483f9:	5b                   	pop    %ebx
 80483fa:	c9                   	leave  
 80483fb:	c3                   	ret    

Disassembly of section .plt:

080483fc <__gmon_start__@plt-0x10>:
 80483fc:	ff 35 f8 9f 04 08    	pushl  0x8049ff8
 8048402:	ff 25 fc 9f 04 08    	jmp    *0x8049ffc
 8048408:	00 00                	add    %al,(%eax)
	...

0804840c <__gmon_start__@plt>:
 804840c:	ff 25 00 a0 04 08    	jmp    *0x804a000
 8048412:	68 00 00 00 00       	push   $0x0
 8048417:	e9 e0 ff ff ff       	jmp    80483fc <_init+0x30>

0804841c <__libc_start_main@plt>:
 804841c:	ff 25 04 a0 04 08    	jmp    *0x804a004
 8048422:	68 08 00 00 00       	push   $0x8
 8048427:	e9 d0 ff ff ff       	jmp    80483fc <_init+0x30>

0804842c <gettimeofday@plt>:
 804842c:	ff 25 08 a0 04 08    	jmp    *0x804a008
 8048432:	68 10 00 00 00       	push   $0x10
 8048437:	e9 c0 ff ff ff       	jmp    80483fc <_init+0x30>

0804843c <free@plt>:
 804843c:	ff 25 0c a0 04 08    	jmp    *0x804a00c
 8048442:	68 18 00 00 00       	push   $0x18
 8048447:	e9 b0 ff ff ff       	jmp    80483fc <_init+0x30>

0804844c <getopt@plt>:
 804844c:	ff 25 10 a0 04 08    	jmp    *0x804a010
 8048452:	68 20 00 00 00       	push   $0x20
 8048457:	e9 a0 ff ff ff       	jmp    80483fc <_init+0x30>

0804845c <strtoul@plt>:
 804845c:	ff 25 14 a0 04 08    	jmp    *0x804a014
 8048462:	68 28 00 00 00       	push   $0x28
 8048467:	e9 90 ff ff ff       	jmp    80483fc <_init+0x30>

0804846c <fprintf@plt>:
 804846c:	ff 25 18 a0 04 08    	jmp    *0x804a018
 8048472:	68 30 00 00 00       	push   $0x30
 8048477:	e9 80 ff ff ff       	jmp    80483fc <_init+0x30>

0804847c <malloc@plt>:
 804847c:	ff 25 1c a0 04 08    	jmp    *0x804a01c
 8048482:	68 38 00 00 00       	push   $0x38
 8048487:	e9 70 ff ff ff       	jmp    80483fc <_init+0x30>

0804848c <vfprintf@plt>:
 804848c:	ff 25 20 a0 04 08    	jmp    *0x804a020
 8048492:	68 40 00 00 00       	push   $0x40
 8048497:	e9 60 ff ff ff       	jmp    80483fc <_init+0x30>

Disassembly of section .text:

080484a0 <_start>:
 80484a0:	31 ed                	xor    %ebp,%ebp
 80484a2:	5e                   	pop    %esi
 80484a3:	89 e1                	mov    %esp,%ecx
 80484a5:	83 e4 f0             	and    $0xfffffff0,%esp
 80484a8:	50                   	push   %eax
 80484a9:	54                   	push   %esp
 80484aa:	52                   	push   %edx
 80484ab:	68 30 8d 04 08       	push   $0x8048d30
 80484b0:	68 d0 8c 04 08       	push   $0x8048cd0
 80484b5:	51                   	push   %ecx
 80484b6:	56                   	push   %esi
 80484b7:	68 70 88 04 08       	push   $0x8048870
 80484bc:	e8 5b ff ff ff       	call   804841c <__libc_start_main@plt>
 80484c1:	f4                   	hlt    
 80484c2:	90                   	nop
 80484c3:	90                   	nop
 80484c4:	90                   	nop
 80484c5:	90                   	nop
 80484c6:	90                   	nop
 80484c7:	90                   	nop
 80484c8:	90                   	nop
 80484c9:	90                   	nop
 80484ca:	90                   	nop
 80484cb:	90                   	nop
 80484cc:	90                   	nop
 80484cd:	90                   	nop
 80484ce:	90                   	nop
 80484cf:	90                   	nop

080484d0 <__do_global_dtors_aux>:
 80484d0:	55                   	push   %ebp
 80484d1:	89 e5                	mov    %esp,%ebp
 80484d3:	53                   	push   %ebx
 80484d4:	83 ec 04             	sub    $0x4,%esp
 80484d7:	80 3d 84 a0 04 08 00 	cmpb   $0x0,0x804a084
 80484de:	75 3f                	jne    804851f <__do_global_dtors_aux+0x4f>
 80484e0:	a1 88 a0 04 08       	mov    0x804a088,%eax
 80484e5:	bb 20 9f 04 08       	mov    $0x8049f20,%ebx
 80484ea:	81 eb 1c 9f 04 08    	sub    $0x8049f1c,%ebx
 80484f0:	c1 fb 02             	sar    $0x2,%ebx
 80484f3:	83 eb 01             	sub    $0x1,%ebx
 80484f6:	39 d8                	cmp    %ebx,%eax
 80484f8:	73 1e                	jae    8048518 <__do_global_dtors_aux+0x48>
 80484fa:	8d b6 00 00 00 00    	lea    0x0(%esi),%esi
 8048500:	83 c0 01             	add    $0x1,%eax
 8048503:	a3 88 a0 04 08       	mov    %eax,0x804a088
 8048508:	ff 14 85 1c 9f 04 08 	call   *0x8049f1c(,%eax,4)
 804850f:	a1 88 a0 04 08       	mov    0x804a088,%eax
 8048514:	39 d8                	cmp    %ebx,%eax
 8048516:	72 e8                	jb     8048500 <__do_global_dtors_aux+0x30>
 8048518:	c6 05 84 a0 04 08 01 	movb   $0x1,0x804a084
 804851f:	83 c4 04             	add    $0x4,%esp
 8048522:	5b                   	pop    %ebx
 8048523:	5d                   	pop    %ebp
 8048524:	c3                   	ret    
 8048525:	8d 74 26 00          	lea    0x0(%esi,%eiz,1),%esi
 8048529:	8d bc 27 00 00 00 00 	lea    0x0(%edi,%eiz,1),%edi

08048530 <frame_dummy>:
 8048530:	55                   	push   %ebp
 8048531:	89 e5                	mov    %esp,%ebp
 8048533:	83 ec 18             	sub    $0x18,%esp
 8048536:	a1 24 9f 04 08       	mov    0x8049f24,%eax
 804853b:	85 c0                	test   %eax,%eax
 804853d:	74 12                	je     8048551 <frame_dummy+0x21>
 804853f:	b8 00 00 00 00       	mov    $0x0,%eax
 8048544:	85 c0                	test   %eax,%eax
 8048546:	74 09                	je     8048551 <frame_dummy+0x21>
 8048548:	c7 04 24 24 9f 04 08 	movl   $0x8049f24,(%esp)
 804854f:	ff d0                	call   *%eax
 8048551:	c9                   	leave  
 8048552:	c3                   	ret    
 8048553:	90                   	nop
 8048554:	90                   	nop
 8048555:	90                   	nop
 8048556:	90                   	nop
 8048557:	90                   	nop
 8048558:	90                   	nop
 8048559:	90                   	nop
 804855a:	90                   	nop
 804855b:	90                   	nop
 804855c:	90                   	nop
 804855d:	90                   	nop
 804855e:	90                   	nop
 804855f:	90                   	nop

08048560 <u64f_fibonacci_recursive>:
 8048560:	53                   	push   %ebx
 8048561:	57                   	push   %edi
 8048562:	56                   	push   %esi
 8048563:	83 ec 10             	sub    $0x10,%esp
 8048566:	8b 74 24 20          	mov    0x20(%esp),%esi
 804856a:	83 fe 02             	cmp    $0x2,%esi
 804856d:	73 06                	jae    8048575 <u64f_fibonacci_recursive+0x15>
 804856f:	89 f0                	mov    %esi,%eax
 8048571:	31 d2                	xor    %edx,%edx
 8048573:	eb 1e                	jmp    8048593 <u64f_fibonacci_recursive+0x33>
 8048575:	8d 46 ff             	lea    -0x1(%esi),%eax
 8048578:	89 04 24             	mov    %eax,(%esp)
 804857b:	e8 e0 ff ff ff       	call   8048560 <u64f_fibonacci_recursive>
 8048580:	89 c7                	mov    %eax,%edi
 8048582:	89 d3                	mov    %edx,%ebx
 8048584:	83 c6 fe             	add    $0xfffffffe,%esi
 8048587:	89 34 24             	mov    %esi,(%esp)
 804858a:	e8 d1 ff ff ff       	call   8048560 <u64f_fibonacci_recursive>
 804858f:	01 f8                	add    %edi,%eax
 8048591:	11 da                	adc    %ebx,%edx
 8048593:	83 c4 10             	add    $0x10,%esp
 8048596:	5e                   	pop    %esi
 8048597:	5f                   	pop    %edi
 8048598:	5b                   	pop    %ebx
 8048599:	c3                   	ret    
 804859a:	66 0f 1f 44 00 00    	nopw   0x0(%eax,%eax,1)

080485a0 <u64f_fibonacci_recursive_cached>:
 80485a0:	55                   	push   %ebp
 80485a1:	53                   	push   %ebx
 80485a2:	57                   	push   %edi
 80485a3:	56                   	push   %esi
 80485a4:	83 ec 1c             	sub    $0x1c,%esp
 80485a7:	31 d2                	xor    %edx,%edx
 80485a9:	8b 7c 24 30          	mov    0x30(%esp),%edi
 80485ad:	83 ff 02             	cmp    $0x2,%edi
 80485b0:	73 07                	jae    80485b9 <u64f_fibonacci_recursive_cached+0x19>
 80485b2:	89 f8                	mov    %edi,%eax
 80485b4:	e9 aa 00 00 00       	jmp    8048663 <u64f_fibonacci_recursive_cached+0xc3>
 80485b9:	81 3d 8c a0 04 08 00 	cmpl   $0x0,0x804a08c
 80485c0:	00 00 00 
 80485c3:	7e 1c                	jle    80485e1 <u64f_fibonacci_recursive_cached+0x41>
 80485c5:	89 7c 24 04          	mov    %edi,0x4(%esp)
 80485c9:	c7 04 24 8c a0 04 08 	movl   $0x804a08c,(%esp)
 80485d0:	e8 0b 04 00 00       	call   80489e0 <u64f_lcache_find>
 80485d5:	89 c1                	mov    %eax,%ecx
 80485d7:	09 d1                	or     %edx,%ecx
 80485d9:	0f 85 84 00 00 00    	jne    8048663 <u64f_fibonacci_recursive_cached+0xc3>
 80485df:	eb 40                	jmp    8048621 <u64f_fibonacci_recursive_cached+0x81>
 80485e1:	89 f8                	mov    %edi,%eax
 80485e3:	83 e0 01             	and    $0x1,%eax
 80485e6:	89 f9                	mov    %edi,%ecx
 80485e8:	d1 e9                	shr    %ecx
 80485ea:	01 c1                	add    %eax,%ecx
 80485ec:	89 0c 24             	mov    %ecx,(%esp)
 80485ef:	c7 44 24 08 8c a0 04 	movl   $0x804a08c,0x8(%esp)
 80485f6:	08 
 80485f7:	c7 44 24 04 01 00 00 	movl   $0x1,0x4(%esp)
 80485fe:	00 
 80485ff:	e8 7c 02 00 00       	call   8048880 <s32f_lcache_init>
 8048604:	83 f8 ff             	cmp    $0xffffffff,%eax
 8048607:	75 18                	jne    8048621 <u64f_fibonacci_recursive_cached+0x81>
 8048609:	89 7c 24 04          	mov    %edi,0x4(%esp)
 804860d:	c7 44 24 08 10 00 00 	movl   $0x10,0x8(%esp)
 8048614:	00 
 8048615:	c7 04 24 90 8d 04 08 	movl   $0x8048d90,(%esp)
 804861c:	e8 7f 04 00 00       	call   8048aa0 <uwarning>
 8048621:	8d 47 ff             	lea    -0x1(%edi),%eax
 8048624:	89 04 24             	mov    %eax,(%esp)
 8048627:	e8 74 ff ff ff       	call   80485a0 <u64f_fibonacci_recursive_cached>
 804862c:	89 c6                	mov    %eax,%esi
 804862e:	89 54 24 18          	mov    %edx,0x18(%esp)
 8048632:	8d 47 fe             	lea    -0x2(%edi),%eax
 8048635:	89 04 24             	mov    %eax,(%esp)
 8048638:	e8 63 ff ff ff       	call   80485a0 <u64f_fibonacci_recursive_cached>
 804863d:	89 c3                	mov    %eax,%ebx
 804863f:	89 d5                	mov    %edx,%ebp
 8048641:	89 7c 24 0c          	mov    %edi,0xc(%esp)
 8048645:	01 f3                	add    %esi,%ebx
 8048647:	13 6c 24 18          	adc    0x18(%esp),%ebp
 804864b:	89 6c 24 08          	mov    %ebp,0x8(%esp)
 804864f:	89 5c 24 04          	mov    %ebx,0x4(%esp)
 8048653:	c7 04 24 8c a0 04 08 	movl   $0x804a08c,(%esp)
 804865a:	e8 11 03 00 00       	call   8048970 <s32f_lcache_add>
 804865f:	89 d8                	mov    %ebx,%eax
 8048661:	89 ea                	mov    %ebp,%edx
 8048663:	83 c4 1c             	add    $0x1c,%esp
 8048666:	5e                   	pop    %esi
 8048667:	5f                   	pop    %edi
 8048668:	5b                   	pop    %ebx
 8048669:	5d                   	pop    %ebp
 804866a:	c3                   	ret    
 804866b:	0f 1f 44 00 00       	nopl   0x0(%eax,%eax,1)

08048670 <u64f_fibonacci_seq>:
 8048670:	55                   	push   %ebp
 8048671:	53                   	push   %ebx
 8048672:	57                   	push   %edi
 8048673:	56                   	push   %esi
 8048674:	31 d2                	xor    %edx,%edx
 8048676:	8b 4c 24 14          	mov    0x14(%esp),%ecx
 804867a:	83 f9 02             	cmp    $0x2,%ecx
 804867d:	73 04                	jae    8048683 <u64f_fibonacci_seq+0x13>
 804867f:	89 c8                	mov    %ecx,%eax
 8048681:	eb 23                	jmp    80486a6 <u64f_fibonacci_seq+0x36>
 8048683:	b8 01 00 00 00       	mov    $0x1,%eax
 8048688:	31 f6                	xor    %esi,%esi
 804868a:	31 ff                	xor    %edi,%edi
 804868c:	0f 1f 40 00          	nopl   0x0(%eax)
 8048690:	89 d3                	mov    %edx,%ebx
 8048692:	89 c5                	mov    %eax,%ebp
 8048694:	89 f0                	mov    %esi,%eax
 8048696:	01 e8                	add    %ebp,%eax
 8048698:	89 fa                	mov    %edi,%edx
 804869a:	11 da                	adc    %ebx,%edx
 804869c:	49                   	dec    %ecx
 804869d:	83 f9 01             	cmp    $0x1,%ecx
 80486a0:	89 ee                	mov    %ebp,%esi
 80486a2:	89 df                	mov    %ebx,%edi
 80486a4:	77 ea                	ja     8048690 <u64f_fibonacci_seq+0x20>
 80486a6:	5e                   	pop    %esi
 80486a7:	5f                   	pop    %edi
 80486a8:	5b                   	pop    %ebx
 80486a9:	5d                   	pop    %ebp
 80486aa:	c3                   	ret    
 80486ab:	0f 1f 44 00 00       	nopl   0x0(%eax,%eax,1)

080486b0 <s32f_fibonacci_app>:
 80486b0:	55                   	push   %ebp
 80486b1:	53                   	push   %ebx
 80486b2:	57                   	push   %edi
 80486b3:	56                   	push   %esi
 80486b4:	83 ec 2c             	sub    $0x2c,%esp
 80486b7:	c7 44 24 28 00 00 00 	movl   $0x0,0x28(%esp)
 80486be:	00 
 80486bf:	8d 44 24 28          	lea    0x28(%esp),%eax
 80486c3:	89 44 24 08          	mov    %eax,0x8(%esp)
 80486c7:	8b 7c 24 44          	mov    0x44(%esp),%edi
 80486cb:	89 7c 24 04          	mov    %edi,0x4(%esp)
 80486cf:	8b 44 24 40          	mov    0x40(%esp),%eax
 80486d3:	89 04 24             	mov    %eax,(%esp)
 80486d6:	31 f6                	xor    %esi,%esi
 80486d8:	e8 83 04 00 00       	call   8048b60 <s32f_parse_args>
 80486dd:	89 c3                	mov    %eax,%ebx
 80486df:	83 fb ff             	cmp    $0xffffffff,%ebx
 80486e2:	0f 84 79 01 00 00    	je     8048861 <s32f_fibonacci_app+0x1b1>
 80486e8:	f6 c3 01             	test   $0x1,%bl
 80486eb:	74 30                	je     804871d <s32f_fibonacci_app+0x6d>
 80486ed:	f6 c3 08             	test   $0x8,%bl
 80486f0:	74 47                	je     8048739 <s32f_fibonacci_app+0x89>
 80486f2:	e8 39 05 00 00       	call   8048c30 <u64f_gettime_msec>
 80486f7:	89 44 24 20          	mov    %eax,0x20(%esp)
 80486fb:	89 54 24 1c          	mov    %edx,0x1c(%esp)
 80486ff:	89 54 24 08          	mov    %edx,0x8(%esp)
 8048703:	89 44 24 04          	mov    %eax,0x4(%esp)
 8048707:	c7 04 24 10 8e 04 08 	movl   $0x8048e10,(%esp)
 804870e:	e8 2d 03 00 00       	call   8048a40 <umessage>
 8048713:	c7 44 24 24 01 00 00 	movl   $0x1,0x24(%esp)
 804871a:	00 
 804871b:	eb 34                	jmp    8048751 <s32f_fibonacci_app+0xa1>
 804871d:	8b 07                	mov    (%edi),%eax
 804871f:	89 44 24 04          	mov    %eax,0x4(%esp)
 8048723:	c7 04 24 e0 8d 04 08 	movl   $0x8048de0,(%esp)
 804872a:	e8 d1 03 00 00       	call   8048b00 <uerror>
 804872f:	be ff ff ff ff       	mov    $0xffffffff,%esi
 8048734:	e9 28 01 00 00       	jmp    8048861 <s32f_fibonacci_app+0x1b1>
 8048739:	c7 44 24 24 00 00 00 	movl   $0x0,0x24(%esp)
 8048740:	00 
 8048741:	c7 44 24 20 00 00 00 	movl   $0x0,0x20(%esp)
 8048748:	00 
 8048749:	c7 44 24 1c 00 00 00 	movl   $0x0,0x1c(%esp)
 8048750:	00 
 8048751:	f6 c3 02             	test   $0x2,%bl
 8048754:	74 2b                	je     8048781 <s32f_fibonacci_app+0xd1>
 8048756:	c7 04 24 20 8e 04 08 	movl   $0x8048e20,(%esp)
 804875d:	e8 de 02 00 00       	call   8048a40 <umessage>
 8048762:	f6 c3 04             	test   $0x4,%bl
 8048765:	74 35                	je     804879c <s32f_fibonacci_app+0xec>
 8048767:	c7 04 24 4a 8e 04 08 	movl   $0x8048e4a,(%esp)
 804876e:	e8 cd 02 00 00       	call   8048a40 <umessage>
 8048773:	8b 44 24 28          	mov    0x28(%esp),%eax
 8048777:	89 04 24             	mov    %eax,(%esp)
 804877a:	e8 21 fe ff ff       	call   80485a0 <u64f_fibonacci_recursive_cached>
 804877f:	eb 27                	jmp    80487a8 <s32f_fibonacci_app+0xf8>
 8048781:	c7 04 24 74 8e 04 08 	movl   $0x8048e74,(%esp)
 8048788:	e8 b3 02 00 00       	call   8048a40 <umessage>
 804878d:	31 db                	xor    %ebx,%ebx
 804878f:	8b 44 24 28          	mov    0x28(%esp),%eax
 8048793:	83 f8 02             	cmp    $0x2,%eax
 8048796:	73 16                	jae    80487ae <s32f_fibonacci_app+0xfe>
 8048798:	89 c5                	mov    %eax,%ebp
 804879a:	eb 3a                	jmp    80487d6 <s32f_fibonacci_app+0x126>
 804879c:	8b 44 24 28          	mov    0x28(%esp),%eax
 80487a0:	89 04 24             	mov    %eax,(%esp)
 80487a3:	e8 b8 fd ff ff       	call   8048560 <u64f_fibonacci_recursive>
 80487a8:	89 c5                	mov    %eax,%ebp
 80487aa:	89 d3                	mov    %edx,%ebx
 80487ac:	eb 28                	jmp    80487d6 <s32f_fibonacci_app+0x126>
 80487ae:	bd 01 00 00 00       	mov    $0x1,%ebp
 80487b3:	31 c9                	xor    %ecx,%ecx
 80487b5:	31 d2                	xor    %edx,%edx
 80487b7:	66 0f 1f 84 00 00 00 	nopw   0x0(%eax,%eax,1)
 80487be:	00 00 
 80487c0:	89 df                	mov    %ebx,%edi
 80487c2:	89 ee                	mov    %ebp,%esi
 80487c4:	89 cd                	mov    %ecx,%ebp
 80487c6:	01 f5                	add    %esi,%ebp
 80487c8:	89 d3                	mov    %edx,%ebx
 80487ca:	11 fb                	adc    %edi,%ebx
 80487cc:	48                   	dec    %eax
 80487cd:	83 f8 01             	cmp    $0x1,%eax
 80487d0:	89 f1                	mov    %esi,%ecx
 80487d2:	89 fa                	mov    %edi,%edx
 80487d4:	77 ea                	ja     80487c0 <s32f_fibonacci_app+0x110>
 80487d6:	83 7c 24 24 00       	cmpl   $0x0,0x24(%esp)
 80487db:	74 66                	je     8048843 <s32f_fibonacci_app+0x193>
 80487dd:	e8 4e 04 00 00       	call   8048c30 <u64f_gettime_msec>
 80487e2:	89 c6                	mov    %eax,%esi
 80487e4:	89 d7                	mov    %edx,%edi
 80487e6:	89 7c 24 08          	mov    %edi,0x8(%esp)
 80487ea:	89 74 24 04          	mov    %esi,0x4(%esp)
 80487ee:	c7 04 24 9f 8e 04 08 	movl   $0x8048e9f,(%esp)
 80487f5:	e8 46 02 00 00       	call   8048a40 <umessage>
 80487fa:	8b 44 24 28          	mov    0x28(%esp),%eax
 80487fe:	89 5c 24 0c          	mov    %ebx,0xc(%esp)
 8048802:	89 6c 24 08          	mov    %ebp,0x8(%esp)
 8048806:	89 44 24 04          	mov    %eax,0x4(%esp)
 804880a:	c7 04 24 af 8e 04 08 	movl   $0x8048eaf,(%esp)
 8048811:	e8 2a 02 00 00       	call   8048a40 <umessage>
 8048816:	8b 44 24 1c          	mov    0x1c(%esp),%eax
 804881a:	89 44 24 0c          	mov    %eax,0xc(%esp)
 804881e:	8b 44 24 20          	mov    0x20(%esp),%eax
 8048822:	89 44 24 08          	mov    %eax,0x8(%esp)
 8048826:	89 7c 24 04          	mov    %edi,0x4(%esp)
 804882a:	89 34 24             	mov    %esi,(%esp)
 804882d:	e8 3e 04 00 00       	call   8048c70 <u64f_getdelta>
 8048832:	89 54 24 08          	mov    %edx,0x8(%esp)
 8048836:	89 44 24 04          	mov    %eax,0x4(%esp)
 804883a:	c7 04 24 d5 8e 04 08 	movl   $0x8048ed5,(%esp)
 8048841:	eb 17                	jmp    804885a <s32f_fibonacci_app+0x1aa>
 8048843:	8b 44 24 28          	mov    0x28(%esp),%eax
 8048847:	89 5c 24 0c          	mov    %ebx,0xc(%esp)
 804884b:	89 6c 24 08          	mov    %ebp,0x8(%esp)
 804884f:	89 44 24 04          	mov    %eax,0x4(%esp)
 8048853:	c7 04 24 af 8e 04 08 	movl   $0x8048eaf,(%esp)
 804885a:	e8 e1 01 00 00       	call   8048a40 <umessage>
 804885f:	31 f6                	xor    %esi,%esi
 8048861:	89 f0                	mov    %esi,%eax
 8048863:	83 c4 2c             	add    $0x2c,%esp
 8048866:	5e                   	pop    %esi
 8048867:	5f                   	pop    %edi
 8048868:	5b                   	pop    %ebx
 8048869:	5d                   	pop    %ebp
 804886a:	c3                   	ret    
 804886b:	0f 1f 44 00 00       	nopl   0x0(%eax,%eax,1)

08048870 <main>:
 8048870:	e9 3b fe ff ff       	jmp    80486b0 <s32f_fibonacci_app>
 8048875:	90                   	nop
 8048876:	90                   	nop
 8048877:	90                   	nop
 8048878:	90                   	nop
 8048879:	90                   	nop
 804887a:	90                   	nop
 804887b:	90                   	nop
 804887c:	90                   	nop
 804887d:	90                   	nop
 804887e:	90                   	nop
 804887f:	90                   	nop

08048880 <s32f_lcache_init>:
 8048880:	55                   	push   %ebp
 8048881:	53                   	push   %ebx
 8048882:	57                   	push   %edi
 8048883:	56                   	push   %esi
 8048884:	83 ec 0c             	sub    $0xc,%esp
 8048887:	be ff ff ff ff       	mov    $0xffffffff,%esi
 804888c:	8b 5c 24 20          	mov    0x20(%esp),%ebx
 8048890:	85 db                	test   %ebx,%ebx
 8048892:	0f 8e 7d 00 00 00    	jle    8048915 <s32f_lcache_init+0x95>
 8048898:	83 7c 24 24 ff       	cmpl   $0xffffffff,0x24(%esp)
 804889d:	74 76                	je     8048915 <s32f_lcache_init+0x95>
 804889f:	8b 6c 24 28          	mov    0x28(%esp),%ebp
 80488a3:	85 ed                	test   %ebp,%ebp
 80488a5:	74 6e                	je     8048915 <s32f_lcache_init+0x95>
 80488a7:	8d 04 dd 01 00 00 00 	lea    0x1(,%ebx,8),%eax
 80488ae:	89 04 24             	mov    %eax,(%esp)
 80488b1:	e8 c6 fb ff ff       	call   804847c <malloc@plt>
 80488b6:	89 c7                	mov    %eax,%edi
 80488b8:	89 7d 04             	mov    %edi,0x4(%ebp)
 80488bb:	85 ff                	test   %edi,%edi
 80488bd:	74 56                	je     8048915 <s32f_lcache_init+0x95>
 80488bf:	8d 04 9d 01 00 00 00 	lea    0x1(,%ebx,4),%eax
 80488c6:	89 04 24             	mov    %eax,(%esp)
 80488c9:	e8 ae fb ff ff       	call   804847c <malloc@plt>
 80488ce:	89 45 08             	mov    %eax,0x8(%ebp)
 80488d1:	85 c0                	test   %eax,%eax
 80488d3:	74 38                	je     804890d <s32f_lcache_init+0x8d>
 80488d5:	89 5d 00             	mov    %ebx,0x0(%ebp)
 80488d8:	c7 45 0c 00 00 00 00 	movl   $0x0,0xc(%ebp)
 80488df:	c6 45 10 00          	movb   $0x0,0x10(%ebp)
 80488e3:	31 f6                	xor    %esi,%esi
 80488e5:	85 db                	test   %ebx,%ebx
 80488e7:	7e 2c                	jle    8048915 <s32f_lcache_init+0x95>
 80488e9:	31 c9                	xor    %ecx,%ecx
 80488eb:	0f 1f 44 00 00       	nopl   0x0(%eax,%eax,1)
 80488f0:	c7 04 88 00 00 00 00 	movl   $0x0,(%eax,%ecx,4)
 80488f7:	c7 44 cf 04 00 00 00 	movl   $0x0,0x4(%edi,%ecx,8)
 80488fe:	00 
 80488ff:	c7 04 cf 00 00 00 00 	movl   $0x0,(%edi,%ecx,8)
 8048906:	41                   	inc    %ecx
 8048907:	39 d9                	cmp    %ebx,%ecx
 8048909:	7c e5                	jl     80488f0 <s32f_lcache_init+0x70>
 804890b:	eb 08                	jmp    8048915 <s32f_lcache_init+0x95>
 804890d:	89 3c 24             	mov    %edi,(%esp)
 8048910:	e8 27 fb ff ff       	call   804843c <free@plt>
 8048915:	89 f0                	mov    %esi,%eax
 8048917:	83 c4 0c             	add    $0xc,%esp
 804891a:	5e                   	pop    %esi
 804891b:	5f                   	pop    %edi
 804891c:	5b                   	pop    %ebx
 804891d:	5d                   	pop    %ebp
 804891e:	c3                   	ret    
 804891f:	90                   	nop

08048920 <s32f_lcache_free>:
 8048920:	56                   	push   %esi
 8048921:	83 ec 08             	sub    $0x8,%esp
 8048924:	b8 ff ff ff ff       	mov    $0xffffffff,%eax
 8048929:	8b 74 24 10          	mov    0x10(%esp),%esi
 804892d:	85 f6                	test   %esi,%esi
 804892f:	74 33                	je     8048964 <s32f_lcache_free+0x44>
 8048931:	8b 4e 08             	mov    0x8(%esi),%ecx
 8048934:	85 c9                	test   %ecx,%ecx
 8048936:	74 2c                	je     8048964 <s32f_lcache_free+0x44>
 8048938:	83 7e 04 00          	cmpl   $0x0,0x4(%esi)
 804893c:	74 26                	je     8048964 <s32f_lcache_free+0x44>
 804893e:	89 0c 24             	mov    %ecx,(%esp)
 8048941:	e8 f6 fa ff ff       	call   804843c <free@plt>
 8048946:	8b 46 04             	mov    0x4(%esi),%eax
 8048949:	89 04 24             	mov    %eax,(%esp)
 804894c:	e8 eb fa ff ff       	call   804843c <free@plt>
 8048951:	c7 06 00 00 00 00    	movl   $0x0,(%esi)
 8048957:	c7 46 0c 00 00 00 00 	movl   $0x0,0xc(%esi)
 804895e:	c6 46 10 00          	movb   $0x0,0x10(%esi)
 8048962:	31 c0                	xor    %eax,%eax
 8048964:	83 c4 08             	add    $0x8,%esp
 8048967:	5e                   	pop    %esi
 8048968:	c3                   	ret    
 8048969:	0f 1f 80 00 00 00 00 	nopl   0x0(%eax)

08048970 <s32f_lcache_add>:
 8048970:	55                   	push   %ebp
 8048971:	53                   	push   %ebx
 8048972:	57                   	push   %edi
 8048973:	56                   	push   %esi
 8048974:	b8 ff ff ff ff       	mov    $0xffffffff,%eax
 8048979:	8b 4c 24 14          	mov    0x14(%esp),%ecx
 804897d:	85 c9                	test   %ecx,%ecx
 804897f:	74 57                	je     80489d8 <s32f_lcache_add+0x68>
 8048981:	8b 74 24 1c          	mov    0x1c(%esp),%esi
 8048985:	8b 54 24 18          	mov    0x18(%esp),%edx
 8048989:	89 d7                	mov    %edx,%edi
 804898b:	09 f7                	or     %esi,%edi
 804898d:	74 49                	je     80489d8 <s32f_lcache_add+0x68>
 804898f:	8b 7c 24 20          	mov    0x20(%esp),%edi
 8048993:	85 ff                	test   %edi,%edi
 8048995:	74 41                	je     80489d8 <s32f_lcache_add+0x68>
 8048997:	8b 29                	mov    (%ecx),%ebp
 8048999:	8b 59 0c             	mov    0xc(%ecx),%ebx
 804899c:	39 eb                	cmp    %ebp,%ebx
 804899e:	7f 38                	jg     80489d8 <s32f_lcache_add+0x68>
 80489a0:	75 0f                	jne    80489b1 <s32f_lcache_add+0x41>
 80489a2:	80 79 10 01          	cmpb   $0x1,0x10(%ecx)
 80489a6:	75 09                	jne    80489b1 <s32f_lcache_add+0x41>
 80489a8:	c7 41 0c 00 00 00 00 	movl   $0x0,0xc(%ecx)
 80489af:	31 db                	xor    %ebx,%ebx
 80489b1:	8b 41 04             	mov    0x4(%ecx),%eax
 80489b4:	89 74 d8 04          	mov    %esi,0x4(%eax,%ebx,8)
 80489b8:	89 14 d8             	mov    %edx,(%eax,%ebx,8)
 80489bb:	8b 41 08             	mov    0x8(%ecx),%eax
 80489be:	89 3c 98             	mov    %edi,(%eax,%ebx,4)
 80489c1:	8b 51 0c             	mov    0xc(%ecx),%edx
 80489c4:	42                   	inc    %edx
 80489c5:	89 51 0c             	mov    %edx,0xc(%ecx)
 80489c8:	31 c0                	xor    %eax,%eax
 80489ca:	80 79 10 00          	cmpb   $0x0,0x10(%ecx)
 80489ce:	75 08                	jne    80489d8 <s32f_lcache_add+0x68>
 80489d0:	3b 11                	cmp    (%ecx),%edx
 80489d2:	75 04                	jne    80489d8 <s32f_lcache_add+0x68>
 80489d4:	c6 41 10 01          	movb   $0x1,0x10(%ecx)
 80489d8:	5e                   	pop    %esi
 80489d9:	5f                   	pop    %edi
 80489da:	5b                   	pop    %ebx
 80489db:	5d                   	pop    %ebp
 80489dc:	c3                   	ret    
 80489dd:	0f 1f 00             	nopl   (%eax)

080489e0 <u64f_lcache_find>:
 80489e0:	55                   	push   %ebp
 80489e1:	53                   	push   %ebx
 80489e2:	57                   	push   %edi
 80489e3:	56                   	push   %esi
 80489e4:	31 d2                	xor    %edx,%edx
 80489e6:	31 c0                	xor    %eax,%eax
 80489e8:	8b 4c 24 14          	mov    0x14(%esp),%ecx
 80489ec:	85 c9                	test   %ecx,%ecx
 80489ee:	74 3e                	je     8048a2e <u64f_lcache_find+0x4e>
 80489f0:	8b 74 24 18          	mov    0x18(%esp),%esi
 80489f4:	85 f6                	test   %esi,%esi
 80489f6:	74 36                	je     8048a2e <u64f_lcache_find+0x4e>
 80489f8:	8b 39                	mov    (%ecx),%edi
 80489fa:	31 c0                	xor    %eax,%eax
 80489fc:	85 ff                	test   %edi,%edi
 80489fe:	ba 00 00 00 00       	mov    $0x0,%edx
 8048a03:	7e 29                	jle    8048a2e <u64f_lcache_find+0x4e>
 8048a05:	8b 69 08             	mov    0x8(%ecx),%ebp
 8048a08:	31 db                	xor    %ebx,%ebx
 8048a0a:	66 0f 1f 44 00 00    	nopw   0x0(%eax,%eax,1)
 8048a10:	39 74 9d 00          	cmp    %esi,0x0(%ebp,%ebx,4)
 8048a14:	74 0e                	je     8048a24 <u64f_lcache_find+0x44>
 8048a16:	43                   	inc    %ebx
 8048a17:	31 c0                	xor    %eax,%eax
 8048a19:	39 fb                	cmp    %edi,%ebx
 8048a1b:	ba 00 00 00 00       	mov    $0x0,%edx
 8048a20:	7c ee                	jl     8048a10 <u64f_lcache_find+0x30>
 8048a22:	eb 0a                	jmp    8048a2e <u64f_lcache_find+0x4e>
 8048a24:	8b 41 04             	mov    0x4(%ecx),%eax
 8048a27:	8b 54 d8 04          	mov    0x4(%eax,%ebx,8),%edx
 8048a2b:	8b 04 d8             	mov    (%eax,%ebx,8),%eax
 8048a2e:	5e                   	pop    %esi
 8048a2f:	5f                   	pop    %edi
 8048a30:	5b                   	pop    %ebx
 8048a31:	5d                   	pop    %ebp
 8048a32:	c3                   	ret    
 8048a33:	90                   	nop
 8048a34:	90                   	nop
 8048a35:	90                   	nop
 8048a36:	90                   	nop
 8048a37:	90                   	nop
 8048a38:	90                   	nop
 8048a39:	90                   	nop
 8048a3a:	90                   	nop
 8048a3b:	90                   	nop
 8048a3c:	90                   	nop
 8048a3d:	90                   	nop
 8048a3e:	90                   	nop
 8048a3f:	90                   	nop

08048a40 <umessage>:
 8048a40:	83 ec 1c             	sub    $0x1c,%esp
 8048a43:	a1 60 a0 04 08       	mov    0x804a060,%eax
 8048a48:	a3 a0 a0 04 08       	mov    %eax,0x804a0a0
 8048a4d:	8d 44 24 24          	lea    0x24(%esp),%eax
 8048a51:	89 44 24 18          	mov    %eax,0x18(%esp)
 8048a55:	a1 a0 a0 04 08       	mov    0x804a0a0,%eax
 8048a5a:	89 04 24             	mov    %eax,(%esp)
 8048a5d:	c7 44 24 08 ec 8e 04 	movl   $0x8048eec,0x8(%esp)
 8048a64:	08 
 8048a65:	c7 44 24 04 fc 8e 04 	movl   $0x8048efc,0x4(%esp)
 8048a6c:	08 
 8048a6d:	e8 fa f9 ff ff       	call   804846c <fprintf@plt>
 8048a72:	a1 a0 a0 04 08       	mov    0x804a0a0,%eax
 8048a77:	8b 4c 24 18          	mov    0x18(%esp),%ecx
 8048a7b:	89 4c 24 08          	mov    %ecx,0x8(%esp)
 8048a7f:	8b 4c 24 20          	mov    0x20(%esp),%ecx
 8048a83:	89 4c 24 04          	mov    %ecx,0x4(%esp)
 8048a87:	89 04 24             	mov    %eax,(%esp)
 8048a8a:	e8 fd f9 ff ff       	call   804848c <vfprintf@plt>
 8048a8f:	83 c4 1c             	add    $0x1c,%esp
 8048a92:	c3                   	ret    
 8048a93:	66 66 66 66 2e 0f 1f 	data32 data32 data32 nopw %cs:0x0(%eax,%eax,1)
 8048a9a:	84 00 00 00 00 00 

08048aa0 <uwarning>:
 8048aa0:	83 ec 1c             	sub    $0x1c,%esp
 8048aa3:	a1 60 a0 04 08       	mov    0x804a060,%eax
 8048aa8:	a3 a0 a0 04 08       	mov    %eax,0x804a0a0
 8048aad:	8d 44 24 24          	lea    0x24(%esp),%eax
 8048ab1:	89 44 24 18          	mov    %eax,0x18(%esp)
 8048ab5:	a1 a0 a0 04 08       	mov    0x804a0a0,%eax
 8048aba:	89 04 24             	mov    %eax,(%esp)
 8048abd:	c7 44 24 08 f1 8e 04 	movl   $0x8048ef1,0x8(%esp)
 8048ac4:	08 
 8048ac5:	c7 44 24 04 fc 8e 04 	movl   $0x8048efc,0x4(%esp)
 8048acc:	08 
 8048acd:	e8 9a f9 ff ff       	call   804846c <fprintf@plt>
 8048ad2:	a1 a0 a0 04 08       	mov    0x804a0a0,%eax
 8048ad7:	8b 4c 24 18          	mov    0x18(%esp),%ecx
 8048adb:	89 4c 24 08          	mov    %ecx,0x8(%esp)
 8048adf:	8b 4c 24 20          	mov    0x20(%esp),%ecx
 8048ae3:	89 4c 24 04          	mov    %ecx,0x4(%esp)
 8048ae7:	89 04 24             	mov    %eax,(%esp)
 8048aea:	e8 9d f9 ff ff       	call   804848c <vfprintf@plt>
 8048aef:	83 c4 1c             	add    $0x1c,%esp
 8048af2:	c3                   	ret    
 8048af3:	66 66 66 66 2e 0f 1f 	data32 data32 data32 nopw %cs:0x0(%eax,%eax,1)
 8048afa:	84 00 00 00 00 00 

08048b00 <uerror>:
 8048b00:	83 ec 1c             	sub    $0x1c,%esp
 8048b03:	a1 40 a0 04 08       	mov    0x804a040,%eax
 8048b08:	a3 a0 a0 04 08       	mov    %eax,0x804a0a0
 8048b0d:	8d 44 24 24          	lea    0x24(%esp),%eax
 8048b11:	89 44 24 18          	mov    %eax,0x18(%esp)
 8048b15:	a1 a0 a0 04 08       	mov    0x804a0a0,%eax
 8048b1a:	89 04 24             	mov    %eax,(%esp)
 8048b1d:	c7 44 24 08 f6 8e 04 	movl   $0x8048ef6,0x8(%esp)
 8048b24:	08 
 8048b25:	c7 44 24 04 fc 8e 04 	movl   $0x8048efc,0x4(%esp)
 8048b2c:	08 
 8048b2d:	e8 3a f9 ff ff       	call   804846c <fprintf@plt>
 8048b32:	a1 a0 a0 04 08       	mov    0x804a0a0,%eax
 8048b37:	8b 4c 24 18          	mov    0x18(%esp),%ecx
 8048b3b:	89 4c 24 08          	mov    %ecx,0x8(%esp)
 8048b3f:	8b 4c 24 20          	mov    0x20(%esp),%ecx
 8048b43:	89 4c 24 04          	mov    %ecx,0x4(%esp)
 8048b47:	89 04 24             	mov    %eax,(%esp)
 8048b4a:	e8 3d f9 ff ff       	call   804848c <vfprintf@plt>
 8048b4f:	83 c4 1c             	add    $0x1c,%esp
 8048b52:	c3                   	ret    
 8048b53:	90                   	nop
 8048b54:	90                   	nop
 8048b55:	90                   	nop
 8048b56:	90                   	nop
 8048b57:	90                   	nop
 8048b58:	90                   	nop
 8048b59:	90                   	nop
 8048b5a:	90                   	nop
 8048b5b:	90                   	nop
 8048b5c:	90                   	nop
 8048b5d:	90                   	nop
 8048b5e:	90                   	nop
 8048b5f:	90                   	nop

08048b60 <s32f_parse_args>:
 8048b60:	55                   	push   %ebp
 8048b61:	53                   	push   %ebx
 8048b62:	57                   	push   %edi
 8048b63:	56                   	push   %esi
 8048b64:	83 ec 0c             	sub    $0xc,%esp
 8048b67:	be ff ff ff ff       	mov    $0xffffffff,%esi
 8048b6c:	83 7c 24 28 00       	cmpl   $0x0,0x28(%esp)
 8048b71:	0f 84 a9 00 00 00    	je     8048c20 <s32f_parse_args+0xc0>
 8048b77:	31 f6                	xor    %esi,%esi
 8048b79:	8b 6c 24 24          	mov    0x24(%esp),%ebp
 8048b7d:	8b 5c 24 20          	mov    0x20(%esp),%ebx
 8048b81:	31 ff                	xor    %edi,%edi
 8048b83:	eb 0e                	jmp    8048b93 <s32f_parse_args+0x33>
 8048b85:	66 66 2e 0f 1f 84 00 	data32 nopw %cs:0x0(%eax,%eax,1)
 8048b8c:	00 00 00 00 
 8048b90:	83 ce 10             	or     $0x10,%esi
 8048b93:	89 6c 24 04          	mov    %ebp,0x4(%esp)
 8048b97:	89 1c 24             	mov    %ebx,(%esp)
 8048b9a:	c7 44 24 08 01 8f 04 	movl   $0x8048f01,0x8(%esp)
 8048ba1:	08 
 8048ba2:	e8 a5 f8 ff ff       	call   804844c <getopt@plt>
 8048ba7:	83 f8 ff             	cmp    $0xffffffff,%eax
 8048baa:	74 14                	je     8048bc0 <s32f_parse_args+0x60>
 8048bac:	83 f8 67             	cmp    $0x67,%eax
 8048baf:	77 1f                	ja     8048bd0 <s32f_parse_args+0x70>
 8048bb1:	83 f8 63             	cmp    $0x63,%eax
 8048bb4:	75 da                	jne    8048b90 <s32f_parse_args+0x30>
 8048bb6:	83 ce 04             	or     $0x4,%esi
 8048bb9:	eb d8                	jmp    8048b93 <s32f_parse_args+0x33>
 8048bbb:	0f 1f 44 00 00       	nopl   0x0(%eax,%eax,1)
 8048bc0:	83 f8 ff             	cmp    $0xffffffff,%eax
 8048bc3:	75 cb                	jne    8048b90 <s32f_parse_args+0x30>
 8048bc5:	eb 53                	jmp    8048c1a <s32f_parse_args+0xba>
 8048bc7:	66 0f 1f 84 00 00 00 	nopw   0x0(%eax,%eax,1)
 8048bce:	00 00 
 8048bd0:	83 f8 6d             	cmp    $0x6d,%eax
 8048bd3:	77 05                	ja     8048bda <s32f_parse_args+0x7a>
 8048bd5:	83 f8 68             	cmp    $0x68,%eax
 8048bd8:	eb b6                	jmp    8048b90 <s32f_parse_args+0x30>
 8048bda:	83 f8 72             	cmp    $0x72,%eax
 8048bdd:	74 0a                	je     8048be9 <s32f_parse_args+0x89>
 8048bdf:	83 f8 74             	cmp    $0x74,%eax
 8048be2:	75 0a                	jne    8048bee <s32f_parse_args+0x8e>
 8048be4:	83 ce 08             	or     $0x8,%esi
 8048be7:	eb aa                	jmp    8048b93 <s32f_parse_args+0x33>
 8048be9:	83 ce 02             	or     $0x2,%esi
 8048bec:	eb a5                	jmp    8048b93 <s32f_parse_args+0x33>
 8048bee:	83 f8 6e             	cmp    $0x6e,%eax
 8048bf1:	75 9d                	jne    8048b90 <s32f_parse_args+0x30>
 8048bf3:	a1 80 a0 04 08       	mov    0x804a080,%eax
 8048bf8:	89 04 24             	mov    %eax,(%esp)
 8048bfb:	c7 44 24 08 0a 00 00 	movl   $0xa,0x8(%esp)
 8048c02:	00 
 8048c03:	c7 44 24 04 00 00 00 	movl   $0x0,0x4(%esp)
 8048c0a:	00 
 8048c0b:	83 ce 01             	or     $0x1,%esi
 8048c0e:	e8 49 f8 ff ff       	call   804845c <strtoul@plt>
 8048c13:	89 c7                	mov    %eax,%edi
 8048c15:	e9 79 ff ff ff       	jmp    8048b93 <s32f_parse_args+0x33>
 8048c1a:	8b 44 24 28          	mov    0x28(%esp),%eax
 8048c1e:	89 38                	mov    %edi,(%eax)
 8048c20:	89 f0                	mov    %esi,%eax
 8048c22:	83 c4 0c             	add    $0xc,%esp
 8048c25:	5e                   	pop    %esi
 8048c26:	5f                   	pop    %edi
 8048c27:	5b                   	pop    %ebx
 8048c28:	5d                   	pop    %ebp
 8048c29:	c3                   	ret    
 8048c2a:	90                   	nop
 8048c2b:	90                   	nop
 8048c2c:	90                   	nop
 8048c2d:	90                   	nop
 8048c2e:	90                   	nop
 8048c2f:	90                   	nop

08048c30 <u64f_gettime_msec>:
 8048c30:	83 ec 1c             	sub    $0x1c,%esp
 8048c33:	8d 44 24 10          	lea    0x10(%esp),%eax
 8048c37:	89 04 24             	mov    %eax,(%esp)
 8048c3a:	c7 44 24 04 00 00 00 	movl   $0x0,0x4(%esp)
 8048c41:	00 
 8048c42:	e8 e5 f7 ff ff       	call   804842c <gettimeofday@plt>
 8048c47:	89 c1                	mov    %eax,%ecx
 8048c49:	31 c0                	xor    %eax,%eax
 8048c4b:	83 f9 ff             	cmp    $0xffffffff,%ecx
 8048c4e:	ba 00 00 00 00       	mov    $0x0,%edx
 8048c53:	74 11                	je     8048c66 <u64f_gettime_msec+0x36>
 8048c55:	69 44 24 10 40 42 0f 	imul   $0xf4240,0x10(%esp),%eax
 8048c5c:	00 
 8048c5d:	03 44 24 14          	add    0x14(%esp),%eax
 8048c61:	89 c2                	mov    %eax,%edx
 8048c63:	c1 fa 1f             	sar    $0x1f,%edx
 8048c66:	83 c4 1c             	add    $0x1c,%esp
 8048c69:	c3                   	ret    
 8048c6a:	66 0f 1f 44 00 00    	nopw   0x0(%eax,%eax,1)

08048c70 <u64f_getdelta>:
 8048c70:	53                   	push   %ebx
 8048c71:	57                   	push   %edi
 8048c72:	56                   	push   %esi
 8048c73:	8b 44 24 10          	mov    0x10(%esp),%eax
 8048c77:	8b 4c 24 18          	mov    0x18(%esp),%ecx
 8048c7b:	39 c1                	cmp    %eax,%ecx
 8048c7d:	0f 96 c3             	setbe  %bl
 8048c80:	8b 7c 24 14          	mov    0x14(%esp),%edi
 8048c84:	8b 54 24 1c          	mov    0x1c(%esp),%edx
 8048c88:	39 fa                	cmp    %edi,%edx
 8048c8a:	0f 96 c7             	setbe  %bh
 8048c8d:	74 02                	je     8048c91 <u64f_getdelta+0x21>
 8048c8f:	88 fb                	mov    %bh,%bl
 8048c91:	84 db                	test   %bl,%bl
 8048c93:	75 08                	jne    8048c9d <u64f_getdelta+0x2d>
 8048c95:	29 c1                	sub    %eax,%ecx
 8048c97:	19 fa                	sbb    %edi,%edx
 8048c99:	89 c8                	mov    %ecx,%eax
 8048c9b:	eb 20                	jmp    8048cbd <u64f_getdelta+0x4d>
 8048c9d:	39 c8                	cmp    %ecx,%eax
 8048c9f:	89 fe                	mov    %edi,%esi
 8048ca1:	19 d6                	sbb    %edx,%esi
 8048ca3:	29 c8                	sub    %ecx,%eax
 8048ca5:	0f 97 c1             	seta   %cl
 8048ca8:	39 d7                	cmp    %edx,%edi
 8048caa:	0f 97 c2             	seta   %dl
 8048cad:	74 02                	je     8048cb1 <u64f_getdelta+0x41>
 8048caf:	88 d1                	mov    %dl,%cl
 8048cb1:	31 d2                	xor    %edx,%edx
 8048cb3:	84 c9                	test   %cl,%cl
 8048cb5:	0f 44 c2             	cmove  %edx,%eax
 8048cb8:	0f 44 f2             	cmove  %edx,%esi
 8048cbb:	89 f2                	mov    %esi,%edx
 8048cbd:	5e                   	pop    %esi
 8048cbe:	5f                   	pop    %edi
 8048cbf:	5b                   	pop    %ebx
 8048cc0:	c3                   	ret    
 8048cc1:	90                   	nop
 8048cc2:	90                   	nop
 8048cc3:	90                   	nop
 8048cc4:	90                   	nop
 8048cc5:	90                   	nop
 8048cc6:	90                   	nop
 8048cc7:	90                   	nop
 8048cc8:	90                   	nop
 8048cc9:	90                   	nop
 8048cca:	90                   	nop
 8048ccb:	90                   	nop
 8048ccc:	90                   	nop
 8048ccd:	90                   	nop
 8048cce:	90                   	nop
 8048ccf:	90                   	nop

08048cd0 <__libc_csu_init>:
 8048cd0:	55                   	push   %ebp
 8048cd1:	89 e5                	mov    %esp,%ebp
 8048cd3:	57                   	push   %edi
 8048cd4:	56                   	push   %esi
 8048cd5:	53                   	push   %ebx
 8048cd6:	e8 5a 00 00 00       	call   8048d35 <__i686.get_pc_thunk.bx>
 8048cdb:	81 c3 19 13 00 00    	add    $0x1319,%ebx
 8048ce1:	83 ec 1c             	sub    $0x1c,%esp
 8048ce4:	e8 e3 f6 ff ff       	call   80483cc <_init>
 8048ce9:	8d bb 20 ff ff ff    	lea    -0xe0(%ebx),%edi
 8048cef:	8d 83 20 ff ff ff    	lea    -0xe0(%ebx),%eax
 8048cf5:	29 c7                	sub    %eax,%edi
 8048cf7:	c1 ff 02             	sar    $0x2,%edi
 8048cfa:	85 ff                	test   %edi,%edi
 8048cfc:	74 24                	je     8048d22 <__libc_csu_init+0x52>
 8048cfe:	31 f6                	xor    %esi,%esi
 8048d00:	8b 45 10             	mov    0x10(%ebp),%eax
 8048d03:	89 44 24 08          	mov    %eax,0x8(%esp)
 8048d07:	8b 45 0c             	mov    0xc(%ebp),%eax
 8048d0a:	89 44 24 04          	mov    %eax,0x4(%esp)
 8048d0e:	8b 45 08             	mov    0x8(%ebp),%eax
 8048d11:	89 04 24             	mov    %eax,(%esp)
 8048d14:	ff 94 b3 20 ff ff ff 	call   *-0xe0(%ebx,%esi,4)
 8048d1b:	83 c6 01             	add    $0x1,%esi
 8048d1e:	39 fe                	cmp    %edi,%esi
 8048d20:	72 de                	jb     8048d00 <__libc_csu_init+0x30>
 8048d22:	83 c4 1c             	add    $0x1c,%esp
 8048d25:	5b                   	pop    %ebx
 8048d26:	5e                   	pop    %esi
 8048d27:	5f                   	pop    %edi
 8048d28:	5d                   	pop    %ebp
 8048d29:	c3                   	ret    
 8048d2a:	8d b6 00 00 00 00    	lea    0x0(%esi),%esi

08048d30 <__libc_csu_fini>:
 8048d30:	55                   	push   %ebp
 8048d31:	89 e5                	mov    %esp,%ebp
 8048d33:	5d                   	pop    %ebp
 8048d34:	c3                   	ret    

08048d35 <__i686.get_pc_thunk.bx>:
 8048d35:	8b 1c 24             	mov    (%esp),%ebx
 8048d38:	c3                   	ret    
 8048d39:	90                   	nop
 8048d3a:	90                   	nop
 8048d3b:	90                   	nop
 8048d3c:	90                   	nop
 8048d3d:	90                   	nop
 8048d3e:	90                   	nop
 8048d3f:	90                   	nop

08048d40 <__do_global_ctors_aux>:
 8048d40:	55                   	push   %ebp
 8048d41:	89 e5                	mov    %esp,%ebp
 8048d43:	53                   	push   %ebx
 8048d44:	83 ec 04             	sub    $0x4,%esp
 8048d47:	a1 14 9f 04 08       	mov    0x8049f14,%eax
 8048d4c:	83 f8 ff             	cmp    $0xffffffff,%eax
 8048d4f:	74 13                	je     8048d64 <__do_global_ctors_aux+0x24>
 8048d51:	bb 14 9f 04 08       	mov    $0x8049f14,%ebx
 8048d56:	66 90                	xchg   %ax,%ax
 8048d58:	83 eb 04             	sub    $0x4,%ebx
 8048d5b:	ff d0                	call   *%eax
 8048d5d:	8b 03                	mov    (%ebx),%eax
 8048d5f:	83 f8 ff             	cmp    $0xffffffff,%eax
 8048d62:	75 f4                	jne    8048d58 <__do_global_ctors_aux+0x18>
 8048d64:	83 c4 04             	add    $0x4,%esp
 8048d67:	5b                   	pop    %ebx
 8048d68:	5d                   	pop    %ebp
 8048d69:	c3                   	ret    
 8048d6a:	90                   	nop
 8048d6b:	90                   	nop

Disassembly of section .fini:

08048d6c <_fini>:
 8048d6c:	55                   	push   %ebp
 8048d6d:	89 e5                	mov    %esp,%ebp
 8048d6f:	53                   	push   %ebx
 8048d70:	83 ec 04             	sub    $0x4,%esp
 8048d73:	e8 00 00 00 00       	call   8048d78 <_fini+0xc>
 8048d78:	5b                   	pop    %ebx
 8048d79:	81 c3 7c 12 00 00    	add    $0x127c,%ebx
 8048d7f:	e8 4c f7 ff ff       	call   80484d0 <__do_global_dtors_aux>
 8048d84:	59                   	pop    %ecx
 8048d85:	5b                   	pop    %ebx
 8048d86:	c9                   	leave  
 8048d87:	c3                   	ret    
