
./bin/fibonacci:     file format elf32-i386

Contents of section .interp:
 8048134 2f6c6962 2f6c642d 6c696e75 782e736f  /lib/ld-linux.so
 8048144 2e3200                               .2.             
Contents of section .note.ABI-tag:
 8048148 04000000 10000000 01000000 474e5500  ............GNU.
 8048158 00000000 02000000 06000000 0f000000  ................
Contents of section .note.gnu.build-id:
 8048168 04000000 14000000 03000000 474e5500  ............GNU.
 8048178 1342fb30 15e5e383 9c5d7f6a 6336d580  .B.0.....].jc6..
 8048188 05c9dc6e                             ...n            
Contents of section .gnu.hash:
 804818c 03000000 0a000000 01000000 05000000  ................
 804819c 00232622 0a000000 0b000000 0d000000  .#&"............
 80481ac 291d8c1c ac4be3c0 39f28b1c b3a2f712  )....K..9.......
Contents of section .dynsym:
 80481bc 00000000 00000000 00000000 00000000  ................
 80481cc 30000000 00000000 00000000 12000000  0...............
 80481dc 01000000 00000000 00000000 20000000  ............ ...
 80481ec 7e000000 00000000 00000000 12000000  ~...............
 80481fc 62000000 00000000 00000000 12000000  b...............
 804820c 90000000 00000000 00000000 12000000  ................
 804821c 6f000000 00000000 00000000 12000000  o...............
 804822c 29000000 00000000 00000000 12000000  )...............
 804823c 45000000 00000000 00000000 12000000  E...............
 804824c 4d000000 00000000 00000000 12000000  M...............
 804825c 3e000000 60b00408 04000000 11001800  >...`...........
 804826c 1a000000 1c9a0408 04000000 11000f00  ................
 804827c 5b000000 40b00408 04000000 11001800  [...@...........
 804828c 54000000 80b00408 04000000 11001800  T...............
Contents of section .dynstr:
 804829c 005f5f67 6d6f6e5f 73746172 745f5f00  .__gmon_start__.
 80482ac 6c696263 2e736f2e 36005f49 4f5f7374  libc.so.6._IO_st
 80482bc 64696e5f 75736564 00676574 6f707400  din_used.getopt.
 80482cc 5f5f6670 72696e74 665f6368 6b007374  __fprintf_chk.st
 80482dc 646f7574 00737472 746f756c 006d616c  dout.strtoul.mal
 80482ec 6c6f6300 6f707461 72670073 74646572  loc.optarg.stder
 80482fc 72006765 7474696d 656f6664 6179005f  r.gettimeofday._
 804830c 5f766670 72696e74 665f6368 6b005f5f  _vfprintf_chk.__
 804831c 6c696263 5f737461 72745f6d 61696e00  libc_start_main.
 804832c 66726565 00474c49 42435f32 2e300047  free.GLIBC_2.0.G
 804833c 4c494243 5f322e33 2e3400             LIBC_2.3.4.     
Contents of section .gnu.version:
 8048348 00000200 00000300 03000300 02000300  ................
 8048358 03000300 03000100 03000300           ............    
Contents of section .gnu.version_r:
 8048364 01000200 10000000 10000000 00000000  ................
 8048374 1069690d 00000300 95000000 10000000  .ii.............
 8048384 74196909 00000200 9f000000 00000000  t.i.............
Contents of section .rel.dyn:
 8048394 f0af0408 06020000 40b00408 050c0000  ........@.......
 80483a4 60b00408 050a0000 80b00408 050d0000  `...............
Contents of section .rel.plt:
 80483b4 00b00408 07010000 04b00408 07020000  ................
 80483c4 08b00408 07030000 0cb00408 07040000  ................
 80483d4 10b00408 07050000 14b00408 07060000  ................
 80483e4 18b00408 07070000 1cb00408 07080000  ................
 80483f4 20b00408 07090000                     .......        
Contents of section .init:
 80483fc 5589e553 83ec04e8 00000000 5b81c3ec  U..S........[...
 804840c 2b00008b 93fcffff ff85d274 05e82e00  +..........t....
 804841c 0000e83d 010000e8 a8150000 585bc9c3  ...=........X[..
Contents of section .plt:
 804842c ff35f8af 0408ff25 fcaf0408 00000000  .5.....%........
 804843c ff2500b0 04086800 000000e9 e0ffffff  .%....h.........
 804844c ff2504b0 04086808 000000e9 d0ffffff  .%....h.........
 804845c ff2508b0 04086810 000000e9 c0ffffff  .%....h.........
 804846c ff250cb0 04086818 000000e9 b0ffffff  .%....h.........
 804847c ff2510b0 04086820 000000e9 a0ffffff  .%....h ........
 804848c ff2514b0 04086828 000000e9 90ffffff  .%....h(........
 804849c ff2518b0 04086830 000000e9 80ffffff  .%....h0........
 80484ac ff251cb0 04086838 000000e9 70ffffff  .%....h8....p...
 80484bc ff2520b0 04086840 000000e9 60ffffff  .% ...h@....`...
Contents of section .text:
 80484d0 31ed5e89 e183e4f0 50545268 c0990408  1.^.....PTRh....
 80484e0 68609904 08515668 50940408 e86bffff  h`...QVhP....k..
 80484f0 fff49090 90909090 90909090 90909090  ................
 8048500 5589e553 83ec0480 3d84b004 0800753f  U..S....=.....u?
 8048510 a188b004 08bb20af 040881eb 1caf0408  ...... .........
 8048520 c1fb0283 eb0139d8 731e8db6 00000000  ......9.s.......
 8048530 83c001a3 88b00408 ff14851c af0408a1  ................
 8048540 88b00408 39d872e8 c60584b0 04080183  ....9.r.........
 8048550 c4045b5d c38d7426 008dbc27 00000000  ..[]..t&...'....
 8048560 5589e583 ec18a124 af040885 c07412b8  U......$.....t..
 8048570 00000000 85c07409 c7042424 af0408ff  ......t...$$....
 8048580 d0c9c390 90909090 90909090 90909090  ................
 8048590 5589e557 565381ec 8c000000 8b4508c7  U..WVS.......E..
 80485a0 45a00000 0000c745 a4000000 008945b4  E......E......E.
 80485b0 837db401 0f86a102 00008b45 b4836db4  .}.........E..m.
 80485c0 02c74598 00000000 83e80189 857cffff  ..E..........|..
 80485d0 ff8b45b4 c7459c00 00000089 45c48b45  ..E..E......E..E
 80485e0 c483c001 83f8010f 864a0200 008b45c4  .........J....E.
 80485f0 c7459000 000000c7 45940000 000083e8  .E......E.......
 8048600 018945c0 8b45c083 c00183f8 010f8602  ..E..E..........
 8048610 0200008b 45c0c745 88000000 00c7458c  ....E..E......E.
 8048620 00000000 83e80189 45bc8b45 bc83c001  ........E..E....
 8048630 83f8010f 86ba0100 008b45bc c7458000  ..........E..E..
 8048640 000000c7 45840000 000083e8 018945b0  ....E.........E.
 8048650 8b45b083 c00183f8 010f8672 01000083  .E.........r....
 8048660 7db0010f 84500100 008b45b0 c745a800  }....P....E..E..
 8048670 000000c7 45ac0000 000083e8 018945b8  ....E.........E.
 8048680 837db801 0f861901 00008b45 b8c745c8  .}.........E..E.
 8048690 00000000 c745cc00 00000083 e8018945  .....E.........E
 80486a0 d48b45d4 c745d800 000000c7 45dc0000  ..E..E......E...
 80486b0 000083e8 01837dd4 018945e4 0f86d600  ......}...E.....
 80486c0 00008db6 00000000 8b5de431 f631ff83  .........].1.1..
 80486d0 fb010f86 b6000000 8d43ff83 eb028904  .........C......
 80486e0 24e8aafe ffff01c6 11d783fb 0177e98b  $............w..
 80486f0 4de483e9 0289c883 e00131d2 01f011fa  M.........1.....
 8048700 0145d889 c81155dc 83c00183 f801894d  .E....U........M
 8048710 e477b58b 4dd483e9 0289c883 e00131d2  .w..M.........1.
 8048720 0345d813 55dc0145 c889c811 55cc83c0  .E..U..E....U...
 8048730 0183f801 894dd40f 8764ffff ff8b45b8  .....M...d....E.
 8048740 83e80289 c2d1ea6b d2fe01c2 31c90355  .......k....1..U
 8048750 c8134dcc 0155a811 4dac8945 b883c001  ..M..U..M..E....
 8048760 83f8010f 8717ffff ff8b45b0 83e80289  ..........E.....
 8048770 c2d1ea6b d2fe01c2 31c90355 a8134dac  ...k....1..U..M.
 8048780 01558011 4d848945 b0e9c2fe ffff89d8  .U..M..E........
 8048790 8d4bfee9 62ffffff 8b45d48d 48fee97b  .K..b....E..H..{
 80487a0 ffffff8b 55b8c745 c8000000 00c745cc  ....U..E......E.
 80487b0 00000000 8d42feeb 93ba0100 000083c8  .....B..........
 80487c0 ffc745a8 00000000 c745ac00 000000eb  ..E......E......
 80487d0 a78b45bc 31d2d1e8 6bc0fe03 45bc0345  ..E.1...k...E..E
 80487e0 80135584 01458811 558c836d bc02e937  ..U..E..U..m...7
 80487f0 feffff8b 45c031d2 d1e86bc0 fe0345c0  ....E.1...k...E.
 8048800 03458813 558c0145 90115594 836dc002  .E..U..E..U..m..
 8048810 e9effdff ff8b45c4 31d2d1e8 6bc0fe03  ......E.1...k...
 8048820 45c40345 90135594 01459811 559c836d  E..E..U..E..U..m
 8048830 c402e9a7 fdffff8b 857cffff ff31d2d1  .........|...1..
 8048840 e86bc0fe 03857cff ffff0345 9813559c  .k....|....E..U.
 8048850 0145a011 55a4e955 fdffff8b 450831d2  .E..U..U....E.1.
 8048860 d1e86bc0 fe034508 0345a013 55a481c4  ..k...E..E..U...
 8048870 8c000000 5b5e5f5d c38db426 00000000  ....[^_]...&....
 8048880 5589e583 ec58837d 0801895d f48975f8  U....X.}...]..u.
 8048890 897dfc0f 86d70200 008b0d90 b0040885  .}..............
 80488a0 c97e2d8b 4508c704 2490b004 08894424  .~-.E...$.....D$
 80488b0 04e86a0d 000089c3 89d609da 746289d8  ..j.........tb..
 80488c0 89f28b5d f48b75f8 8b7dfc89 ec5dc390  ...]..u..}...]..
 80488d0 8b55088b 4508c744 240890b0 0408c744  .U..E..D$......D
 80488e0 24040100 000083e2 01d1e88d 0402a38c  $...............
 80488f0 b0040889 0424e875 0b000083 f8ff7520  .....$.u......u 
 8048900 8b4508c7 44240810 000000c7 0424209a  .E..D$.......$ .
 8048910 04088944 2404e8f5 0d000090 8d742600  ...D$........t&.
 8048920 8b7d0831 f6bb0100 000083ef 0183ff01  .}.1............
 8048930 74268b15 90b00408 85d27e7c 897c2404  t&........~|.|$.
 8048940 c7042490 b00408e8 d40c0000 89c389d6  ..$.............
 8048950 09da0f84 92000000 8b7d0831 c983ef02  .........}.1....
 8048960 83ff0189 fa762ba1 90b00408 85c00f8e  .....v+.........
 8048970 14010000 897c2404 c7042490 b00408e8  .....|$...$.....
 8048980 9c0c0000 89d189c2 89c809d0 0f842801  ..............(.
 8048990 000001d3 8b550811 ce895c24 04897424  .....U....\$..t$
 80489a0 08895424 0cc70424 90b00408 e8df0b00  ..T$...$........
 80489b0 00e908ff ffff6690 89fa89f8 83e201d1  ......f.........
 80489c0 e88d0402 a38cb004 08c74424 0890b004  ..........D$....
 80489d0 08c74424 04010000 00890424 e88f0a00  ..D$.......$....
 80489e0 0083f8ff 0f84ba07 00008d4f ff31f683  ...........O.1..
 80489f0 f901bb01 00000074 31a190b0 040885c0  .......t1.......
 8048a00 0f8e4a04 0000894c 2404894d bcc70424  ..J....L$..M...$
 8048a10 90b00408 e8070c00 008b4dbc 89c389d0  ..........M.....
 8048a20 09d889d6 0f847604 00008d57 fe83fa01  ......v....W....
 8048a30 8955e00f 86b70400 00a190b0 040885c0  .U..............
 8048a40 0f8e3a01 00008b45 e0c70424 90b00408  ..:....E...$....
 8048a50 89442404 e8c70b00 0089d189 c289c809  .D$.............
 8048a60 d00f8469 01000001 d311ce89 7c240c89  ...i........|$..
 8048a70 5c240489 742408c7 042490b0 0408e80d  \$..t$...$......
 8048a80 0b0000e9 d0feffff 89fa89f8 83e201d1  ................
 8048a90 e88d0402 a38cb004 08c74424 0890b004  ..........D$....
 8048aa0 08c74424 04010000 00890424 e8bf0900  ..D$.......$....
 8048ab0 0083f8ff 0f840707 00008d57 ff83fa01  ...........W....
 8048ac0 8955d8c7 45e00100 0000c745 e4000000  .U..E......E....
 8048ad0 00742ba1 90b00408 85c00f8e 58020000  .t+.........X...
 8048ae0 89542404 c7042490 b00408e8 300b0000  .T$...$.....0...
 8048af0 8955e409 c28945e0 0f848a02 00008d57  .U....E........W
 8048b00 fe83fa01 8955d80f 86f30300 008b0d90  .....U..........
 8048b10 b0040885 c90f8e0d 0100008b 45d8c704  ............E...
 8048b20 2490b004 08894424 04e8f20a 000089d1  $.....D$........
 8048b30 89c289c8 09d00f84 3c010000 0355e013  ........<....U..
 8048b40 4de4897c 240c8954 2404894c 24088955  M..|$..T$..L$..U
 8048b50 b8894dbc c7042490 b00408e8 300a0000  ..M...$.....0...
 8048b60 8b4dbc8b 55b8e927 feffff90 8d742600  .M..U..'.....t&.
 8048b70 8b5d0831 f6e944fd ffff8db6 00000000  .].1..D.........
 8048b80 8b45e08b 55e0c744 240890b0 0408c744  .E..U..D$......D
 8048b90 24040100 000083e0 01d1ea01 d0a38cb0  $...............
 8048ba0 04088904 24e8c608 000083f8 ff75218b  ....$........u!.
 8048bb0 55e0c744 24081000 0000c704 24209a04  U..D$.......$ ..
 8048bc0 08895424 04e8460b 00008db6 00000000  ..T$..F.........
 8048bd0 8b45e083 e8018904 24e8a2fc ffff8945  .E......$......E
 8048be0 d88b45e0 8955dc83 e8028904 24e88efc  ..E..U......$...
 8048bf0 ffffc704 2490b004 0889d189 c28b45e0  ....$.........E.
 8048c00 0355d813 4ddc8954 2404894c 24088955  .U..M..T$..L$..U
 8048c10 b8894dbc 8944240c e8730900 008b4dbc  ..M..D$..s....M.
 8048c20 8b55b8e9 3ffeffff 8b45d88b 55d8c744  .U..?....E..U..D
 8048c30 240890b0 0408c744 24040100 000083e0  $......D$.......
 8048c40 01d1ea01 d0a38cb0 04088904 24e81e08  ............$...
 8048c50 000083f8 ff75218b 55d8c744 24081000  .....u!.U..D$...
 8048c60 0000c704 24209a04 08895424 04e89e0a  ....$ ....T$....
 8048c70 00008db6 00000000 8b4dd8c7 45d00100  .........M..E...
 8048c80 0000c745 d4000000 0083e901 83f90174  ...E...........t
 8048c90 328b1590 b0040885 d20f8e13 03000089  2...............
 8048ca0 4c240489 4dbcc704 2490b004 08e86e09  L$..M...$.....n.
 8048cb0 00008b4d bc8955d4 09c28945 d00f843d  ...M..U....E...=
 8048cc0 0300008b 55d883ea 0283fa01 8955c80f  ....U........U..
 8048cd0 86180500 00a190b0 040885c0 0f8e7803  ..............x.
 8048ce0 00008b45 c8c70424 90b00408 89442404  ...E...$.....D$.
 8048cf0 e82b0900 0089d189 c289c809 d00f84a1  .+..............
 8048d00 0300008b 45d80355 d0134dd4 c7042490  ....E..U..M...$.
 8048d10 b0040889 54240489 4c240889 55b8894d  ....T$..L$..U..M
 8048d20 bc894424 0ce86608 00008b4d bc8b55b8  ..D$..f....M..U.
 8048d30 e907feff ff8d7600 8b45d88b 55d8c744  ......v..E..U..D
 8048d40 240890b0 0408c744 24040100 000083e0  $......D$.......
 8048d50 01d1ea01 d0a38cb0 04088904 24e80e07  ............$...
 8048d60 000083f8 ff75218b 45d8c744 24081000  .....u!.E..D$...
 8048d70 0000c704 24209a04 08894424 04e88e09  ....$ ....D$....
 8048d80 00008db6 00000000 8b4dd8c7 45e00100  .........M..E...
 8048d90 0000c745 e4000000 0083e901 83f90174  ...E...........t
 8048da0 31a190b0 040885c0 0f8e5c01 0000894c  1.........\....L
 8048db0 2404894d bcc70424 90b00408 e85f0800  $..M...$....._..
 8048dc0 008b4dbc 8955e409 c28945e0 0f848601  ..M..U....E.....
 8048dd0 00008b4d d883e902 83f9010f 86fd0300  ...M............
 8048de0 00a190b0 040885c0 0f8e0e03 0000894c  ...............L
 8048df0 2404894d bcc70424 90b00408 e81f0800  $..M...$........
 8048e00 008b4dbc 8955c409 c28945c0 0f843803  ..M..U....E...8.
 8048e10 00008b45 e08b55e4 0345c013 55c4c704  ...E..U..E..U...
 8048e20 2490b004 088945e0 8b45e089 55e48b55  $.....E..E..U..U
 8048e30 d8894424 04895424 0c8b55e4 89542408  ..D$..T$..U..T$.
 8048e40 e84b0700 00e9b4fc ffff8db6 00000000  .K..............
 8048e50 89ca89c8 83e201d1 e88d0402 894dbca3  .............M..
 8048e60 8cb00408 c7442408 90b00408 c7442404  .....D$......D$.
 8048e70 01000000 890424e8 f4050000 8b4dbc83  ......$......M..
 8048e80 f8ff751c 894c2404 c7442408 10000000  ..u..L$..D$.....
 8048e90 c7042420 9a0408e8 74080000 8b4dbc90  ..$ ....t....M..
 8048ea0 8d41ff89 4dbc8904 24e8d2f9 ffff8b4d  .A..M...$......M
 8048eb0 bc8945e0 8d41fe89 55e48904 24e8bef9  ..E..A..U...$...
 8048ec0 ffff8b4d bcc70424 90b00408 894c240c  ...M...$.....L$.
 8048ed0 89d689c3 035de013 75e4895c 24048974  .....]..u..\$..t
 8048ee0 2408e8a9 060000e9 3efbffff 8d742600  $.......>....t&.
 8048ef0 8b55e031 c9e96dfb ffff8db6 00000000  .U.1..m.........
 8048f00 8b55d831 c9e932fc ffff89c8 89cad1ea  .U.1..2.........
 8048f10 83e00101 d0894dbc a38cb004 08c74424  ......M.......D$
 8048f20 0890b004 08c74424 04010000 00890424  ......D$.......$
 8048f30 e83b0500 008b4dbc 83f8ff75 1b894c24  .;....M....u..L$
 8048f40 04c74424 08100000 00c70424 209a0408  ..D$.......$ ...
 8048f50 e8bb0700 008b4dbc 8d41ff89 4dbc8904  ......M..A..M...
 8048f60 24e81af9 ffff8b4d bc8945d0 8d41fe89  $......M..E..A..
 8048f70 55d48904 24e806f9 ffff8b4d bcc70424  U...$......M...$
 8048f80 90b00408 894c240c 8945e08b 45d08955  .....L$..E..E..U
 8048f90 e48b55d4 0145e011 55e48b45 e08b55e4  ..U..E..U..E..U.
 8048fa0 89442404 89542408 e8e30500 00e920fe  .D$..T$....... .
 8048fb0 ffff89c8 89cad1ea 83e00101 d0894dbc  ..............M.
 8048fc0 a38cb004 08c74424 0890b004 08c74424  ......D$......D$
 8048fd0 04010000 00890424 e8930400 008b4dbc  .......$......M.
 8048fe0 83f8ff75 1b894c24 04c74424 08100000  ...u..L$..D$....
 8048ff0 00c70424 209a0408 e8130700 008b4dbc  ...$ .........M.
 8049000 8d41ff89 4dbc8904 24e872f8 ffff8b4d  .A..M...$.r....M
 8049010 bc8945c8 8d41fe89 55cc8904 24e85ef8  ..E..A..U...$.^.
 8049020 ffff8b4d bcc70424 90b00408 894c240c  ...M...$.....L$.
 8049030 8945d08b 45c88955 d48b55cc 0145d011  .E..E..U..U..E..
 8049040 55d48b45 d08b55d4 89442404 89542408  U..E..U..D$..T$.
 8049050 e83b0500 00e969fc ffff8b45 c88b55c8  .;....i....E..U.
 8049060 c7442408 90b00408 c7442404 01000000  .D$......D$.....
 8049070 83e001d1 ea01d0a3 8cb00408 890424e8  ..............$.
 8049080 ec030000 83f8ff75 1b8b55c8 c7442408  .......u..U..D$.
 8049090 10000000 c7042420 9a040889 542404e8  ......$ ....T$..
 80490a0 6c060000 8b45c883 e8018904 24e8cef7  l....E......$...
 80490b0 ffff8945 c08b45c8 8955c483 e8028904  ...E..E..U......
 80490c0 24e8baf7 ffffc704 2490b004 0889d189  $.......$.......
 80490d0 c28b45c8 0355c013 4dc48954 2404894c  ..E..U..M..T$..L
 80490e0 24088955 b8894dbc 8944240c e89f0400  $..U..M..D$.....
 80490f0 008b4dbc 8b55b8e9 07fcffff 89c889ca  ..M..U..........
 8049100 d1ea83e0 0101d089 4dbca38c b00408c7  ........M.......
 8049110 44240890 b00408c7 44240401 00000089  D$......D$......
 8049120 0424e849 0300008b 4dbc83f8 ff751b89  .$.I....M....u..
 8049130 4c2404c7 44240810 000000c7 0424209a  L$..D$.......$ .
 8049140 0408e8c9 0500008b 4dbc8d41 ff894dbc  ........M..A..M.
 8049150 890424e8 28f7ffff 8b4dbc89 45c88d41  ..$.(....M..E..A
 8049160 fe8955cc 890424e8 14f7ffff 8b4dbcc7  ..U...$......M..
 8049170 042490b0 0408894c 240c8945 c08b45c8  .$.....L$..E..E.
 8049180 8955c48b 55cc0145 c01155c4 8b45c08b  .U..U..E..U..E..
 8049190 55c48944 24048954 2408e8f1 030000e9  U..D$..T$.......
 80491a0 6efcffff c7442408 10000000 897c2404  n....D$......|$.
 80491b0 c7042420 9a0408e8 54050000 e929f8ff  ..$ ....T....)..
 80491c0 ffc74424 08100000 00897c24 04c70424  ..D$......|$...$
 80491d0 209a0408 e8370500 00e9dcf8 ffff894d   ....7.........M
 80491e0 c0c745c4 00000000 e925fcff ff8b55c8  ..E......%....U.
 80491f0 31c9e90c fbffff89 f68dbc27 00000000  1..........'....
 8049200 5589e556 31f65383 ec088b5d 0883fb01  U..V1.S....]....
 8049210 763a89d8 ba010000 0031c9c7 45f00000  v:.......1..E...
 8049220 0000c745 f4000000 00eb0f90 8d742600  ...E.........t&.
 8049230 8955f089 da894df4 89f18b5d f08b75f4  .U....M....]..u.
 8049240 01d311ce 83e80183 f80175e4 83c40889  ..........u.....
 8049250 d889f25b 5e5dc389 f68dbc27 00000000  ...[^].....'....
 8049260 5589e557 565383ec 4c8b7d0c 8d45e489  U..WVS..L.}..E..
 8049270 4424088b 4508c745 e4000000 00897c24  D$..E..E......|$
 8049280 04890424 e8470500 0089c331 c083fbff  ...$.G.....1....
 8049290 0f84a000 0000f6c3 010f84a1 00000031  ...............1
 80492a0 fff6c308 c745c800 000000c7 45cc0000  .....E......E...
 80492b0 00007423 e8d70500 0066bf01 00c70424  ..t#.....f.....$
 80492c0 4c9b0408 8945c889 55cc8944 24048954  L....E..U..D$..T
 80492d0 2408e8d9 030000f6 c3020f84 80000000  $...............
 80492e0 c7042470 9a0408e8 c4030000 83e3040f  ..$p............
 80492f0 84430100 00c70424 9c9a0408 e8af0300  .C.....$........
 8049300 008b45e4 890424e8 74f5ffff 89c389d6  ..E...$.t.......
 8049310 83ff010f 84a40000 008b45e4 895c2408  ..........E..\$.
 8049320 8974240c c70424f4 9a040889 442404e8  .t$...$.....D$..
 8049330 7c030000 31c083c4 4c5b5e5f 5dc36690  |...1...L[^_].f.
 8049340 8b07c704 241c9b04 08894424 04e81e04  ....$.....D$....
 8049350 000083c4 4cb8ffff ffff5b5e 5f5dc390  ....L.....[^_]..
 8049360 c70424c8 9a040831 f6e84203 00008b4d  ..$....1..B....M
 8049370 e431d2c7 45d00000 0000b801 000000c7  .1..E...........
 8049380 45d40000 000083f9 0189cb77 15e97eff  E..........w..~.
 8049390 ffff8db6 00000000 8945d089 d88955d4  .........E....U.
 80493a0 89f28b5d d08b75d4 01c311d6 83e90183  ...]..u.........
 80493b0 f90175e4 83ff010f 855cffff ffe8ce04  ..u......\......
 80493c0 0000c704 245c9b04 08894424 04895424  ....$\....D$..T$
 80493d0 088945c4 8955c0e8 d4020000 8b4de489  ..E..U.......M..
 80493e0 5c240889 74240cc7 0424f49a 0408894c  \$..t$...$.....L
 80493f0 2404e8b9 0200008b 4dc88b5d cc8b45c4  $.......M..]..E.
 8049400 8b55c089 4c240889 5c240c89 04248954  .U..L$..\$...$.T
 8049410 2404e8b9 040000c7 04246c9b 04088944  $........$l....D
 8049420 24048954 2408e885 02000083 c44c31c0  $..T$........L1.
 8049430 5b5e5f5d c38d7600 8b45e489 0424e84d  [^_]..v..E...$.M
 8049440 f1ffff89 c389d6e9 c4feffff 8d742600  .............t&.
 8049450 5589e583 e4f083ec 108b450c 89442404  U.........E..D$.
 8049460 8b450889 0424e8f5 fdffffc9 c3909090  .E...$..........
 8049470 5589e583 ec38837d 0cff8975 f88b7510  U....8.}...u..u.
 8049480 897dfc8b 7d08895d f47515bb ffffffff  .}..}..].u......
 8049490 89d88b75 f88b5df4 8b7dfc89 ec5dc390  ...u..]..}...]..
 80494a0 85ff7ee7 85f6bbff ffffff74 e38d04fd  ..~........t....
 80494b0 01000000 890424e8 00f0ffff 85c089c2  ......$.........
 80494c0 89460474 cb8d04bd 01000000 8955e489  .F.t.........U..
 80494d0 0424e8e5 efffff8b 55e485c0 89460874  .$......U....F.t
 80494e0 33893e31 c9c7460c 00000000 c6461000  3.>1..F......F..
 80494f0 c7048800 000000c7 04ca0000 0000c744  ...............D
 8049500 ca040000 000083c1 01390e7f e331dbe9  .........9...1..
 8049510 7cffffff 891424e8 60efffff e96fffff  |.....$.`....o..
 8049520 ffeb0d90 90909090 90909090 90909090  ................
 8049530 55b8ffff ffff89e5 5383ec14 8b5d0885  U.......S....]..
 8049540 db750d83 c4145b5d c38db426 00000000  .u....[]...&....
 8049550 8b530885 d274ec8b 4b0485c9 74e58914  .S...t..K...t...
 8049560 24e816ef ffff8b43 04890424 e80befff  $......C...$....
 8049570 ff31c0c7 03000000 00c7430c 00000000  .1........C.....
 8049580 c6431000 ebbd8d76 008dbc27 00000000  .C.....v...'....
 8049590 5589e583 ec0c8b4d 0c8b5510 891c248b  U......M..U...$.
 80495a0 5d088974 24048b75 1489c809 d0897c24  ]..t$..u......|$
 80495b0 087515b8 ffffffff 8b1c248b 7424048b  .u........$.t$..
 80495c0 7c240889 ec5dc390 85db74e7 85f6b8ff  |$...]....t.....
 80495d0 ffffff74 e38b7b0c 3b3b7fdc 742b8b43  ...t..{.;;..t+.C
 80495e0 048954f8 04890cf8 8b430889 34b88b53  ..T......C..4..S
 80495f0 0c31c083 c201807b 10008953 0c75b93b  .1.....{...S.u.;
 8049600 1375b5c6 431001eb af807b10 0175cfc7  .u..C.....{..u..
 8049610 430c0000 000031ff ebc48db6 00000000  C.....1.........
 8049620 5589e556 5383ec08 8b550c8b 750885d2  U..VS....U..u...
 8049630 743285f6 742e8b0e c745f000 000000c7  t2..t....E......
 8049640 45f40000 000085c9 7e288b5e 0831c039  E.......~(.^.1.9
 8049650 13750aeb 4b8d7600 39148374 2383c001  .u..K.v.9..t#...
 8049660 39c87cf4 c745f000 000000c7 45f40000  9.|..E......E...
 8049670 00008b45 f08b55f4 83c4085b 5e5dc390  ...E..U....[^]..
 8049680 c1e0038b 56048b5c 02048b0c 02895df4  ....V..\......].
 8049690 8b55f489 4df08b45 f083c408 5b5e5dc3  .U..M..E....[^].
 80496a0 31c0ebdf 90909090 90909090 90909090  1...............
 80496b0 5589e553 83ec14a1 60b00408 c744240c  U..S....`....D$.
 80496c0 839b0408 8d5d0cc7 44240888 9b0408c7  .....]..D$......
 80496d0 44240401 00000089 0424a3a4 b00408e8  D$.......$......
 80496e0 58edffff 8b450889 5c240cc7 44240401  X....E..\$..D$..
 80496f0 00000089 442408a1 a4b00408 890424e8  ....D$........$.
 8049700 88edffff 83c4145b 5dc38db6 00000000  .......[].......
 8049710 5589e553 83ec14a1 60b00408 c744240c  U..S....`....D$.
 8049720 8d9b0408 8d5d0cc7 44240888 9b0408c7  .....]..D$......
 8049730 44240401 00000089 0424a3a4 b00408e8  D$.......$......
 8049740 f8ecffff 8b450889 5c240cc7 44240401  .....E..\$..D$..
 8049750 00000089 442408a1 a4b00408 890424e8  ....D$........$.
 8049760 28edffff 83c4145b 5dc38db6 00000000  (......[].......
 8049770 5589e553 83ec14a1 40b00408 c744240c  U..S....@....D$.
 8049780 929b0408 8d5d0cc7 44240888 9b0408c7  .....]..D$......
 8049790 44240401 00000089 0424a3a4 b00408e8  D$.......$......
 80497a0 98ecffff 8b450889 5c240cc7 44240401  .....E..\$..D$..
 80497b0 00000089 442408a1 a4b00408 890424e8  ....D$........$.
 80497c0 c8ecffff 83c4145b 5dc39090 90909090  .......[].......
 80497d0 5589e557 5653bbff ffffff83 ec2c8b45  U..WVS.......,.E
 80497e0 108b7508 8b7d0c85 c00f8489 000000c7  ..u..}..........
 80497f0 45e40000 000031db c7442408 989b0408  E.....1..D$.....
 8049800 897c2404 893424e8 90ecffff 83f8ff74  .|$..4$........t
 8049810 5f83e863 83f81176 0783cb10 ebda6690  _..c...v......f.
 8049820 ff2485a0 9b040890 83cb0290 8d742600  .$...........t&.
 8049830 ebc68db6 00000000 a180b004 0883cb01  ................
 8049840 c7442408 0a000000 c7442404 00000000  .D$......D$.....
 8049850 890424e8 54ecffff 8945e4eb 9b8d7600  ..$.T....E....v.
 8049860 83cb08eb 938d7600 83cb04eb 8b8d7600  ......v.......v.
 8049870 8b55e48b 45108910 83c42c89 d85b5e5f  .U..E.....,..[^_
 8049880 5dc39090 90909090 90909090 90909090  ]...............
 8049890 5589e583 ec288d45 f0c74424 04000000  U....(.E..D$....
 80498a0 00890424 e8c3ebff ff31d289 c131c083  ...$.....1...1..
 80498b0 f9ff740f 6955f040 420f0003 55f489d0  ..t.iU.@B...U...
 80498c0 c1fa1fc9 c38d7426 008dbc27 00000000  ......t&...'....
 80498d0 5589e583 ec0c891c 248b5514 8b5d0c89  U.......$.U..]..
 80498e0 7424048b 4d08897c 24088b45 1039da73  t$..M..|$..E.9.s
 80498f0 1f89ce89 df8b1c24 29c619d7 89f08b74  .......$)......t
 8049900 240489fa 8b7c2408 89ec5dc3 8d742600  $....|$...]..t&.
 8049910 761629c8 8b742404 19da8b7c 24088b1c  v.)..t$....|$...
 8049920 2489ec5d c38d7600 39c877e6 39da7613  $..]..v.9.w.9.v.
 8049930 31c031d2 8b1c248b 7424048b 7c240889  1.1...$.t$..|$..
 8049940 ec5dc372 ac39c873 e78db426 00000000  .].r.9.s...&....
 8049950 eb9f9090 90909090 90909090 90909090  ................
 8049960 5589e557 5653e85a 00000081 c3891600  U..WVS.Z........
 8049970 0083ec1c e883eaff ff8dbb20 ffffff8d  ........... ....
 8049980 8320ffff ff29c7c1 ff0285ff 742431f6  . ...)......t$1.
 8049990 8b451089 4424088b 450c8944 24048b45  .E..D$..E..D$..E
 80499a0 08890424 ff94b320 ffffff83 c60139fe  ...$... ......9.
 80499b0 72de83c4 1c5b5e5f 5dc38db6 00000000  r....[^_].......
 80499c0 5589e55d c38b1c24 c3909090 90909090  U..]...$........
 80499d0 5589e553 83ec04a1 14af0408 83f8ff74  U..S...........t
 80499e0 13bb14af 04086690 83eb04ff d08b0383  ......f.........
 80499f0 f8ff75f4 83c4045b 5dc39090           ..u....[]...    
Contents of section .fini:
 80499fc 5589e553 83ec04e8 00000000 5b81c3ec  U..S........[...
 8049a0c 150000e8 eceaffff 595bc9c3           ........Y[..    
Contents of section .rodata:
 8049a18 03000000 01000200 75363466 5f666962  ........u64f_fib
 8049a28 6f6e6163 63695f72 65637572 73697665  onacci_recursive
 8049a38 5f636163 6865643a 2063616e 6e6f7420  _cached: cannot 
 8049a48 696e6974 69616c69 7a652063 61636865  initialize cache
 8049a58 205b2025 75205d20 6f662073 697a6520   [ %u ] of size 
 8049a68 5b202575 205d0a00 7573696e 67207265  [ %u ]..using re
 8049a78 63757273 69766520 616c676f 72697468  cursive algorith
 8049a88 6d20666f 72207265 73756c74 202e2e2e  m for result ...
 8049a98 0a000000 7573696e 67207265 63757273  ....using recurs
 8049aa8 69766520 616c676f 72697468 6d207769  ive algorithm wi
 8049ab8 74682063 61636865 202e2e2e 0a000000  th cache .......
 8049ac8 7573696e 67207365 7175656e 7469616c  using sequential
 8049ad8 20616c67 6f726974 686d2066 6f722072   algorithm for r
 8049ae8 6573756c 74202e2e 2e0a0000 72657175  esult ......requ
 8049af8 65737465 643a2025 752c2063 6f6d7075  ested: %u, compu
 8049b08 7465642d 72657375 6c743a20 256c7520  ted-result: %lu 
 8049b18 0a000000 6e6f206e 756d6265 72207370  ....no number sp
 8049b28 65636966 6965640a 75736167 653a2025  ecified.usage: %
 8049b38 73202d6e 203c6e75 6d626572 3e205b2d  s -n <number> [-
 8049b48 725d0a00 7374616d 705b315d 203d2025  r]..stamp[1] = %
 8049b58 6c750a00 7374616d 705b325d 203d2025  lu..stamp[2] = %
 8049b68 6c750a00 74696d65 2074616b 656e3a20  lu..time taken: 
 8049b78 256c7520 75536563 730a0069 6e666f00  %lu uSecs..info.
 8049b88 25733a20 00776172 6e004552 524f5200  %s: .warn.ERROR.
 8049b98 6e3a7263 74680000 68980408 19980408  n:rcth..h.......
 8049ba8 19980408 19980408 19980408 19980408  ................
 8049bb8 19980408 19980408 19980408 19980408  ................
 8049bc8 19980408 38980408 19980408 19980408  ....8...........
 8049bd8 19980408 28980408 19980408 60980408  ....(.......`...
Contents of section .eh_frame:
 8049be8 00000000                             ....            
Contents of section .ctors:
 804af14 ffffffff 00000000                    ........        
Contents of section .dtors:
 804af1c ffffffff 00000000                    ........        
Contents of section .jcr:
 804af24 00000000                             ....            
Contents of section .dynamic:
 804af28 01000000 10000000 0c000000 fc830408  ................
 804af38 0d000000 fc990408 f5feff6f 8c810408  ...........o....
 804af48 05000000 9c820408 06000000 bc810408  ................
 804af58 0a000000 ab000000 0b000000 10000000  ................
 804af68 15000000 00000000 03000000 f4af0408  ................
 804af78 02000000 48000000 14000000 11000000  ....H...........
 804af88 17000000 b4830408 11000000 94830408  ................
 804af98 12000000 20000000 13000000 08000000  .... ...........
 804afa8 feffff6f 64830408 ffffff6f 01000000  ...od......o....
 804afb8 f0ffff6f 48830408 00000000 00000000  ...oH...........
 804afc8 00000000 00000000 00000000 00000000  ................
 804afd8 00000000 00000000 00000000 00000000  ................
 804afe8 00000000 00000000                    ........        
Contents of section .got:
 804aff0 00000000                             ....            
Contents of section .got.plt:
 804aff4 28af0408 00000000 00000000 42840408  (...........B...
 804b004 52840408 62840408 72840408 82840408  R...b...r.......
 804b014 92840408 a2840408 b2840408 c2840408  ................
Contents of section .data:
 804b024 00000000 00000000                    ........        
Contents of section .comment:
 0000 4743433a 20285562 756e7475 2f4c696e  GCC: (Ubuntu/Lin
 0010 61726f20 342e352e 322d3875 62756e74  aro 4.5.2-8ubunt
 0020 75342920 342e352e 32004743 433a2028  u4) 4.5.2.GCC: (
 0030 5562756e 74752f4c 696e6172 6f20342e  Ubuntu/Linaro 4.
 0040 352e322d 38756275 6e747533 2920342e  5.2-8ubuntu3) 4.
 0050 352e3200                             5.2.            
Contents of section .debug_aranges:
 0000 1c000000 02000000 00000400 00000000  ................
 0010 90850408 dd0e0000 00000000 00000000  ................
 0020 1c000000 02006107 00000400 00000000  ......a.........
 0030 70940408 34020000 00000000 00000000  p...4...........
 0040 1c000000 0200c709 00000400 00000000  ................
 0050 b0960408 1a010000 00000000 00000000  ................
 0060 1c000000 0200f50f 00000400 00000000  ................
 0070 d0970408 b2000000 00000000 00000000  ................
 0080 1c000000 02001b11 00000400 00000000  ................
 0090 90980408 c2000000 00000000 00000000  ................
Contents of section .debug_pubnames:
 0000 86000000 02000000 00006107 00006201  ..........a...b.
 0010 00007536 34665f66 69626f6e 61636369  ..u64f_fibonacci
 0020 5f726563 75727369 7665001c 03000075  _recursive.....u
 0030 3634665f 6669626f 6e616363 695f7265  64f_fibonacci_re
 0040 63757273 6976655f 63616368 656400d9  cursive_cached..
 0050 05000075 3634665f 6669626f 6e616363  ...u64f_fibonacc
 0060 695f7365 71001b06 00007333 32665f66  i_seq.....s32f_f
 0070 69626f6e 61636369 5f617070 001b0700  ibonacci_app....
 0080 006d6169 6e000000 00006100 00000200  .main.....a.....
 0090 61070000 66020000 04010000 73333266  a...f.......s32f
 00a0 5f6c6361 6368655f 696e6974 007f0100  _lcache_init....
 00b0 00733332 665f6c63 61636865 5f667265  .s32f_lcache_fre
 00c0 6500ba01 00007333 32665f6c 63616368  e.....s32f_lcach
 00d0 655f6164 64001102 00007536 34665f6c  e_add.....u64f_l
 00e0 63616368 655f6669 6e640000 00000042  cache_find.....B
 00f0 00000002 00c70900 002e0600 00a40300  ................
 0100 00756d65 73736167 65005804 00007577  .umessage.X...uw
 0110 61726e69 6e67000c 05000075 6572726f  arning.....uerro
 0120 72001b06 00006f75 745f7374 7265616d  r.....out_stream
 0130 00000000 00220000 000200f5 0f000026  .....".........&
 0140 0100008a 00000073 3332665f 70617273  .......s32f_pars
 0150 655f6172 67730000 00000036 00000002  e_args.....6....
 0160 001b1100 00530100 00c30000 00753634  .....S.......u64
 0170 665f6765 7474696d 655f6d73 6563000d  f_gettime_msec..
 0180 01000075 3634665f 67657464 656c7461  ...u64f_getdelta
 0190 00000000 00                          .....           
Contents of section .debug_info:
 0000 5d070000 02000000 00000401 2b000000  ]...........+...
 0010 01cf0100 00908504 086d9404 08000000  .........m......
 0020 00020b00 00000204 2c000000 03040569  ........,......i
 0030 6e740002 02010000 02053e00 00000404  nt........>.....
 0040 07780000 00040106 9c000000 02550100  .x...........U..
 0050 00020757 00000004 01089300 00000402  ...W............
 0060 05770100 00040207 ae000000 04080569  .w.............i
 0070 01000002 9c010000 020b7e00 00000408  ..........~.....
 0080 076e0000 0005a701 00001403 0ad80000  .n..............
 0090 0006f400 0000030c 21000000 02230006  ........!....#..
 00a0 a1000000 030dd800 00000223 04064b01  ...........#..K.
 00b0 0000030e de000000 02230806 5a010000  .........#..Z...
 00c0 030f2100 00000223 0c06c100 00000310  ..!....#........
 00d0 4c000000 02231000 07047300 00000704  L....#....s.....
 00e0 33000000 02650000 00031285 00000008  3....e..........
 00f0 01520000 00014501 73000000 01390100  .R....E.s....9..
 0100 00093700 00000145 33000000 0a920100  ..7....E3.......
 0110 00014773 0000000a 41010000 01487300  ..Gs....A....Hs.
 0120 00000a49 00000001 49730000 000ac601  ...I....Is......
 0130 0000014a 33000000 00080108 01000001  ...J3...........
 0140 0d017300 00000162 01000009 37000000  ..s....b....7...
 0150 010d3300 00000ad8 00000001 0f730000  ..3..........s..
 0160 00000b39 01000090 85040879 88040800  ...9.......y....
 0170 000000dd 0200000c 4b010000 0291000d  ........K.......
 0180 56010000 38000000 0e390100 00de8504  V...8....9......
 0190 085b8804 0801160f 4b010000 54000000  .[......K...T...
 01a0 10de8504 085b8804 080d5601 00007400  .....[....V...t.
 01b0 00000e39 01000004 86040837 88040801  ...9.......7....
 01c0 160f4b01 00009000 00001004 86040837  ..K............7
 01d0 8804080d 56010000 a5000000 0e390100  ....V........9..
 01e0 002a8604 08158804 0801160f 4b010000  .*..........K...
 01f0 c1000000 102a8604 08158804 080d5601  .....*........V.
 0200 0000d600 00000e39 01000050 860408f3  .......9...P....
 0210 87040801 160f4b01 0000f200 00001050  ......K........P
 0220 860408f3 8704080d 56010000 07010000  ........V.......
 0230 0e390100 005f8604 08d18704 0801160f  .9..._..........
 0240 4b010000 23010000 105f8604 08d18704  K...#...._......
 0250 080d5601 00003801 00001139 01000080  ..V...8....9....
 0260 86040800 00000001 160f4b01 00007301  ..........K...s.
 0270 00001228 0000000d 56010000 95010000  ...(....V.......
 0280 11390100 00a48604 08500000 0001160f  .9.......P......
 0290 4b010000 d0010000 12880000 000d5601  K.............V.
 02a0 0000f001 00001139 010000c8 860408c0  .......9........
 02b0 00000001 160f4b01 00002b02 000012e8  ......K...+.....
 02c0 0000000d 56010000 4a020000 00000000  ....V...J.......
 02d0 00000000 00000000 00000000 00080121  ...............!
 02e0 01000001 1c017300 0000011c 03000009  ......s.........
 02f0 37000000 011c3300 00000a81 01000001  7.....3.........
 0300 1ee40000 000a1d00 0000011f 33000000  ............3...
 0310 0ad80000 00012073 00000000 0bdd0200  ...... s........
 0320 00808804 08f79104 08850200 00d90500  ................
 0330 000cef02 00000291 0013fa02 00000503  ................
 0340 90b00408 13050300 0005038c b004080d  ................
 0350 10030000 d5020000 14dd0200 00238904  .............#..
 0360 08100100 00013b1a 0400000f ef020000  ......;.........
 0370 49030000 12480100 000d1003 00008803  I....H..........
 0380 000013fa 02000005 0390b004 08130503  ................
 0390 00000503 8cb00408 14dd0200 002d8a04  .............-..
 03a0 08800100 00013bda 0300000f ef020000  ......;.........
 03b0 2c040000 12a80100 000d1003 00007904  ,.............y.
 03c0 000013fa 02000005 0390b004 08130503  ................
 03d0 00000503 8cb00408 000011dd 020000ed  ................
 03e0 890408d0 01000001 3b0fef02 0000fd04  ........;.......
 03f0 000012e8 0100000d 10030000 1b050000  ................
 0400 13fa0200 00050390 b0040813 05030000  ................
 0410 05038cb0 04080000 000011dd 0200005b  ...............[
 0420 89040800 02000001 3b0fef02 00008b05  ........;.......
 0430 00001238 0200000d 10030000 d5050000  ...8............
 0440 13fa0200 00050390 b0040813 05030000  ................
 0450 05038cb0 040814dd 02000001 8b040870  ...............p
 0460 02000001 3b180500 000fef02 00004906  ....;.........I.
 0470 000012a8 0200000d 10030000 ae060000  ................
 0480 13fa0200 00050390 b0040813 05030000  ................
 0490 05038cb0 040814dd 020000c9 8c0408e0  ................
 04a0 02000001 3bd80400 000fef02 00003207  ....;.........2.
 04b0 00001208 0300000d 10030000 7f070000  ................
 04c0 13fa0200 00050390 b0040813 05030000  ................
 04d0 05038cb0 04080000 11dd0200 007b8c04  .............{..
 04e0 08300300 00013b0f ef020000 03080000  .0....;.........
 04f0 12500300 000d1003 00002108 000013fa  .P........!.....
 0500 02000005 0390b004 08130503 00000503  ................
 0510 8cb00408 00000000 11dd0200 00bd8a04  ................
 0520 08700300 00013b0f ef020000 81080000  .p....;.........
 0530 12a80300 000d1003 0000c408 000013fa  ................
 0540 02000005 0390b004 08130503 00000503  ................
 0550 8cb00408 14dd0200 00d88d04 08e00300  ................
 0560 00013b96 0500000f ef020000 48090000  ..;.........H...
 0570 12000400 000d1003 00007109 000013fa  ..........q.....
 0580 02000005 0390b004 08130503 00000503  ................
 0590 8cb00408 000011dd 0200008b 8d040820  ............... 
 05a0 04000001 3b0fef02 0000dc09 00001240  ....;..........@
 05b0 0400000d 10030000 fa090000 13fa0200  ................
 05c0 00050390 b0040813 05030000 05038cb0  ................
 05d0 04080000 00000000 000bef00 00000092  ................
 05e0 04085792 0408660a 00001b06 00000c01  ..W...f.........
 05f0 01000002 91000d0c 0100009e 0a00000d  ................
 0600 17010000 da0a0000 0d220100 00160b00  ........."......
 0610 000d2d01 0000620b 00000015 01e10000  ..-...b.........
 0620 00015e01 21000000 60920408 4c940408  ..^.!...`...L...
 0630 8c0b0000 0f070000 16640100 00015e2c  .........d....^,
 0640 00000002 910016a2 01000001 5e0f0700  ............^...
 0650 00029104 17bd0100 00016021 00000000  ..........`!....
 0660 0c000018 37000000 01613300 00000291  ....7....a3.....
 0670 5c170000 00000162 21000000 670c0000  \......b!...g...
 0680 17850000 00016373 000000a7 0c000017  ......cs........
 0690 3e000000 01653300 00001b0d 000017cc  >....e3.........
 06a0 00000001 66730000 00680d00 0017b101  ....fs...h......
 06b0 00000167 73000000 bc0d0000 17110000  ...gs...........
 06c0 00016873 00000010 0e000011 ef000000  ..hs............
 06d0 67930408 60040000 01850f01 01000050  g...`..........P
 06e0 0e000012 78040000 0d0c0100 00640e00  ....x........d..
 06f0 000d1701 0000a00e 00000d22 010000dc  ..........."....
 0700 0e00000d 2d010000 180f0000 00000007  ....-...........
 0710 04150700 00070445 00000019 01fd0000  .......E........
 0720 00019b01 2c000000 50940408 6d940408  ....,...P...m...
 0730 420f0000 16640100 00019b2c 00000002  B....d.....,....
 0740 910016a2 01000001 9b0f0700 00029104  ................
 0750 178c0000 00019d2c 0000007a 0f000000  .......,...z....
 0760 00620200 0002005a 01000004 012b0000  .b.....Z.....+..
 0770 00014302 00007094 0408a496 04080b03  ..C...p.........
 0780 00000204 07780000 00030405 696e7400  .....x......int.
 0790 0204056e 01000002 08056901 00000201  ...n......i.....
 07a0 08930000 00020207 ae000000 02040773  ...............s
 07b0 00000002 01069500 00000202 05770100  .............w..
 07c0 00020807 6e000000 0201069c 00000004  ....n...........
 07d0 0b000000 02042800 00000402 01000002  ......(.........
 07e0 05210000 00045501 00000207 3d000000  .!....U.....=...
 07f0 049c0100 00020b60 00000005 a7010000  .......`........
 0800 14030aed 00000006 f4000000 030c6e00  ..............n.
 0810 00000223 0006a100 0000030d ed000000  ...#............
 0820 02230406 4b010000 030ef300 00000223  .#..K..........#
 0830 08065a01 0000030f 6e000000 02230c06  ..Z.....n....#..
 0840 c1000000 03108400 00000223 10000704  ...........#....
 0850 8f000000 07047900 00000465 00000003  ......y....e....
 0860 129a0000 000801ff 01000001 0c016e00  ..............n.
 0870 00007094 04082195 0408990f 00007901  ..p...!.......y.
 0880 0000096a 02000001 0c6e0000 00029100  ...j.....n......
 0890 098b0200 00010c79 00000002 9104099d  .......y........
 08a0 02000001 0d790100 00029108 0abd0100  .....y..........
 08b0 00010f6e 000000e9 0f00000a 1a020000  ...n............
 08c0 01107900 00002c10 00000aa8 02000001  ..y...,.........
 08d0 116e0000 00701000 00000704 f9000000  .n...p..........
 08e0 08013202 0000013f 016e0000 00309504  ..2....?.n...0..
 08f0 08869504 08a71000 00ba0100 00099d02  ................
 0900 0000013f 79010000 0291000a bd010000  ...?y...........
 0910 01416e00 0000eb10 00000008 01220200  .An.........."..
 0920 00015b01 6e000000 90950408 1a960408  ..[.n...........
 0930 16110000 11020000 099d0200 00015b79  ..............[y
 0940 01000002 910009f4 01000001 5b8f0000  ............[...
 0950 00029104 09100200 00015c79 00000002  ..........\y....
 0960 910c0abd 01000001 5e6e0000 00661100  ........^n...f..
 0970 00000b01 7a020000 0184018f 00000020  ....z.......... 
 0980 960408a4 96040891 11000009 9d020000  ................
 0990 01847901 00000291 00091002 00000184  ..y.............
 09a0 79000000 0291040a d8000000 01868f00  y...............
 09b0 0000ed11 00000aa8 02000001 876e0000  .............n..
 09c0 00491200 0000002a 06000002 00040200  .I.....*........
 09d0 0004012b 00000001 82040000 b0960408  ...+............
 09e0 ca970408 4f040000 02cd0200 0003d32c  ....O..........,
 09f0 00000003 04077800 00000301 08930000  ......x.........
 0a00 00030207 ae000000 03040773 00000003  ...........s....
 0a10 01069500 00000302 05770100 00040405  .........w......
 0a20 696e7400 03080569 01000003 08076e00  int....i......n.
 0a30 0000022a 03000004 385d0000 0002b102  ...*....8]......
 0a40 0000048d 81000000 0304056e 01000002  ...........n....
 0a50 3b040000 048e6b00 00000504 06049b00  ;.....k.........
 0a60 00000301 069c0000 0002ed03 00000531  ...............1
 0a70 ad000000 07e90300 0094060f 016e0200  .............n..
 0a80 00089602 00000610 01560000 00022300  .........V....#.
 0a90 08b90200 00061501 95000000 02230408  .............#..
 0aa0 f3020000 06160195 00000002 23080845  ............#..E
 0ab0 04000006 17019500 00000223 0c08d904  ...........#....
 0ac0 00000618 01950000 00022310 08690300  ..........#..i..
 0ad0 00061901 95000000 02231408 d0030000  .........#......
 0ae0 061a0195 00000002 231808de 02000006  ........#.......
 0af0 1b019500 00000223 1c081203 0000061c  .......#........
 0b00 01950000 00022320 08860300 00061e01  ......# ........
 0b10 95000000 02232408 c9040000 061f0195  .....#$.........
 0b20 00000002 23280853 04000006 20019500  ....#(.S.... ...
 0b30 00000223 2c080604 00000622 01c10200  ...#,......"....
 0b40 00022330 08c60200 00062401 c7020000  ..#0......$.....
 0b50 02233408 eb020000 06260156 00000002  .#4......&.V....
 0b60 2338089a 03000006 2a015600 00000223  #8......*.V....#
 0b70 3c083303 0000062c 01760000 00022340  <.3....,.v....#@
 0b80 081e0300 00063001 3a000000 02234408  ......0.:....#D.
 0b90 1f040000 06310148 00000002 234608d4  .....1.H....#F..
 0ba0 02000006 3201cd02 00000223 47089403  ....2......#G...
 0bb0 00000636 01dd0200 00022348 08370300  ...6......#H.7..
 0bc0 00063f01 88000000 02234c08 74040000  ..?......#L.t...
 0bd0 06480193 00000002 2354087b 04000006  .H......#T.{....
 0be0 49019300 00000223 58084803 0000064a  I......#X.H....J
 0bf0 01930000 0002235c 08ab0400 00064b01  ......#\......K.
 0c00 93000000 02236008 b2040000 064c0121  .....#`......L.!
 0c10 00000002 236408a2 03000006 4e015600  ....#d......N.V.
 0c20 00000223 6808b904 00000650 01e30200  ...#h......P....
 0c30 0002236c 0002c103 00000728 79020000  ..#l.......(y...
 0c40 09040003 00009b00 00000ade 03000006  ................
 0c50 b40b4f03 00000c06 bac10200 000c3504  ..O...........5.
 0c60 000006bb c1020000 0223000c 77030000  .........#..w...
 0c70 06bcc702 00000223 040c0104 000006c0  .......#........
 0c80 56000000 02230800 06048a02 00000604  V....#..........
 0c90 ad000000 0d9b0000 00dd0200 000e2c00  ..............,.
 0ca0 00000000 06048302 00000d9b 000000f3  ................
 0cb0 0200000e 2c000000 27000604 f9020000  ....,...'.......
 0cc0 0f9b0000 0002c803 00000550 6e020000  ...........Pn...
 0cd0 10016604 00000260 01560000 00030134  ..f....`.V.....4
 0ce0 03000011 60030000 02603403 0000116e  ....`....`4....n
 0cf0 04000002 60f30200 00120006 04a20000  ....`...........
 0d00 00100165 04000002 7d015600 00000301  ...e....}.V.....
 0d10 6f030000 11600300 00027d34 03000011  o....`....}4....
 0d20 6e040000 027ef302 00001160 04000002  n....~.....`....
 0d30 7e6e0200 000013f2 03000001 0e01019e  ~n..............
 0d40 03000011 af030000 010e9500 0000112e  ................
 0d50 04000001 0e950000 00113f03 0000010e  ..........?.....
 0d60 9e030000 000604fe 02000014 01160400  ................
 0d70 00011501 b0960408 0a970408 8a120000  ................
 0d80 58040000 152e0400 00011595 00000002  X...............
 0d90 91001216 3f030000 0117fe02 0000c212  ....?...........
 0da0 0000176f 030000bc 96040890 04000001  ...o............
 0db0 1a189203 00001987 03000002 9100197c  ...............|
 0dc0 03000006 03839b04 089f1a09 030000bc  ................
 0dd0 960408b0 04000001 102c0400 001b1c03  .........,......
 0de0 0000e212 00001927 03000006 03889b04  .......'........
 0df0 089f001c 3a030000 e4960408 04970408  ....:...........
 0e00 01111b63 030000f9 12000019 58030000  ...c........X...
 0e10 0291001b 4d030000 19130000 00000014  ....M...........
 0e20 017d0300 00011e01 10970408 6a970408  .}..........j...
 0e30 30130000 0c050000 152e0400 00011e95  0...............
 0e40 00000002 91001216 3f030000 0120fe02  ........?.... ..
 0e50 00006813 0000176f 0300001c 970408d0  ..h....o........
 0e60 04000001 23189203 00001987 03000002  ....#...........
 0e70 9100197c 03000006 038d9b04 089f1a09  ...|............
 0e80 0300001c 970408f0 04000001 10e00400  ................
 0e90 001b1c03 00008813 00001927 03000006  ...........'....
 0ea0 03889b04 089f001c 3a030000 44970408  ........:...D...
 0eb0 64970408 01111b63 0300009f 13000019  d......c........
 0ec0 58030000 0291001b 4d030000 bf130000  X.......M.......
 0ed0 00000014 010f0400 00012701 70970408  ..........'.p...
 0ee0 ca970408 d6130000 c0050000 152e0400  ................
 0ef0 00012795 00000002 91001216 3f030000  ..'.........?...
 0f00 0129fe02 00000e14 0000176f 0300007c  .).........o...|
 0f10 97040810 05000001 2c189203 00001987  ........,.......
 0f20 03000002 9100197c 03000006 03929b04  .......|........
 0f30 089f1a09 0300007c 97040830 05000001  .......|...0....
 0f40 10940500 001b1c03 00002e14 00001927  ...............'
 0f50 03000006 03889b04 089f001c 3a030000  ............:...
 0f60 a4970408 c4970408 01111b63 03000045  ...........c...E
 0f70 14000019 58030000 0291001b 4d030000  ....X.......M...
 0f80 65140000 0000001d 5a030000 05a5c702  e.......Z.......
 0f90 00000101 1da80300 0005a6c7 02000001  ................
 0fa0 011dc204 000005a7 c7020000 01011db6  ................
 0fb0 03000001 0c340300 0001011d 5a030000  .....4......Z...
 0fc0 05a5c702 00000101 1da80300 0005a6c7  ................
 0fd0 02000001 011dc204 000005a7 c7020000  ................
 0fe0 01011eb6 03000001 0c340300 00010503  .........4......
 0ff0 a4b00408 00220100 0002008d 03000004  ....."..........
 1000 012b0000 0001e804 0000d097 04088298  .+..............
 1010 0408be05 00000201 08930000 00020207  ................
 1020 ae000000 02040778 00000002 04077300  .......x......s.
 1030 00000201 06950000 00020205 77010000  ............w...
 1040 03040569 6e740002 08056901 00000208  ...int....i.....
 1050 076e0000 00020405 6e010000 04046d00  .n......n.....m.
 1060 00000201 069c0000 00050b00 00000204  ................
 1070 4b000000 05020100 0002052f 00000006  K........../....
 1080 01220500 00011401 74000000 d0970408  ."......t.......
 1090 82980408 7c140000 ff000000 07640100  ....|........d..
 10a0 0001144b 00000002 910007a2 01000001  ...K............
 10b0 14ff0000 00029104 07190500 00011405  ................
 10c0 01000002 910808bd 01000001 16740000  .............t..
 10d0 00b41400 00081005 00000117 74000000  ............t...
 10e0 20150000 08320500 00011874 00000057   ....2.....t...W
 10f0 15000000 04046700 00000404 7f000000  ......g.........
 1100 093b0500 00033b67 00000001 01093b05  .;....;g......;.
 1110 0000033b 67000000 0101004f 01000002  ...;g......O....
 1120 00130400 0004012b 00000001 b5050000  .......+........
 1130 90980408 52990408 85060000 02040778  ....R..........x
 1140 00000003 0405696e 74000204 056e0100  ......int....n..
 1150 00020805 69010000 02010893 00000002  ....i...........
 1160 0207ae00 00000204 07730000 00020106  .........s......
 1170 95000000 02020577 01000002 08076e00  .......w......n.
 1180 00000497 05000002 952f0000 0004a705  ........./......
 1190 00000297 2f000000 0201069c 00000005  ..../...........
 11a0 75050000 08034bad 00000006 a0050000  u.....K.........
 11b0 034d6700 00000223 00068f05 0000034e  .Mg....#.......N
 11c0 72000000 02230400 040b0000 00040428  r....#.........(
 11d0 00000004 9c010000 040b6000 00000701  ..........`.....
 11e0 7d050000 010c01b8 00000090 980408c5  }...............
 11f0 9804089d 1500000d 01000008 42050000  ............B...
 1200 010e8400 00000291 68096105 0000010f  ........h.a.....
 1210 b8000000 d5150000 09db0500 000110ad  ................
 1220 00000001 16000000 0a014b05 0000011f  ..........K.....
 1230 01b80000 00d09804 08529904 082b1600  .........R...+..
 1240 000b6b05 0000011f b8000000 0291000b  ..k.............
 1250 59050000 011fb800 00000291 0809d800  Y...............
 1260 00000121 b8000000 c3160000 0000      ...!..........  
Contents of section .debug_abbrev:
 0000 01110125 0e130b03 0e110112 01100600  ...%............
 0010 00021600 030e3a0b 3b0b4913 00000324  ......:.;.I....$
 0020 000b0b3e 0b030800 00042400 0b0b3e0b  ...>......$...>.
 0030 030e0000 05130103 0e0b0b3a 0b3b0b01  ...........:.;..
 0040 13000006 0d00030e 3a0b3b0b 4913380a  ........:.;.I.8.
 0050 0000070f 000b0b49 13000008 2e013f0c  .......I......?.
 0060 030e3a0b 3b0b270c 4913200b 01130000  ..:.;.'.I. .....
 0070 09050003 0e3a0b3b 0b491300 000a3400  .....:.;.I....4.
 0080 030e3a0b 3b0b4913 00000b2e 01311311  ..:.;.I......1..
 0090 01120140 06011300 000c0500 3113020a  ...@........1...
 00a0 00000d34 00311302 0600000e 1d013113  ...4.1........1.
 00b0 11011201 580b590b 00000f05 00311302  ....X.Y......1..
 00c0 06000010 0b011101 12010000 111d0131  ...............1
 00d0 13520155 06580b59 0b000012 0b015506  .R.U.X.Y......U.
 00e0 00001334 00311302 0a000014 1d013113  ...4.1........1.
 00f0 52015506 580b590b 01130000 152e013f  R.U.X.Y........?
 0100 0c030e3a 0b3b0b27 0c491311 01120140  ...:.;.'.I.....@
 0110 06011300 00160500 030e3a0b 3b0b4913  ..........:.;.I.
 0120 020a0000 17340003 0e3a0b3b 0b491302  .....4...:.;.I..
 0130 06000018 3400030e 3a0b3b0b 4913020a  ....4...:.;.I...
 0140 0000192e 013f0c03 0e3a0b3b 0b270c49  .....?...:.;.'.I
 0150 13110112 01400600 00000111 01250e13  .....@.......%..
 0160 0b030e11 01120110 06000002 24000b0b  ............$...
 0170 3e0b030e 00000324 000b0b3e 0b030800  >......$...>....
 0180 00041600 030e3a0b 3b0b4913 00000513  ......:.;.I.....
 0190 01030e0b 0b3a0b3b 0b011300 00060d00  .....:.;........
 01a0 030e3a0b 3b0b4913 380a0000 070f000b  ..:.;.I.8.......
 01b0 0b491300 00082e01 3f0c030e 3a0b3b0b  .I......?...:.;.
 01c0 270c4913 11011201 40060113 00000905  '.I.....@.......
 01d0 00030e3a 0b3b0b49 13020a00 000a3400  ...:.;.I......4.
 01e0 030e3a0b 3b0b4913 02060000 0b2e013f  ..:.;.I........?
 01f0 0c030e3a 0b3b0b27 0c491311 01120140  ...:.;.'.I.....@
 0200 06000000 01110125 0e130b03 0e110112  .......%........
 0210 01100600 00021600 030e3a0b 3b0b4913  ..........:.;.I.
 0220 00000324 000b0b3e 0b030e00 00042400  ...$...>......$.
 0230 0b0b3e0b 03080000 050f000b 0b000006  ..>.............
 0240 0f000b0b 49130000 07130103 0e0b0b3a  ....I..........:
 0250 0b3b0501 13000008 0d00030e 3a0b3b05  .;..........:.;.
 0260 4913380a 0000090f 000b0b03 0e491300  I.8..........I..
 0270 000a1600 030e3a0b 3b0b0000 0b130103  ......:.;.......
 0280 0e0b0b3a 0b3b0b01 1300000c 0d00030e  ...:.;..........
 0290 3a0b3b0b 4913380a 00000d01 01491301  :.;.I.8......I..
 02a0 1300000e 21004913 2f0b0000 0f260049  ....!.I./....&.I
 02b0 13000010 2e013f0c 030e3a0b 3b0b270c  ......?...:.;.'.
 02c0 4913200b 340c0113 00001105 00030e3a  I. .4..........:
 02d0 0b3b0b49 13000012 18000000 132e0103  .;.I............
 02e0 0e3a0b3b 0b270c20 0b011300 00142e01  .:.;.'. ........
 02f0 3f0c030e 3a0b3b0b 270c1101 12014006  ?...:.;.'.....@.
 0300 01130000 15050003 0e3a0b3b 0b491302  .........:.;.I..
 0310 0a000016 3400030e 3a0b3b0b 49130206  ....4...:.;.I...
 0320 0000171d 01311352 01550658 0b590b00  .....1.R.U.X.Y..
 0330 00180500 31130000 19050031 13020a00  ....1......1....
 0340 001a1d01 31135201 5506580b 590b0113  ....1.R.U.X.Y...
 0350 00001b05 00311302 0600001c 1d013113  .....1........1.
 0360 11011201 580b590b 00001d34 00030e3a  ....X.Y....4...:
 0370 0b3b0b49 133f0c3c 0c00001e 3400030e  .;.I.?.<....4...
 0380 3a0b3b0b 49133f0c 020a0000 00011101  :.;.I.?.........
 0390 250e130b 030e1101 12011006 00000224  %..............$
 03a0 000b0b3e 0b030e00 00032400 0b0b3e0b  ...>......$...>.
 03b0 03080000 040f000b 0b491300 00051600  .........I......
 03c0 030e3a0b 3b0b4913 0000062e 013f0c03  ..:.;.I......?..
 03d0 0e3a0b3b 0b270c49 13110112 01400601  .:.;.'.I.....@..
 03e0 13000007 0500030e 3a0b3b0b 4913020a  ........:.;.I...
 03f0 00000834 00030e3a 0b3b0b49 13020600  ...4...:.;.I....
 0400 00093400 030e3a0b 3b0b4913 3f0c3c0c  ..4...:.;.I.?.<.
 0410 00000001 1101250e 130b030e 11011201  ......%.........
 0420 10060000 0224000b 0b3e0b03 0e000003  .....$...>......
 0430 24000b0b 3e0b0308 00000416 00030e3a  $...>..........:
 0440 0b3b0b49 13000005 1301030e 0b0b3a0b  .;.I..........:.
 0450 3b0b0113 0000060d 00030e3a 0b3b0b49  ;..........:.;.I
 0460 13380a00 00072e01 3f0c030e 3a0b3b0b  .8......?...:.;.
 0470 270c4913 11011201 40060113 00000834  '.I.....@......4
 0480 00030e3a 0b3b0b49 13020a00 00093400  ...:.;.I......4.
 0490 030e3a0b 3b0b4913 02060000 0a2e013f  ..:.;.I........?
 04a0 0c030e3a 0b3b0b27 0c491311 01120140  ...:.;.'.I.....@
 04b0 0600000b 0500030e 3a0b3b0b 4913020a  ........:.;.I...
 04c0 000000                               ...             
Contents of section .debug_line:
 0000 07030000 02007400 00000101 fb0e0d00  ......t.........
 0010 01010101 00000001 0000012f 73706163  .........../spac
 0020 652f6265 74617361 6d2f6669 626f6e61  e/betasam/fibona
 0030 6363692f 2f737263 002f7370 6163652f  cci//src./space/
 0040 62657461 73616d2f 6669626f 6e616363  betasam/fibonacc
 0050 692f696e 636c7564 65000074 6573742e  i/include..test.
 0060 63000100 006c7479 7065732e 68000200  c....ltypes.h...
 0070 006c6361 6368652e 68000200 00000005  .lcache.h.......
 0080 02908504 08030d01 ba083f9a 78709408  ..........?.xp..
 0090 a840d26a 02d40117 081bf42c 0222142c  .@.j.......,.".,
 00a0 02230e78 302c08ee 78302c02 570e4203  .#.x0,..x0,.W.B.
 00b0 7a2e5e3a 08464203 7a2e5e3a 08464203  z.^:.FB.z.^:.FB.
 00c0 7a2e5e3a 08466c03 7a2e5e03 7a660842  z.^:.Fl.z.^.zf.B
 00d0 037a2e5e 037a3c03 0d660823 6b45956c  .z.^.z<..f.#kE.l
 00e0 a2030d08 66520371 082067f1 c9c908eb  ....fR.q. g.....
 00f0 03693c03 17740367 3c5ea203 0d083c84  .i<..t.g<^....<.
 0100 03693c03 172e0367 3c3e2c34 cc030d08  .i<....g<>,4....
 0110 3ca02f3b 2f037608 d6081308 fa03693c  <./;/.v.......i<
 0120 2c3e5634 cc030d08 2e03733c 030d2e03  ,>V4......s<....
 0130 734a030d 2e680367 3c03193c 03673c6c  sJ...h.g<..<.g<l
 0140 cc030d08 66a04b03 7608ba08 1308fa03  ....f.K.v.......
 0150 673c0319 3c03693c d434cc03 0d082e03  g<..<.i<.4......
 0160 732e030d 3c680367 3c03193c 03673c6c  s...<h.g<..<.g<l
 0170 da030d08 66a06703 68022e01 030ef267  ....f.g.h......g
 0180 f1bbc908 f9022213 734b3b67 03760222  ......".sK;g.v."
 0190 0167f1bb c908f903 693c0317 d603673c  .g......i<....g<
 01a0 5eda030d 082e0373 3c030d3c 03732e03  ^......s<..<.s..
 01b0 0d3c6803 67660319 3c03673c 6ccc030d  .<h.gf..<.g<l...
 01c0 0866a13b 67037602 2c0167f1 bbc908f9  .f.;g.v.,.g.....
 01d0 03693c03 17d60367 3c5ecc03 0d082e03  .i<....g<^......
 01e0 733c030d 3c03732e 030d3c68 03676696  s<..<.s...<h.gf.
 01f0 cc030d08 2e03733c 030d3c03 732e030d  ......s<..<.s...
 0200 3c68bb73 3d3b3d03 76022201 bb3b5908  <h.s=;=.v."..;Y.
 0210 e508b302 2213d59f 03680858 030e0890  ...."....h.X....
 0220 ad3b5908 e508a502 2213d508 21037608  .;Y....."...!.v.
 0230 74ad3b59 08e508a5 022213d5 08210376  t.;Y....."...!.v
 0240 087467f1 bbc908a5 02221373 4b3b6703  .tg......".sK;g.
 0250 76022201 ad3b5908 e508a502 2213d508  v."..;Y....."...
 0260 21037808 74037002 3a010322 02220103  !.x.t.p.:.."."..
 0270 094a0377 2e4a4402 23163d2d 3dbd3803  .J.w.JD.#.=-=.8.
 0280 0a58083f 90030b3c 03779e03 09740376  .X.?...<.w...t.v
 0290 d6030a2e 94000204 03037790 00020403  ..........w.....
 02a0 030f2e00 02040303 723c0002 0403030e  ........r<......
 02b0 d630574c 7367cb91 bb91bb03 0ae49503  .0WLsg..........
 02c0 53089e03 392e0356 9e032a08 2003573c  S...9..V..*. .W<
 02d0 03295803 6b66034b 7403352e 5903493c  .)X.kf.Kt.5.Y.I<
 02e0 08752dcc 3d2d3dbd 38033658 91590893  .u-.=-=.8.6X.Y..
 02f0 08a108e5 08440347 3c03392e 03678203  .....D.G<.9..g..
 0300 1c087492 08220202 00010140 01000002  ..t..".....@....
 0310 00760000 000101fb 0e0d0001 01010100  .v..............
 0320 00000100 00012f73 70616365 2f626574  ....../space/bet
 0330 6173616d 2f666962 6f6e6163 63692f2f  asam/fibonacci//
 0340 73726300 2f737061 63652f62 65746173  src./space/betas
 0350 616d2f66 69626f6e 61636369 2f696e63  am/fibonacci/inc
 0360 6c756465 00006c63 61636865 2e630001  lude..lcache.c..
 0370 00006c74 79706573 2e680002 00006c63  ..ltypes.h....lc
 0380 61636865 2e680002 00000000 05027094  ache.h........p.
 0390 0408030d 016d0379 4aeb3103 25580358  .....m.yJ.1.%X.X
 03a0 f24b3056 35760818 76085130 2d754e75  .K0V5v..v.Q0-uNu
 03b0 e539035c 4a031a74 83031608 3c255366  .9.\J..t....<%Sf
 03c0 4003154a 0370c800 02040106 74067b83  @..J.p......t.{.
 03d0 0370ac03 112e6775 0309f208 88037a4a  .p....gu......zJ
 03e0 502f031e 580361f2 00020401 064a0002  P/..X.a......J..
 03f0 0401062f 00020401 57347a34 9f670367  .../....W4z4.g.g
 0400 3c03192e 3f473f00 02040106 2e064c00  <...?G?.......L.
 0410 02040103 73666803 14081282 6b000204  ....sfh.....k...
 0420 01880002 04010376 2e000204 01030ad6  .......v........
 0430 4b083237 03764a03 15d60376 d63d0309  K.27.vJ....v.=..
 0440 c803773c 03093c03 769e0204 0001016b  ..w<..<.v......k
 0450 01000002 00dc0000 000101fb 0e0d0001  ................
 0460 01010100 00000100 00012f73 70616365  ........../space
 0470 2f626574 6173616d 2f666962 6f6e6163  /betasam/fibonac
 0480 63692f2f 73726300 2f757372 2f696e63  ci//src./usr/inc
 0490 6c756465 2f626974 73002f75 73722f6c  lude/bits./usr/l
 04a0 69622f69 3338362d 6c696e75 782d676e  ib/i386-linux-gn
 04b0 752f6763 632f6936 38362d6c 696e7578  u/gcc/i686-linux
 04c0 2d676e75 2f342e35 2e322f69 6e636c75  -gnu/4.5.2/inclu
 04d0 6465002f 7573722f 696e636c 75646500  de./usr/include.
 04e0 006c6d65 73736167 652e6300 01000073  .lmessage.c....s
 04f0 7464696f 322e6800 02000073 74646465  tdio2.h....stdde
 0500 662e6800 03000074 79706573 2e680002  f.h....types.h..
 0510 00007374 64696f2e 68000400 006c6962  ..stdio.h....lib
 0520 696f2e68 00040000 73746461 72672e68  io.h....stdarg.h
 0530 00030000 00000502 b0960408 03150176  ...............v
 0540 040203ca 00580401 03b77f82 040203c9  .....X..........
 0550 003c0401 03b67f08 2e040203 ca005803  .<............X.
 0560 1e580401 039c7f08 e4bd7604 0203c100  .X........v.....
 0570 58040103 40820402 03c0003c 040103bf  X...@......<....
 0580 7f082e04 0203c100 58031e58 040103a5  ........X..X....
 0590 7f08e4bd 76040203 38580401 03498204  ....v...8X...I..
 05a0 0203373c 04010348 082e0402 03385803  ..7<...H.....8X.
 05b0 1e580401 03ae7f08 e4020600 0101c300  .X..............
 05c0 00000200 84000000 0101fb0e 0d000101  ................
 05d0 01010000 00010000 012f7370 6163652f  ........./space/
 05e0 62657461 73616d2f 6669626f 6e616363  betasam/fibonacc
 05f0 692f2f73 7263002f 73706163 652f6265  i//src./space/be
 0600 74617361 6d2f6669 626f6e61 6363692f  tasam/fibonacci/
 0610 696e636c 75646500 2f757372 2f696e63  include./usr/inc
 0620 6c756465 00006c63 6f6e6669 672e6300  lude..lconfig.c.
 0630 0100006c 74797065 732e6800 02000067  ...ltypes.h....g
 0640 65746f70 742e6800 03000000 000502d0  etopt.h.........
 0650 97040803 14016d03 79584137 6b000204  ......m.yXA7k...
 0660 01068200 02040106 96088403 1382036d  ...............m
 0670 7489837d 593b08a0 603d543d 030d5887  t..}Y;..`=T=..X.
 0680 020a0001 01d50000 00020090 00000001  ................
 0690 01fb0e0d 00010101 01000000 01000001  ................
 06a0 2f737061 63652f62 65746173 616d2f66  /space/betasam/f
 06b0 69626f6e 61636369 2f2f7372 63002f75  ibonacci//src./u
 06c0 73722f69 6e636c75 64652f62 69747300  sr/include/bits.
 06d0 2f737061 63652f62 65746173 616d2f66  /space/betasam/f
 06e0 69626f6e 61636369 2f696e63 6c756465  ibonacci/include
 06f0 00006c74 696d652e 63000100 00747970  ..ltime.c....typ
 0700 65732e68 00020000 74696d65 2e680002  es.h....time.h..
 0710 00006c74 79706573 2e680003 00000000  ..ltypes.h......
 0720 05029098 0408030c 016c082a 322a325c  .........l.*2*2\
 0730 eacb0890 41505003 7a3c6c03 7a4a3403  ....APP.z<l.zJ4.
 0740 74ba2f03 0b2e0375 4a030b2e 0374d64f  t./....uJ....t.O
 0750 03774a03 104a0379 e4020f00 0101      .wJ..J.y......  
Contents of section .debug_frame:
 0000 10000000 ffffffff 0100017c 080c0404  ...........|....
 0010 88010000 28000000 00000000 90850408  ....(...........
 0020 e9020000 410e0842 85020d05 67830586  ....A..B....g...
 0030 04870303 bb02c341 c641c741 c50c0404  .......A.A.A....
 0040 28000000 00000000 80880408 77090000  (...........w...
 0050 410e0842 85020d05 56870386 04830574  A..B....V......t
 0060 0a0d04c7 c6c341c5 0e04420b 24000000  ......A...B.$...
 0070 00000000 00920408 57000000 410e0842  ........W...A..B
 0080 85020d05 43860347 83040247 c341c641  ....C..G...G.A.A
 0090 c50c0404 48000000 00000000 60920408  ....H.......`...
 00a0 ec010000 410e0842 85020d05 49830586  ....A..B....I...
 00b0 04870302 ce0ac341 c641c741 c50c0404  .......A.A.A....
 00c0 430b5b0a c341c641 c7410c04 04c5420b  C.[..A.A.A....B.
 00d0 02d10ac3 41c641c7 410c0404 c5440b00  ....A.A.A....D..
 00e0 1c000000 00000000 50940408 1d000000  ........P.......
 00f0 410e0842 85020d05 59c50c04 04000000  A..B....Y.......
 0100 10000000 ffffffff 0100017c 080c0404  ...........|....
 0110 88010000 2c000000 00010000 70940408  ....,.......p...
 0120 b1000000 410e0842 85020d05 4d860446  ....A..B....M..F
 0130 87034583 05520a0d 04c7c6c3 41c50e04  ..E..R......A...
 0140 420b0000 24000000 00010000 30950408  B...$.......0...
 0150 56000000 410e0847 85020d05 47830348  V...A..G....G..H
 0160 0ac341c5 0c040448 0b000000 2c000000  ..A....H....,...
 0170 00010000 90950408 8a000000 410e0842  ............A..B
 0180 85020d05 4f830547 86044a87 03520a0d  ....O..G..J..R..
 0190 04c7c6c3 41c50e04 420b0000 34000000  ....A...B...4...
 01a0 00010000 20960408 84000000 410e0842  .... .......A..B
 01b0 85020d05 4b830486 03024e0a c341c641  ....K.....N..A.A
 01c0 c50c0404 420b5d0a c341c641 0c0404c5  ....B.]..A.A....
 01d0 410b0000 10000000 ffffffff 0100017c  A..............|
 01e0 080c0404 88010000 20000000 d4010000  ........ .......
 01f0 b0960408 5a000000 410e0842 85020d05  ....Z...A..B....
 0200 54830302 41c341c5 0c040400 20000000  T...A.A..... ...
 0210 d4010000 10970408 5a000000 410e0842  ........Z...A..B
 0220 85020d05 54830302 41c341c5 0c040400  ....T...A.A.....
 0230 20000000 d4010000 70970408 5a000000   .......p...Z...
 0240 410e0842 85020d05 54830302 41c341c5  A..B....T...A.A.
 0250 0c040400 10000000 ffffffff 0100017c  ...............|
 0260 080c0404 88010000 28000000 54020000  ........(...T...
 0270 d0970408 b2000000 410e0842 85020d05  ........A..B....
 0280 48830586 04870302 a3c341c6 41c741c5  H.........A.A.A.
 0290 0c040400 10000000 ffffffff 0100017c  ...............|
 02a0 080c0404 88010000 1c000000 94020000  ................
 02b0 90980408 35000000 410e0842 85020d05  ....5...A..B....
 02c0 71c50c04 04000000 44000000 94020000  q.......D.......
 02d0 d0980408 82000000 410e0842 85020d05  ........A..B....
 02e0 4c830552 87038604 590a0d04 c7c6c341  L..R....Y......A
 02f0 c50e0445 0b530ac3 c6c70d04 410e04c5  ...E.S......A...
 0300 440b590a c3c6c70d 04410e04 c5410b00  D.Y......A...A..
Contents of section .debug_str:
 0000 73333276 5f666c61 67730073 33325f74  s32v_flags.s32_t
 0010 00753634 765f7469 6d655f33 00753332  .u64v_time_3.u32
 0020 765f6361 6368655f 737a0047 4e552043  v_cache_sz.GNU C
 0030 20342e35 2e320075 3332765f 6e007533   4.5.2.u32v_n.u3
 0040 32765f73 74616d70 00753634 765f7375  2v_stamp.u64v_su
 0050 6d007536 34665f66 69626f6e 61636369  m.u64f_fibonacci
 0060 5f736571 006c6361 6368655f 74006c6f  _seq.lcache_t.lo
 0070 6e67206c 6f6e6720 756e7369 676e6564  ng long unsigned
 0080 20696e74 00753634 765f7200 72657476   int.u64v_r.retv
 0090 616c0075 6e736967 6e656420 63686172  al.unsigned char
 00a0 00753634 705f656c 656d656e 74007368  .u64p_element.sh
 00b0 6f727420 756e7369 676e6564 20696e74  ort unsigned int
 00c0 00753876 5f66696c 6c656400 75363476  .u8v_filled.u64v
 00d0 5f74696d 655f3100 75363476 5f726574  _time_1.u64v_ret
 00e0 00733332 665f6669 626f6e61 6363695f  .s32f_fibonacci_
 00f0 61707000 73333276 5f636e74 006d6169  app.s32v_cnt.mai
 0100 6e007533 325f7400 75363466 5f666962  n.u32_t.u64f_fib
 0110 6f6e6163 63695f72 65637572 73697665  onacci_recursive
 0120 00753634 665f6669 626f6e61 6363695f  .u64f_fibonacci_
 0130 72656375 72736976 655f6361 63686564  recursive_cached
 0140 00753634 765f6375 72720075 3332705f  .u64v_curr.u32p_
 0150 68617368 0075385f 74007333 32765f6c  hash.u8_t.s32v_l
 0160 61737400 61726763 006c6f6e 67206c6f  ast.argc.long lo
 0170 6e672069 6e740073 686f7274 20696e74  ng int.short int
 0180 006c6361 6368655f 6669626f 6e616363  .lcache_fibonacc
 0190 69007536 34765f70 72657600 7536345f  i.u64v_prev.u64_
 01a0 74006172 6776005f 6c636163 68655f73  t.argv._lcache_s
 01b0 00753634 765f7469 6d655f32 00733332  .u64v_time_2.s32
 01c0 765f7265 74007533 32765f69 6478002f  v_ret.u32v_idx./
 01d0 73706163 652f6265 74617361 6d2f6669  space/betasam/fi
 01e0 626f6e61 6363692f 2f737263 2f746573  bonacci//src/tes
 01f0 742e6300 75363476 5f76616c 75650073  t.c.u64v_value.s
 0200 3332665f 6c636163 68655f69 6e697400  32f_lcache_init.
 0210 75333276 5f686173 68007533 32765f73  u32v_hash.u32v_s
 0220 7a007333 32665f6c 63616368 655f6164  z.s32f_lcache_ad
 0230 64007333 32665f6c 63616368 655f6672  d.s32f_lcache_fr
 0240 6565002f 73706163 652f6265 74617361  ee./space/betasa
 0250 6d2f6669 626f6e61 6363692f 2f737263  m/fibonacci//src
 0260 2f6c6361 6368652e 63007333 32765f6c  /lcache.c.s32v_l
 0270 63616368 655f636e 74007536 34665f6c  cache_cnt.u64f_l
 0280 63616368 655f6669 6e640075 3332765f  cache_find.u32v_
 0290 6c636163 68655f66 6c616773 006c6361  lcache_flags.lca
 02a0 6368655f 70747200 73333276 5f696478  che_ptr.s32v_idx
 02b0 005f5f6f 66665f74 005f494f 5f726561  .__off_t._IO_rea
 02c0 645f7074 72005f63 6861696e 0073697a  d_ptr._chain.siz
 02d0 655f7400 5f73686f 72746275 66005f49  e_t._shortbuf._I
 02e0 4f5f6275 665f6261 7365005f 66696c65  O_buf_base._file
 02f0 6e6f005f 494f5f72 6561645f 656e6400  no._IO_read_end.
 0300 5f5f6275 696c7469 6e5f7661 5f6c6973  __builtin_va_lis
 0310 74005f49 4f5f6275 665f656e 64005f63  t._IO_buf_end._c
 0320 75725f63 6f6c756d 6e005f5f 71756164  ur_column.__quad
 0330 5f74005f 6f6c645f 6f666673 65740061  _t._old_offset.a
 0340 72675f6c 69737400 5f5f7061 6433005f  rg_list.__pad3._
 0350 494f5f6d 61726b65 72007374 64696e00  IO_marker.stdin.
 0360 5f5f7374 7265616d 005f494f 5f777269  __stream._IO_wri
 0370 74655f70 7472005f 73627566 00757761  te_ptr._sbuf.uwa
 0380 726e696e 67005f49 4f5f7361 76655f62  rning._IO_save_b
 0390 61736500 5f6c6f63 6b005f66 6c616773  ase._lock._flags
 03a0 32005f6d 6f646500 7374646f 75740070  2._mode.stdout.p
 03b0 72656669 78006f75 745f7374 7265616d  refix.out_stream
 03c0 005f5f67 6e75635f 76615f6c 69737400  .__gnuc_va_list.
 03d0 5f494f5f 77726974 655f656e 64005f49  _IO_write_end._I
 03e0 4f5f6c6f 636b5f74 005f494f 5f46494c  O_lock_t._IO_FIL
 03f0 45007374 7265616d 5f6d6573 73616765  E.stream_message
 0400 005f706f 73005f6d 61726b65 72730075  ._pos._markers.u
 0410 6572726f 7200756d 65737361 6765005f  error.umessage._
 0420 76746162 6c655f6f 66667365 7400666f  vtable_offset.fo
 0430 726d6174 005f6e65 7874005f 5f6f6666  rmat._next.__off
 0440 36345f74 005f494f 5f726561 645f6261  64_t._IO_read_ba
 0450 7365005f 494f5f73 6176655f 656e6400  se._IO_save_end.
 0460 5f5f6170 00766670 72696e74 66005f5f  __ap.vfprintf.__
 0470 666d7400 5f5f7061 6431005f 5f706164  fmt.__pad1.__pad
 0480 32002f73 70616365 2f626574 6173616d  2./space/betasam
 0490 2f666962 6f6e6163 63692f2f 7372632f  /fibonacci//src/
 04a0 6c6d6573 73616765 2e63005f 5f706164  lmessage.c.__pad
 04b0 34005f5f 70616435 005f756e 75736564  4.__pad5._unused
 04c0 32007374 64657272 005f494f 5f626163  2.stderr._IO_bac
 04d0 6b75705f 62617365 005f494f 5f777269  kup_base._IO_wri
 04e0 74655f62 61736500 2f737061 63652f62  te_base./space/b
 04f0 65746173 616d2f66 69626f6e 61636369  etasam/fibonacci
 0500 2f2f7372 632f6c63 6f6e6669 672e6300  //src/lconfig.c.
 0510 75333276 5f6e756d 00753332 705f6e75  u32v_num.u32p_nu
 0520 6d007333 32665f70 61727365 5f617267  m.s32f_parse_arg
 0530 73007333 32765f6f 7074006f 70746172  s.s32v_opt.optar
 0540 67007476 5f735f6e 6f770075 3634665f  g.tv_s_now.u64f_
 0550 67657464 656c7461 00753634 765f746f  getdelta.u64v_to
 0560 00753634 765f7469 6d650075 3634765f  .u64v_time.u64v_
 0570 66726f6d 0074696d 6576616c 00753634  from.timeval.u64
 0580 665f6765 7474696d 655f6d73 65630074  f_gettime_msec.t
 0590 765f7573 6563005f 5f74696d 655f7400  v_usec.__time_t.
 05a0 74765f73 6563005f 5f737573 65636f6e  tv_sec.__susecon
 05b0 64735f74 002f7370 6163652f 62657461  ds_t./space/beta
 05c0 73616d2f 6669626f 6e616363 692f2f73  sam/fibonacci//s
 05d0 72632f6c 74696d65 2e630073 3332765f  rc/ltime.c.s32v_
 05e0 73746174 757300                      status.         
Contents of section .debug_loc:
 0000 00000000 01000000 02007404 01000000  ..........t.....
 0010 03000000 02007408 03000000 e8020000  ......t.........
 0020 02007508 e8020000 e9020000 02007404  ..u...........t.
 0030 00000000 00000000 20000000 d5020000  ........ .......
 0040 0a009e08 00000000 00000000 00000000  ................
 0050 00000000 41000000 44000000 01005044  ....A...D.....PD
 0060 000000cb 02000003 0091f47e 00000000  ...........~....
 0070 00000000 4e000000 b4020000 0a009e08  ....N...........
 0080 00000000 00000000 00000000 00000000  ................
 0090 5d000000 a7020000 030091bc 7f000000  ]...............
 00a0 00000000 00740000 00850200 000a009e  .....t..........
 00b0 08000000 00000000 00000000 00000000  ................
 00c0 00830000 00850200 00030091 b87f0000  ................
 00d0 00000000 00009a00 00006302 00000a00  ..........c.....
 00e0 9e080000 00000000 00000000 00000000  ................
 00f0 0000a900 00006302 00000300 91b47f00  ......c.........
 0100 00000000 000000c0 00000041 0200000a  ...........A....
 0110 009e0800 00000000 00000000 00000000  ................
 0120 000000cf 00000041 02000003 0091a87f  .......A........
 0130 00000000 00000000 cf000000 e8010000  ................
 0140 0a009e08 00000000 00000000 e8010000  ................
 0150 ed010000 010052fe 01000041 0200000a  ......R....A....
 0160 009e0800 00000000 00000000 00000000  ................
 0170 000000f0 000000e8 01000003 0091b07f  ................
 0180 fe010000 29020000 030091b0 7f000000  ....)...........
 0190 00000000 00f00000 00bc0100 000a009e  ................
 01a0 08000000 00000000 00bc0100 00c10100  ................
 01b0 00010052 fe010000 29020000 0a009e08  ...R....).......
 01c0 00000000 00000000 00000000 00000000  ................
 01d0 11010000 bc010000 0200914c fe010000  ...........L....
 01e0 13020000 0200914c 00000000 00000000  .......L........
 01f0 11010000 8e010000 0a009e08 00000000  ................
 0200 00000000 8e010000 93010000 010050fe  ..............P.
 0210 01000013 0200000a 009e0800 00000000  ................
 0220 00000000 00000000 00000038 0100008e  ...........8....
 0230 01000002 00915cfe 01000008 02000001  ......\.........
 0240 00530000 00000000 00003801 00006a01  .S........8...j.
 0250 00000a00 9e080000 00000000 00006a01  ..............j.
 0260 00006e01 00000100 50fe0100 00080200  ..n.....P.......
 0270 000a009e 08000000 00000000 00000000  ................
 0280 00000000 00f00200 00f10200 00020074  ...............t
 0290 04f10200 00f30200 00020074 08f30200  ...........t....
 02a0 003d0300 00020075 083d0300 003e0300  .=.....u.=...>..
 02b0 00020074 083e0300 00400300 00020074  ...t.>...@.....t
 02c0 04400300 00670c00 00020075 08000000  .@...g.....u....
 02d0 00000000 00f00200 002a0300 000a009e  .........*......
 02e0 08000000 00000000 002a0300 00350300  .........*...5..
 02f0 00060053 93045693 043f0300 008b0300  ...S..V..?......
 0300 000a009e 08000000 00000000 00090400  ................
 0310 00260400 00060053 93045693 04db0500  .&.....S..V.....
 0320 00e50500 000a009e 08000000 00000000  ................
 0330 00e50500 00ea0500 00060053 93045693  ...........S..V.
 0340 04000000 00000000 009d0300 00cb0300  ................
 0350 00010057 26040000 f8040000 010057ea  ...W&.........W.
 0360 05000098 06000001 0057ba08 00006a09  .........W....j.
 0370 00000100 57140c00 00310c00 00010057  ....W....1.....W
 0380 00000000 00000000 9d030000 c0030000  ................
 0390 0a009e08 00000000 00000000 c0030000  ................
 03a0 c8030000 06005393 04569304 c8030000  ......S..V......
 03b0 04040000 06005393 04569304 26040000  ......S..V..&...
 03c0 5a040000 0a009e08 00000000 00000000  Z...............
 03d0 db040000 db050000 06005393 04569304  ..........S..V..
 03e0 98060000 ba080000 06005393 04569304  ..........S..V..
 03f0 6a090000 140c0000 06005393 04569304  j.........S..V..
 0400 140c0000 310c0000 0a009e08 00000000  ....1...........
 0410 00000000 310c0000 670c0000 06005393  ....1...g.....S.
 0420 04569304 00000000 00000000 a3040000  .V..............
 0430 c8040000 010052c8 040000f8 04000002  ......R.........
 0440 009158ea 050000f6 05000001 0052f605  ..X..........R..
 0450 00009806 00000200 91585c09 00006309  .........X\...c.
 0460 00000100 52630900 006a0900 00020091  ....Rc...j......
 0470 58000000 00000000 00a30400 00cd0400  X...............
 0480 000a009e 08000000 00000000 00cd0400  ................
 0490 00d70400 00060052 93045193 04d70400  .......R..Q.....
 04a0 00f20400 00060052 93045193 04ea0500  .......R..Q.....
 04b0 003a0600 000a009e 08000000 00000000  .:..............
 04c0 00760600 008c0600 00060052 93045193  .v.........R..Q.
 04d0 045c0900 00650900 000a009e 08000000  .\...e..........
 04e0 00000000 00650900 006a0900 00060052  .....e...j.....R
 04f0 93045193 04000000 00000000 005d0400  ..Q..........]..
 0500 00880400 00010051 ba080000 eb080000  .......Q........
 0510 01005100 00000000 0000005d 04000094  ..Q........]....
 0520 0400000a 009e0800 00000000 00000094  ................
 0530 0400009a 04000006 00539304 5693049a  .........S..V...
 0540 040000d9 04000006 00539304 569304ea  .........S..V...
 0550 05000098 06000006 00539304 569304ba  .........S..V...
 0560 0800000f 0900000a 009e0800 00000000  ................
 0570 0000004a 0900006a 09000006 00539304  ...J...j.....S..
 0580 56930400 00000000 000000d0 03000026  V..............&
 0590 04000001 0057f804 0000fa04 00000100  .....W..........
 05a0 52fa0400 00db0500 00010057 98060000  R..........W....
 05b0 ba080000 0100576a 09000014 0c000001  ......Wj........
 05c0 0057310c 0000670c 00000100 57000000  .W1...g.....W...
 05d0 00000000 00d00300 00f80300 000a009e  ................
 05e0 08000000 00000000 00f80300 00020400  ................
 05f0 00060052 93045193 04020400 00070400  ...R..Q.........
 0600 00060052 93045193 04f80400 002a0500  ...R..Q......*..
 0610 000a009e 08000000 00000000 00b20500  ................
 0620 00cf0500 00060052 93045193 04310c00  .......R..Q..1..
 0630 004e0c00 000a009e 08000000 00000000  .N..............
 0640 00000000 00000000 00770500 009d0500  .........w......
 0650 00010052 9d050000 db050000 02009150  ...R...........P
 0660 98060000 9e060000 0100529e 060000a5  ..........R.....
 0670 07000002 0091506a 09000073 09000001  ......Pj...s....
 0680 00527309 00007a09 00000200 9150220a  .Rs...z......P".
 0690 00006c0b 00000200 91505d0c 0000670c  ..l......P]...g.
 06a0 00000200 91500000 00000000 00007705  .....P........w.
 06b0 0000a205 00000a00 9e080000 00000000  ................
 06c0 0000a205 0000ac05 00000600 52930451  ............R..Q
 06d0 9304ac05 0000af05 00000600 52930451  ............R..Q
 06e0 93049806 0000e206 00000a00 9e080000  ................
 06f0 00000000 00007c07 00009907 00000600  ......|.........
 0700 52930451 93046a09 00007509 00000a00  R..Q..j...u.....
 0710 9e080000 00000000 00007509 00007a09  ..........u...z.
 0720 00000600 52930451 93040000 00000000  ....R..Q........
 0730 00003f07 00006407 00000100 52640700  ..?...d.....Rd..
 0740 00a50700 00020091 40ca0a00 00d00a00  ........@.......
 0750 00010052 d00a0000 6c0b0000 02009140  ...R....l......@
 0760 5d0c0000 600c0000 01005260 0c000067  ]...`.....R`...g
 0770 0c000002 00914000 00000000 0000003f  ......@........?
 0780 07000069 0700000a 009e0800 00000000  ...i............
 0790 00000069 07000073 07000006 00529304  ...i...s.....R..
 07a0 51930473 07000079 07000006 00529304  Q..s...y.....R..
 07b0 519304ca 0a000014 0b00000a 009e0800  Q...............
 07c0 00000000 0000004a 0b000060 0b000006  .......J...`....
 07d0 00529304 5193045d 0c000062 0c00000a  .R..Q..]...b....
 07e0 009e0800 00000000 00000062 0c000067  ...........b...g
 07f0 0c000006 00529304 51930400 00000000  .....R..Q.......
 0800 000000fc 06000021 07000001 0051220a  .......!.....Q".
 0810 00004c0a 00000100 51000000 00000000  ..L.....Q.......
 0820 00fc0600 00280700 000a009e 08000000  .....(..........
 0830 00000000 00280700 00330700 00020091  .....(...3......
 0840 48330700 00a50700 00020091 48220a00  H3..........H"..
 0850 00700a00 000a009e 08000000 00000000  .p..............
 0860 00b20a00 006c0b00 00020091 485d0c00  .....l......H]..
 0870 00670c00 00020091 48000000 00000000  .g......H.......
 0880 00330500 005f0500 00010052 5f050000  .3..._.....R_...
 0890 db050000 02009150 98060000 ba080000  .......P........
 08a0 02009150 6a090000 140c0000 02009150  ...Pj..........P
 08b0 4e0c0000 670c0000 02009150 00000000  N...g......P....
 08c0 00000000 33050000 63050000 0a009e08  ....3...c.......
 08d0 00000000 00000000 63050000 6e050000  ........c...n...
 08e0 02009158 6e050000 db050000 02009158  ...Xn..........X
 08f0 98060000 a5070000 02009158 a5070000  ...........X....
 0900 f2070000 0a009e08 00000000 00000000  ................
 0910 9e080000 ba080000 02009158 6a090000  ...........Xj...
 0920 7a090000 02009158 220a0000 6c0b0000  z......X"...l...
 0930 02009158 5d0c0000 670c0000 02009158  ...X]...g......X
 0940 00000000 00000000 48080000 70080000  ........H...p...
 0950 0100516c 0b000096 0b000001 00514e0c  ..Ql.........QN.
 0960 00005d0c 00000100 51000000 00000000  ..].....Q.......
 0970 00480800 00770800 000a009e 08000000  .H...w..........
 0980 00000000 00770800 00ba0800 00030091  .....w..........
 0990 b87f6c0b 0000ba0b 00000a00 9e080000  ..l.............
 09a0 00000000 0000fc0b 0000140c 00000300  ................
 09b0 91b87f4e 0c000058 0c00000a 009e0800  ...N...X........
 09c0 00000000 00000058 0c00005d 0c000003  .......X...]....
 09d0 0091b87f 00000000 00000000 0c080000  ................
 09e0 30080000 0100517a 090000a4 09000001  0.....Qz........
 09f0 00510000 00000000 00000c08 00003708  .Q............7.
 0a00 00000a00 9e080000 00000000 00003708  ..............7.
 0a10 00004208 00000200 91584208 0000ba08  ..B......XB.....
 0a20 00000200 91587a09 0000c809 00000a00  .....Xz.........
 0a30 9e080000 00000000 00000a0a 0000220a  ..............".
 0a40 00000200 91586c0b 0000140c 00000200  .....Xl.........
 0a50 91584e0c 00005d0c 00000200 91580000  .XN...]......X..
 0a60 00000000 0000700c 0000710c 00000200  ......p...q.....
 0a70 7404710c 0000730c 00000200 7408730c  t.q...s.....t.s.
 0a80 0000c60c 00000200 7508c60c 0000c70c  ........u.......
 0a90 00000200 74040000 00000000 0000700c  ....t.........p.
 0aa0 00009b0c 00000a00 9e080000 00000000  ................
 0ab0 00009b0c 0000a50c 00000600 52930451  ............R..Q
 0ac0 9304b40c 0000bc0c 00000600 52930451  ............R..Q
 0ad0 93040000 00000000 0000700c 00009b0c  ..........p.....
 0ae0 00000a00 9e080100 00000000 00009b0c  ................
 0af0 0000aa0c 00000600 53930456 9304b40c  ........S..V....
 0b00 0000bc0c 00000600 53930456 93040000  ........S..V....
 0b10 00000000 0000700c 00009b0c 00000a00  ......p.........
 0b20 9e080000 00000000 00009b0c 0000aa0c  ................
 0b30 00000600 53930456 9304b40c 0000bc0c  ....S..V........
 0b40 00000600 53930456 9304bc0c 0000c40c  ....S..V........
 0b50 00000600 53930456 93040000 00000000  ....S..V........
 0b60 00007d0c 00009b0c 00000200 91009b0c  ..}.............
 0b70 0000b70c 00000100 50b70c00 00bc0c00  ........P.......
 0b80 00010050 00000000 00000000 d00c0000  ...P............
 0b90 d10c0000 02007404 d10c0000 d30c0000  ......t.........
 0ba0 02007408 d30c0000 ad0d0000 02007508  ..t...........u.
 0bb0 ad0d0000 b00d0000 02007404 b00d0000  ..........t.....
 0bc0 ce0d0000 02007508 ce0d0000 d00d0000  ......u.........
 0bd0 02007404 d00d0000 a40e0000 02007508  ..t...........u.
 0be0 a40e0000 a80e0000 02007404 a80e0000  ..........t.....
 0bf0 bc0e0000 02007508 00000000 00000000  ......u.........
 0c00 d00c0000 a60d0000 0200309f a60d0000  ..........0.....
 0c10 ae0d0000 010050ae 0d0000c2 0d000002  ......P.........
 0c20 00309fc2 0d0000ca 0d000003 0009ff9f  .0..............
 0c30 ca0d0000 cf0d0000 010050cf 0d0000a0  ..........P.....
 0c40 0e000002 00309fa0 0e0000a5 0e000002  .....0..........
 0c50 009140a5 0e0000bc 0e000002 00309f00  ..@..........0..
 0c60 00000000 000000ed 0c0000fb 0c000002  ................
 0c70 00309ffb 0c0000fd 0c000001 0050fd0c  .0...........P..
 0c80 00005f0d 00000100 53ae0d00 00cb0d00  .._.....S.......
 0c90 00010053 cf0d0000 fb0d0000 01005300  ...S..........S.
 0ca0 00000000 000000ed 0c000080 0d00000a  ................
 0cb0 009e0800 00000000 00000080 0d0000a6  ................
 0cc0 0d000006 00539304 569304ae 0d000024  .....S..V......$
 0cd0 0e00000a 009e0800 00000000 00000024  ...............$
 0ce0 0e00006d 0e000006 00539304 569304a5  ...m.....S..V...
 0cf0 0e0000b7 0e00000a 009e0800 00000000  ................
 0d00 000000b7 0e0000bc 0e000006 00539304  .............S..
 0d10 56930400 00000000 000000ed 0c000024  V..............$
 0d20 0d000002 00309f24 0d000047 0d000002  .....0.$...G....
 0d30 00319f47 0d0000a6 0d000001 0057ae0d  .1.G.........W..
 0d40 0000cf0d 00000200 309fcf0d 0000a30e  ........0.......
 0d50 00000100 57a50e00 00bc0e00 00010057  ....W..........W
 0d60 00000000 00000000 ed0c0000 3a0d0000  ............:...
 0d70 0a009e08 00000000 00000000 3a0d0000  ............:...
 0d80 470d0000 02009140 470d0000 a60d0000  G......@G.......
 0d90 02009140 ae0d0000 cf0d0000 0a009e08  ...@............
 0da0 00000000 00000000 cf0d0000 bc0e0000  ................
 0db0 02009140 00000000 00000000 ed0c0000  ...@............
 0dc0 320e0000 0a009e08 00000000 00000000  2...............
 0dd0 320e0000 4b0e0000 06005093 04529304  2...K.....P..R..
 0de0 4c0e0000 660e0000 0a0091bc 7f930491  L...f...........
 0df0 b87f9304 a50e0000 bc0e0000 0a009e08  ................
 0e00 00000000 00000000 00000000 00000000  ................
 0e10 ed0c0000 870e0000 0a009e08 00000000  ................
 0e20 00000000 870e0000 9a0e0000 06005093  ..............P.
 0e30 04529304 a50e0000 bc0e0000 0a009e08  .R..............
 0e40 00000000 00000000 00000000 00000000  ................
 0e50 e10d0000 2d0e0000 0200915c 00000000  ....-......\....
 0e60 00000000 e10d0000 020e0000 0a009e08  ................
 0e70 00000000 00000000 020e0000 0d0e0000  ................
 0e80 06005093 04529304 1c0e0000 2d0e0000  ..P..R......-...
 0e90 06005093 04529304 00000000 00000000  ..P..R..........
 0ea0 e10d0000 020e0000 0a009e08 01000000  ................
 0eb0 00000000 020e0000 120e0000 06005393  ..............S.
 0ec0 04569304 1c0e0000 2d0e0000 06005393  .V......-.....S.
 0ed0 04569304 00000000 00000000 e10d0000  .V..............
 0ee0 020e0000 0a009e08 00000000 00000000  ................
 0ef0 020e0000 120e0000 06005393 04569304  ..........S..V..
 0f00 1c0e0000 2d0e0000 06005393 04569304  ....-.....S..V..
 0f10 00000000 00000000 e10d0000 020e0000  ................
 0f20 0200915c 020e0000 1f0e0000 0100511f  ...\..........Q.
 0f30 0e00002d 0e000001 00510000 00000000  ...-.....Q......
 0f40 0000c00e 0000c10e 00000200 7404c10e  ............t...
 0f50 0000c30e 00000200 7408c30e 0000dc0e  ........t.......
 0f60 00000200 7508dc0e 0000dd0e 00000200  ....u...........
 0f70 74040000 00000000 0000c00e 0000db0e  t...............
 0f80 00000200 309fdb0e 0000dd0e 00000100  ....0...........
 0f90 50000000 00000000 00000000 00010000  P...............
 0fa0 00020074 04010000 00030000 00020074  ...t...........t
 0fb0 08030000 002d0000 00020075 082d0000  .....-.....u.-..
 0fc0 002e0000 00020074 082e0000 00300000  .......t.....0..
 0fd0 00020074 04300000 00b10000 00020075  ...t.0.........u
 0fe0 08000000 00000000 00000000 00200000  ............. ..
 0ff0 00020030 9f200000 00280000 00010053  ...0. ...(.....S
 1000 28000000 2f000000 0100502f 000000a4  (.../.....P/....
 1010 00000002 00309fa4 000000b1 00000003  .....0..........
 1020 0009ff9f 00000000 00000000 00000000  ................
 1030 20000000 0200309f 2f000000 3d000000   .....0./...=...
 1040 0200309f 3d000000 55000000 08009100  ..0.=...U.......
 1050 06332423 019f5500 0000b100 00000800  .3$#..U.........
 1060 91000632 2423019f 00000000 00000000  ...2$#..........
 1070 00000000 20000000 0200309f 2f000000  .... .....0./...
 1080 80000000 0200309f 99000000 a4000000  ......0.........
 1090 010051a4 000000b1 00000002 00309f00  ..Q..........0..
 10a0 00000000 000000c0 000000c1 00000002  ................
 10b0 007404c1 000000c8 00000002 007408c8  .t...........t..
 10c0 000000d8 00000002 007508d8 000000e0  .........u......
 10d0 00000002 007404e0 00000016 01000002  .....t..........
 10e0 00750800 00000000 000000c0 000000d3  .u..............
 10f0 00000002 00309fd3 000000d9 00000001  .....0..........
 1100 0050d900 00001601 00000200 309f0000  .P..........0...
 1110 00000000 00002001 00002101 00000200  ...... ...!.....
 1120 74042101 00002301 00000200 74082301  t.!...#.....t.#.
 1130 00005501 00000200 75085501 00005601  ..U.....u.U...V.
 1140 00000200 74085601 00005801 00000200  ....t.V...X.....
 1150 74045801 0000aa01 00000200 75080000  t.X.........u...
 1160 00000000 00002001 00004801 00000200  ...... ...H.....
 1170 309f4801 00005701 00000100 50570100  0.H...W.....PW..
 1180 00aa0100 00020030 9f000000 00000000  .......0........
 1190 00b00100 00b10100 00020074 04b10100  ...........t....
 11a0 00b30100 00020074 08b30100 000e0200  .......t........
 11b0 00020075 080e0200 00100200 00020074  ...u...........t
 11c0 04100200 002f0200 00020075 082f0200  ...../.....u./..
 11d0 00300200 00020074 04300200 00340200  .0.....t.0...4..
 11e0 00020075 08000000 00000000 00b00100  ...u............
 11f0 00020200 000a009e 08000000 00000000  ................
 1200 00020200 000f0200 00020091 680f0200  ............h...
 1210 00200200 000a009e 08000000 00000000  . ..............
 1220 00200200 00300200 00020091 68300200  . ...0......h0..
 1230 00340200 000a009e 08000000 00000000  .4..............
 1240 00000000 00000000 00b00100 00e50100  ................
 1250 00020030 9fe50100 00ed0100 00010050  ...0...........P
 1260 f0010000 f4010000 0100500f 02000013  ..........P.....
 1270 02000001 00503002 00003402 00000200  .....P0...4.....
 1280 309f0000 00000000 00000000 00000100  0...............
 1290 00000200 74040100 00000300 00000200  ....t...........
 12a0 74080300 00005900 00000200 75085900  t.....Y.....u.Y.
 12b0 00005a00 00000200 74040000 00000000  ..Z.....t.......
 12c0 00001700 00005800 00000100 53580000  ......X.....SX..
 12d0 005a0000 00030091 049f0000 00000000  .Z..............
 12e0 00001700 00003300 00000500 03a4b004  ......3.........
 12f0 08000000 00000000 00340000 00580000  .........4...X..
 1300 00010053 58000000 5a000000 03009104  ...SX...Z.......
 1310 9f000000 00000000 00340000 00530000  .........4...S..
 1320 00050003 a4b00408 00000000 00000000  ................
 1330 60000000 61000000 02007404 61000000  `...a.....t.a...
 1340 63000000 02007408 63000000 b9000000  c.....t.c.......
 1350 02007508 b9000000 ba000000 02007404  ..u...........t.
 1360 00000000 00000000 77000000 b8000000  ........w.......
 1370 010053b8 000000ba 00000003 0091049f  ..S.............
 1380 00000000 00000000 77000000 93000000  ........w.......
 1390 050003a4 b0040800 00000000 00000094  ................
 13a0 000000b8 00000001 0053b800 0000ba00  .........S......
 13b0 00000300 91049f00 00000000 00000094  ................
 13c0 000000b3 00000005 0003a4b0 04080000  ................
 13d0 00000000 0000c000 0000c100 00000200  ................
 13e0 7404c100 0000c300 00000200 7408c300  t...........t...
 13f0 00001901 00000200 75081901 00001a01  ........u.......
 1400 00000200 74040000 00000000 0000d700  ....t...........
 1410 00001801 00000100 53180100 001a0100  ........S.......
 1420 00030091 049f0000 00000000 0000d700  ................
 1430 0000f300 00000500 03a4b004 08000000  ................
 1440 00000000 00f40000 00180100 00010053  ...............S
 1450 18010000 1a010000 03009104 9f000000  ................
 1460 00000000 00f40000 00130100 00050003  ................
 1470 a4b00408 00000000 00000000 00000000  ................
 1480 01000000 02007404 01000000 03000000  ......t.........
 1490 02007408 03000000 b1000000 02007508  ..t...........u.
 14a0 b1000000 b2000000 02007404 00000000  ..........t.....
 14b0 00000000 00000000 28000000 0200309f  ........(.....0.
 14c0 28000000 4c000000 0100534e 0000005b  (...L.....SN...[
 14d0 00000001 00535b00 00007000 00000100  .....S[...p.....
 14e0 538b0000 00930000 00010053 93000000  S..........S....
 14f0 9b000000 0100539b 000000a8 00000001  ......S.........
 1500 0053a800 0000ae00 00000100 53ae0000  .S..........S...
 1510 00b20000 00010050 00000000 00000000  .......P........
 1520 00000000 28000000 0200309f 28000000  ....(.....0.(...
 1530 8b000000 0200915c 8b000000 8d000000  .......\........
 1540 0100508d 000000a8 00000002 00915c00  ..P...........\.
 1550 00000000 00000000 00000028 00000002  ...........(....
 1560 00309f3c 00000044 00000001 00504400  .0.<...D.....PD.
 1570 00006d00 00000400 70e3009f 8d000000  ..m.....p.......
 1580 9d000000 040070e3 009f9d00 0000a600  ......p.........
 1590 00000100 50000000 00000000 00000000  ....P...........
 15a0 00010000 00020074 04010000 00030000  .......t........
 15b0 00020074 08030000 00340000 00020075  ...t.....4.....u
 15c0 08340000 00350000 00020074 04000000  .4...5.....t....
 15d0 00000000 00000000 00330000 000a009e  .........3......
 15e0 08000000 00000000 00330000 00350000  .........3...5..
 15f0 00060050 93045293 04000000 00000000  ...P..R.........
 1600 00000000 001d0000 00020030 9f1d0000  ...........0....
 1610 001f0000 00010050 1f000000 35000000  .......P....5...
 1620 01005100 00000000 00000040 00000041  ..Q........@...A
 1630 00000002 00740441 00000043 00000002  .....t.A...C....
 1640 00740843 0000007a 00000002 0075087a  .t.C...z.....u.z
 1650 0000007b 00000002 0074087b 00000080  ...{.....t.{....
 1660 00000002 00740480 00000093 00000002  .....t..........
 1670 00750893 00000094 00000002 00740894  .u...........t..
 1680 00000098 00000002 00740498 000000b1  .........t......
 1690 00000002 007508b1 000000b2 00000002  .....u..........
 16a0 007408b2 000000b3 00000002 007404b3  .t...........t..
 16b0 000000c2 00000002 00750800 00000000  .........u......
 16c0 00000040 00000074 0000000a 009e0800  ...@...t........
 16d0 00000000 00000074 0000007c 00000006  .......t...|....
 16e0 00509304 5293047c 0000008a 0000000a  .P..R..|........
 16f0 009e0800 00000000 0000008a 00000095  ................
 1700 00000006 00509304 52930495 000000a4  .....P..R.......
 1710 0000000a 009e0800 00000000 000000a4  ................
 1720 000000b3 00000006 00509304 529304b3  .........P..R...
 1730 000000c2 0000000a 009e0800 00000000  ................
 1740 00000000 00000000 000000             ...........     
Contents of section .debug_pubtypes:
 0000 50000000 02000000 00006107 00002100  P.........a...!.
 0010 00007333 325f7400 33000000 7533325f  ..s32_t.3...u32_
 0020 74004c00 00007538 5f740073 00000075  t.L...u8_t.s...u
 0030 36345f74 00850000 005f6c63 61636865  64_t....._lcache
 0040 5f7300e4 0000006c 63616368 655f7400  _s.....lcache_t.
 0050 00000000 50000000 02006107 00006602  ....P.....a...f.
 0060 00006e00 00007333 325f7400 79000000  ..n...s32_t.y...
 0070 7533325f 74008400 00007538 5f74008f  u32_t.....u8_t..
 0080 00000075 36345f74 009a0000 005f6c63  ...u64_t....._lc
 0090 61636865 5f7300f9 0000006c 63616368  ache_s.....lcach
 00a0 655f7400 00000000 93000000 0200c709  e_t.............
 00b0 00002e06 00002100 00007369 7a655f74  ......!...size_t
 00c0 006b0000 005f5f71 7561645f 74007600  .k...__quad_t.v.
 00d0 00005f5f 6f66665f 74008800 00005f5f  ..__off_t.....__
 00e0 6f666636 345f7400 a2000000 46494c45  off64_t.....FILE
 00f0 006e0200 005f5f67 6e75635f 76615f6c  .n...__gnuc_va_l
 0100 69737400 83020000 5f494f5f 6c6f636b  ist....._IO_lock
 0110 5f74008a 0200005f 494f5f6d 61726b65  _t....._IO_marke
 0120 7200ad00 00005f49 4f5f4649 4c4500fe  r....._IO_FILE..
 0130 02000076 615f6c69 73740000 00000022  ...va_list....."
 0140 00000002 00f50f00 00260100 00740000  .........&...t..
 0150 00733332 5f74007f 00000075 33325f74  .s32_t.....u32_t
 0160 00000000 004d0000 0002001b 11000053  .....M.........S
 0170 01000067 0000005f 5f74696d 655f7400  ...g...__time_t.
 0180 72000000 5f5f7375 7365636f 6e64735f  r...__suseconds_
 0190 74008400 00007469 6d657661 6c00ad00  t.....timeval...
 01a0 00007333 325f7400 b8000000 7536345f  ..s32_t.....u64_
 01b0 74000000 0000                        t.....          
Contents of section .debug_ranges:
 0000 f0000000 fa000000 fe010000 29020000  ............)...
 0010 11010000 cd010000 fd000000 0b010000  ................
 0020 00000000 00000000 f0000000 fa000000  ................
 0030 fe010000 29020000 11010000 cd010000  ....)...........
 0040 fd000000 0b010000 00000000 00000000  ................
 0050 14010000 22010000 fe010000 13020000  ...."...........
 0060 a4010000 a7010000 9b010000 9e010000  ................
 0070 2c010000 99010000 25010000 29010000  ,.......%...)...
 0080 00000000 00000000 14010000 22010000  ............"...
 0090 fe010000 13020000 a4010000 a7010000  ................
 00a0 9b010000 9e010000 2c010000 99010000  ........,.......
 00b0 25010000 29010000 00000000 00000000  %...)...........
 00c0 38010000 73010000 fe010000 08020000  8...s...........
 00d0 7e010000 81010000 75010000 78010000  ~.......u...x...
 00e0 00000000 00000000 38010000 73010000  ........8...s...
 00f0 fe010000 08020000 7e010000 81010000  ........~.......
 0100 75010000 78010000 00000000 00000000  u...x...........
 0110 93030000 9a030000 140c0000 310c0000  ............1...
 0120 c0080000 70090000 f0050000 98060000  ....p...........
 0130 28040000 f8040000 9d030000 c8030000  (...............
 0140 00000000 00000000 93030000 9a030000  ................
 0150 140c0000 310c0000 c0080000 70090000  ....1.......p...
 0160 f0050000 98060000 28040000 f8040000  ........(.......
 0170 9d030000 c8030000 00000000 00000000  ................
 0180 9d040000 a0040000 60090000 70090000  ........`...p...
 0190 f0050000 98060000 a3040000 d7040000  ................
 01a0 00000000 00000000 9d040000 a0040000  ................
 01b0 60090000 70090000 f0050000 98060000  `...p...........
 01c0 a3040000 d7040000 00000000 00000000  ................
 01d0 5d040000 9a040000 c0080000 60090000  ]...........`...
 01e0 00000000 00000000 5d040000 9a040000  ........].......
 01f0 c0080000 60090000 00000000 00000000  ....`...........
 0200 cb030000 cd030000 310c0000 670c0000  ........1...g...
 0210 70090000 140c0000 98060000 c0080000  p...............
 0220 f8040000 e0050000 d0030000 02040000  ................
 0230 00000000 00000000 cb030000 cd030000  ................
 0240 310c0000 670c0000 70090000 140c0000  1...g...p.......
 0250 98060000 c0080000 f8040000 e0050000  ................
 0260 d0030000 02040000 00000000 00000000  ................
 0270 71050000 74050000 5d0c0000 670c0000  q...t...]...g...
 0280 220a0000 6c0b0000 70090000 7a090000  "...l...p...z...
 0290 98060000 a8070000 77050000 ac050000  ........w.......
 02a0 00000000 00000000 71050000 74050000  ........q...t...
 02b0 5d0c0000 670c0000 220a0000 6c0b0000  ]...g..."...l...
 02c0 70090000 7a090000 98060000 a8070000  p...z...........
 02d0 77050000 ac050000 00000000 00000000  w...............
 02e0 39070000 3c070000 5d0c0000 670c0000  9...<...]...g...
 02f0 ca0a0000 6c0b0000 3f070000 73070000  ....l...?...s...
 0300 00000000 00000000 39070000 3c070000  ........9...<...
 0310 5d0c0000 670c0000 ca0a0000 6c0b0000  ]...g.......l...
 0320 3f070000 73070000 00000000 00000000  ?...s...........
 0330 eb060000 f9060000 220a0000 ca0a0000  ........".......
 0340 fc060000 33070000 00000000 00000000  ....3...........
 0350 eb060000 f9060000 220a0000 ca0a0000  ........".......
 0360 fc060000 33070000 00000000 00000000  ....3...........
 0370 2d050000 30050000 4e0c0000 5d0c0000  -...0...N...]...
 0380 6c0b0000 140c0000 7a090000 220a0000  l.......z..."...
 0390 a8070000 c0080000 33050000 6e050000  ........3...n...
 03a0 00000000 00000000 2d050000 30050000  ........-...0...
 03b0 4e0c0000 5d0c0000 6c0b0000 140c0000  N...]...l.......
 03c0 7a090000 220a0000 a8070000 c0080000  z..."...........
 03d0 33050000 6e050000 00000000 00000000  3...n...........
 03e0 48080000 82080000 4e0c0000 5d0c0000  H.......N...]...
 03f0 6c0b0000 140c0000 00000000 00000000  l...............
 0400 48080000 82080000 4e0c0000 5d0c0000  H.......N...]...
 0410 6c0b0000 140c0000 00000000 00000000  l...............
 0420 fb070000 09080000 7a090000 220a0000  ........z..."...
 0430 0c080000 42080000 00000000 00000000  ....B...........
 0440 fb070000 09080000 7a090000 220a0000  ........z..."...
 0450 0c080000 42080000 00000000 00000000  ....B...........
 0460 d70d0000 d90d0000 e10d0000 240e0000  ............$...
 0470 00000000 00000000 d70d0000 d90d0000  ................
 0480 e10d0000 240e0000 00000000 00000000  ....$...........
 0490 0c000000 14000000 2f000000 54000000  ......../...T...
 04a0 17000000 2a000000 00000000 00000000  ....*...........
 04b0 0c000000 14000000 2f000000 34000000  ......../...4...
 04c0 17000000 2a000000 00000000 00000000  ....*...........
 04d0 6c000000 74000000 8f000000 b4000000  l...t...........
 04e0 77000000 8a000000 00000000 00000000  w...............
 04f0 6c000000 74000000 8f000000 94000000  l...t...........
 0500 77000000 8a000000 00000000 00000000  w...............
 0510 cc000000 d4000000 ef000000 14010000  ................
 0520 d7000000 ea000000 00000000 00000000  ................
 0530 cc000000 d4000000 ef000000 f4000000  ................
 0540 d7000000 ea000000 00000000 00000000  ................

Disassembly of section .interp:

08048134 <.interp>:
 8048134:	2f                   	das    
 8048135:	6c                   	insb   (%dx),%es:(%edi)
 8048136:	69 62 2f 6c 64 2d 6c 	imul   $0x6c2d646c,0x2f(%edx),%esp
 804813d:	69 6e 75 78 2e 73 6f 	imul   $0x6f732e78,0x75(%esi),%ebp
 8048144:	2e 32 00             	xor    %cs:(%eax),%al

Disassembly of section .note.ABI-tag:

08048148 <.note.ABI-tag>:
 8048148:	04 00                	add    $0x0,%al
 804814a:	00 00                	add    %al,(%eax)
 804814c:	10 00                	adc    %al,(%eax)
 804814e:	00 00                	add    %al,(%eax)
 8048150:	01 00                	add    %eax,(%eax)
 8048152:	00 00                	add    %al,(%eax)
 8048154:	47                   	inc    %edi
 8048155:	4e                   	dec    %esi
 8048156:	55                   	push   %ebp
 8048157:	00 00                	add    %al,(%eax)
 8048159:	00 00                	add    %al,(%eax)
 804815b:	00 02                	add    %al,(%edx)
 804815d:	00 00                	add    %al,(%eax)
 804815f:	00 06                	add    %al,(%esi)
 8048161:	00 00                	add    %al,(%eax)
 8048163:	00 0f                	add    %cl,(%edi)
 8048165:	00 00                	add    %al,(%eax)
	...

Disassembly of section .note.gnu.build-id:

08048168 <.note.gnu.build-id>:
 8048168:	04 00                	add    $0x0,%al
 804816a:	00 00                	add    %al,(%eax)
 804816c:	14 00                	adc    $0x0,%al
 804816e:	00 00                	add    %al,(%eax)
 8048170:	03 00                	add    (%eax),%eax
 8048172:	00 00                	add    %al,(%eax)
 8048174:	47                   	inc    %edi
 8048175:	4e                   	dec    %esi
 8048176:	55                   	push   %ebp
 8048177:	00 13                	add    %dl,(%ebx)
 8048179:	42                   	inc    %edx
 804817a:	fb                   	sti    
 804817b:	30 15 e5 e3 83 9c    	xor    %dl,0x9c83e3e5
 8048181:	5d                   	pop    %ebp
 8048182:	7f 6a                	jg     80481ee <_init-0x20e>
 8048184:	63 36                	arpl   %si,(%esi)
 8048186:	d5 80                	aad    $0xffffff80
 8048188:	05                   	.byte 0x5
 8048189:	c9                   	leave  
 804818a:	dc                   	.byte 0xdc
 804818b:	6e                   	outsb  %ds:(%esi),(%dx)

Disassembly of section .gnu.hash:

0804818c <.gnu.hash>:
 804818c:	03 00                	add    (%eax),%eax
 804818e:	00 00                	add    %al,(%eax)
 8048190:	0a 00                	or     (%eax),%al
 8048192:	00 00                	add    %al,(%eax)
 8048194:	01 00                	add    %eax,(%eax)
 8048196:	00 00                	add    %al,(%eax)
 8048198:	05 00 00 00 00       	add    $0x0,%eax
 804819d:	23 26                	and    (%esi),%esp
 804819f:	22 0a                	and    (%edx),%cl
 80481a1:	00 00                	add    %al,(%eax)
 80481a3:	00 0b                	add    %cl,(%ebx)
 80481a5:	00 00                	add    %al,(%eax)
 80481a7:	00 0d 00 00 00 29    	add    %cl,0x29000000
 80481ad:	1d 8c 1c ac 4b       	sbb    $0x4bac1c8c,%eax
 80481b2:	e3 c0                	jecxz  8048174 <_init-0x288>
 80481b4:	39 f2                	cmp    %esi,%edx
 80481b6:	8b 1c b3             	mov    (%ebx,%esi,4),%ebx
 80481b9:	a2                   	.byte 0xa2
 80481ba:	f7 12                	notl   (%edx)

Disassembly of section .dynsym:

080481bc <.dynsym>:
	...
 80481cc:	30 00                	xor    %al,(%eax)
	...
 80481d6:	00 00                	add    %al,(%eax)
 80481d8:	12 00                	adc    (%eax),%al
 80481da:	00 00                	add    %al,(%eax)
 80481dc:	01 00                	add    %eax,(%eax)
	...
 80481e6:	00 00                	add    %al,(%eax)
 80481e8:	20 00                	and    %al,(%eax)
 80481ea:	00 00                	add    %al,(%eax)
 80481ec:	7e 00                	jle    80481ee <_init-0x20e>
	...
 80481f6:	00 00                	add    %al,(%eax)
 80481f8:	12 00                	adc    (%eax),%al
 80481fa:	00 00                	add    %al,(%eax)
 80481fc:	62 00                	bound  %eax,(%eax)
	...
 8048206:	00 00                	add    %al,(%eax)
 8048208:	12 00                	adc    (%eax),%al
 804820a:	00 00                	add    %al,(%eax)
 804820c:	90                   	nop
	...
 8048215:	00 00                	add    %al,(%eax)
 8048217:	00 12                	add    %dl,(%edx)
 8048219:	00 00                	add    %al,(%eax)
 804821b:	00 6f 00             	add    %ch,0x0(%edi)
	...
 8048226:	00 00                	add    %al,(%eax)
 8048228:	12 00                	adc    (%eax),%al
 804822a:	00 00                	add    %al,(%eax)
 804822c:	29 00                	sub    %eax,(%eax)
	...
 8048236:	00 00                	add    %al,(%eax)
 8048238:	12 00                	adc    (%eax),%al
 804823a:	00 00                	add    %al,(%eax)
 804823c:	45                   	inc    %ebp
	...
 8048245:	00 00                	add    %al,(%eax)
 8048247:	00 12                	add    %dl,(%edx)
 8048249:	00 00                	add    %al,(%eax)
 804824b:	00 4d 00             	add    %cl,0x0(%ebp)
	...
 8048256:	00 00                	add    %al,(%eax)
 8048258:	12 00                	adc    (%eax),%al
 804825a:	00 00                	add    %al,(%eax)
 804825c:	3e 00 00             	add    %al,%ds:(%eax)
 804825f:	00 60 b0             	add    %ah,-0x50(%eax)
 8048262:	04 08                	add    $0x8,%al
 8048264:	04 00                	add    $0x0,%al
 8048266:	00 00                	add    %al,(%eax)
 8048268:	11 00                	adc    %eax,(%eax)
 804826a:	18 00                	sbb    %al,(%eax)
 804826c:	1a 00                	sbb    (%eax),%al
 804826e:	00 00                	add    %al,(%eax)
 8048270:	1c 9a                	sbb    $0x9a,%al
 8048272:	04 08                	add    $0x8,%al
 8048274:	04 00                	add    $0x0,%al
 8048276:	00 00                	add    %al,(%eax)
 8048278:	11 00                	adc    %eax,(%eax)
 804827a:	0f 00 5b 00          	ltr    0x0(%ebx)
 804827e:	00 00                	add    %al,(%eax)
 8048280:	40                   	inc    %eax
 8048281:	b0 04                	mov    $0x4,%al
 8048283:	08 04 00             	or     %al,(%eax,%eax,1)
 8048286:	00 00                	add    %al,(%eax)
 8048288:	11 00                	adc    %eax,(%eax)
 804828a:	18 00                	sbb    %al,(%eax)
 804828c:	54                   	push   %esp
 804828d:	00 00                	add    %al,(%eax)
 804828f:	00 80 b0 04 08 04    	add    %al,0x40804b0(%eax)
 8048295:	00 00                	add    %al,(%eax)
 8048297:	00 11                	add    %dl,(%ecx)
 8048299:	00 18                	add    %bl,(%eax)
	...

Disassembly of section .dynstr:

0804829c <.dynstr>:
 804829c:	00 5f 5f             	add    %bl,0x5f(%edi)
 804829f:	67 6d                	insl   (%dx),%es:(%di)
 80482a1:	6f                   	outsl  %ds:(%esi),(%dx)
 80482a2:	6e                   	outsb  %ds:(%esi),(%dx)
 80482a3:	5f                   	pop    %edi
 80482a4:	73 74                	jae    804831a <_init-0xe2>
 80482a6:	61                   	popa   
 80482a7:	72 74                	jb     804831d <_init-0xdf>
 80482a9:	5f                   	pop    %edi
 80482aa:	5f                   	pop    %edi
 80482ab:	00 6c 69 62          	add    %ch,0x62(%ecx,%ebp,2)
 80482af:	63 2e                	arpl   %bp,(%esi)
 80482b1:	73 6f                	jae    8048322 <_init-0xda>
 80482b3:	2e 36 00 5f 49       	cs add %bl,%cs:%ss:0x49(%edi)
 80482b8:	4f                   	dec    %edi
 80482b9:	5f                   	pop    %edi
 80482ba:	73 74                	jae    8048330 <_init-0xcc>
 80482bc:	64 69 6e 5f 75 73 65 	imul   $0x64657375,%fs:0x5f(%esi),%ebp
 80482c3:	64 
 80482c4:	00 67 65             	add    %ah,0x65(%edi)
 80482c7:	74 6f                	je     8048338 <_init-0xc4>
 80482c9:	70 74                	jo     804833f <_init-0xbd>
 80482cb:	00 5f 5f             	add    %bl,0x5f(%edi)
 80482ce:	66                   	data16
 80482cf:	70 72                	jo     8048343 <_init-0xb9>
 80482d1:	69 6e 74 66 5f 63 68 	imul   $0x68635f66,0x74(%esi),%ebp
 80482d8:	6b 00 73             	imul   $0x73,(%eax),%eax
 80482db:	74 64                	je     8048341 <_init-0xbb>
 80482dd:	6f                   	outsl  %ds:(%esi),(%dx)
 80482de:	75 74                	jne    8048354 <_init-0xa8>
 80482e0:	00 73 74             	add    %dh,0x74(%ebx)
 80482e3:	72 74                	jb     8048359 <_init-0xa3>
 80482e5:	6f                   	outsl  %ds:(%esi),(%dx)
 80482e6:	75 6c                	jne    8048354 <_init-0xa8>
 80482e8:	00 6d 61             	add    %ch,0x61(%ebp)
 80482eb:	6c                   	insb   (%dx),%es:(%edi)
 80482ec:	6c                   	insb   (%dx),%es:(%edi)
 80482ed:	6f                   	outsl  %ds:(%esi),(%dx)
 80482ee:	63 00                	arpl   %ax,(%eax)
 80482f0:	6f                   	outsl  %ds:(%esi),(%dx)
 80482f1:	70 74                	jo     8048367 <_init-0x95>
 80482f3:	61                   	popa   
 80482f4:	72 67                	jb     804835d <_init-0x9f>
 80482f6:	00 73 74             	add    %dh,0x74(%ebx)
 80482f9:	64                   	fs
 80482fa:	65                   	gs
 80482fb:	72 72                	jb     804836f <_init-0x8d>
 80482fd:	00 67 65             	add    %ah,0x65(%edi)
 8048300:	74 74                	je     8048376 <_init-0x86>
 8048302:	69 6d 65 6f 66 64 61 	imul   $0x6164666f,0x65(%ebp),%ebp
 8048309:	79 00                	jns    804830b <_init-0xf1>
 804830b:	5f                   	pop    %edi
 804830c:	5f                   	pop    %edi
 804830d:	76 66                	jbe    8048375 <_init-0x87>
 804830f:	70 72                	jo     8048383 <_init-0x79>
 8048311:	69 6e 74 66 5f 63 68 	imul   $0x68635f66,0x74(%esi),%ebp
 8048318:	6b 00 5f             	imul   $0x5f,(%eax),%eax
 804831b:	5f                   	pop    %edi
 804831c:	6c                   	insb   (%dx),%es:(%edi)
 804831d:	69 62 63 5f 73 74 61 	imul   $0x6174735f,0x63(%edx),%esp
 8048324:	72 74                	jb     804839a <_init-0x62>
 8048326:	5f                   	pop    %edi
 8048327:	6d                   	insl   (%dx),%es:(%edi)
 8048328:	61                   	popa   
 8048329:	69 6e 00 66 72 65 65 	imul   $0x65657266,0x0(%esi),%ebp
 8048330:	00 47 4c             	add    %al,0x4c(%edi)
 8048333:	49                   	dec    %ecx
 8048334:	42                   	inc    %edx
 8048335:	43                   	inc    %ebx
 8048336:	5f                   	pop    %edi
 8048337:	32 2e                	xor    (%esi),%ch
 8048339:	30 00                	xor    %al,(%eax)
 804833b:	47                   	inc    %edi
 804833c:	4c                   	dec    %esp
 804833d:	49                   	dec    %ecx
 804833e:	42                   	inc    %edx
 804833f:	43                   	inc    %ebx
 8048340:	5f                   	pop    %edi
 8048341:	32 2e                	xor    (%esi),%ch
 8048343:	33 2e                	xor    (%esi),%ebp
 8048345:	34 00                	xor    $0x0,%al

Disassembly of section .gnu.version:

08048348 <.gnu.version>:
 8048348:	00 00                	add    %al,(%eax)
 804834a:	02 00                	add    (%eax),%al
 804834c:	00 00                	add    %al,(%eax)
 804834e:	03 00                	add    (%eax),%eax
 8048350:	03 00                	add    (%eax),%eax
 8048352:	03 00                	add    (%eax),%eax
 8048354:	02 00                	add    (%eax),%al
 8048356:	03 00                	add    (%eax),%eax
 8048358:	03 00                	add    (%eax),%eax
 804835a:	03 00                	add    (%eax),%eax
 804835c:	03 00                	add    (%eax),%eax
 804835e:	01 00                	add    %eax,(%eax)
 8048360:	03 00                	add    (%eax),%eax
 8048362:	03 00                	add    (%eax),%eax

Disassembly of section .gnu.version_r:

08048364 <.gnu.version_r>:
 8048364:	01 00                	add    %eax,(%eax)
 8048366:	02 00                	add    (%eax),%al
 8048368:	10 00                	adc    %al,(%eax)
 804836a:	00 00                	add    %al,(%eax)
 804836c:	10 00                	adc    %al,(%eax)
 804836e:	00 00                	add    %al,(%eax)
 8048370:	00 00                	add    %al,(%eax)
 8048372:	00 00                	add    %al,(%eax)
 8048374:	10 69 69             	adc    %ch,0x69(%ecx)
 8048377:	0d 00 00 03 00       	or     $0x30000,%eax
 804837c:	95                   	xchg   %eax,%ebp
 804837d:	00 00                	add    %al,(%eax)
 804837f:	00 10                	add    %dl,(%eax)
 8048381:	00 00                	add    %al,(%eax)
 8048383:	00 74 19 69          	add    %dh,0x69(%ecx,%ebx,1)
 8048387:	09 00                	or     %eax,(%eax)
 8048389:	00 02                	add    %al,(%edx)
 804838b:	00 9f 00 00 00 00    	add    %bl,0x0(%edi)
 8048391:	00 00                	add    %al,(%eax)
	...

Disassembly of section .rel.dyn:

08048394 <.rel.dyn>:
 8048394:	f0 af                	lock scas %es:(%edi),%eax
 8048396:	04 08                	add    $0x8,%al
 8048398:	06                   	push   %es
 8048399:	02 00                	add    (%eax),%al
 804839b:	00 40 b0             	add    %al,-0x50(%eax)
 804839e:	04 08                	add    $0x8,%al
 80483a0:	05 0c 00 00 60       	add    $0x6000000c,%eax
 80483a5:	b0 04                	mov    $0x4,%al
 80483a7:	08 05 0a 00 00 80    	or     %al,0x8000000a
 80483ad:	b0 04                	mov    $0x4,%al
 80483af:	08                   	.byte 0x8
 80483b0:	05                   	.byte 0x5
 80483b1:	0d                   	.byte 0xd
	...

Disassembly of section .rel.plt:

080483b4 <.rel.plt>:
 80483b4:	00 b0 04 08 07 01    	add    %dh,0x1070804(%eax)
 80483ba:	00 00                	add    %al,(%eax)
 80483bc:	04 b0                	add    $0xb0,%al
 80483be:	04 08                	add    $0x8,%al
 80483c0:	07                   	pop    %es
 80483c1:	02 00                	add    (%eax),%al
 80483c3:	00 08                	add    %cl,(%eax)
 80483c5:	b0 04                	mov    $0x4,%al
 80483c7:	08 07                	or     %al,(%edi)
 80483c9:	03 00                	add    (%eax),%eax
 80483cb:	00 0c b0             	add    %cl,(%eax,%esi,4)
 80483ce:	04 08                	add    $0x8,%al
 80483d0:	07                   	pop    %es
 80483d1:	04 00                	add    $0x0,%al
 80483d3:	00 10                	add    %dl,(%eax)
 80483d5:	b0 04                	mov    $0x4,%al
 80483d7:	08 07                	or     %al,(%edi)
 80483d9:	05 00 00 14 b0       	add    $0xb0140000,%eax
 80483de:	04 08                	add    $0x8,%al
 80483e0:	07                   	pop    %es
 80483e1:	06                   	push   %es
 80483e2:	00 00                	add    %al,(%eax)
 80483e4:	18 b0 04 08 07 07    	sbb    %dh,0x7070804(%eax)
 80483ea:	00 00                	add    %al,(%eax)
 80483ec:	1c b0                	sbb    $0xb0,%al
 80483ee:	04 08                	add    $0x8,%al
 80483f0:	07                   	pop    %es
 80483f1:	08 00                	or     %al,(%eax)
 80483f3:	00 20                	add    %ah,(%eax)
 80483f5:	b0 04                	mov    $0x4,%al
 80483f7:	08 07                	or     %al,(%edi)
 80483f9:	09 00                	or     %eax,(%eax)
	...

Disassembly of section .init:

080483fc <_init>:
 80483fc:	55                   	push   %ebp
 80483fd:	89 e5                	mov    %esp,%ebp
 80483ff:	53                   	push   %ebx
 8048400:	83 ec 04             	sub    $0x4,%esp
 8048403:	e8 00 00 00 00       	call   8048408 <_init+0xc>
 8048408:	5b                   	pop    %ebx
 8048409:	81 c3 ec 2b 00 00    	add    $0x2bec,%ebx
 804840f:	8b 93 fc ff ff ff    	mov    -0x4(%ebx),%edx
 8048415:	85 d2                	test   %edx,%edx
 8048417:	74 05                	je     804841e <_init+0x22>
 8048419:	e8 2e 00 00 00       	call   804844c <__gmon_start__@plt>
 804841e:	e8 3d 01 00 00       	call   8048560 <frame_dummy>
 8048423:	e8 a8 15 00 00       	call   80499d0 <__do_global_ctors_aux>
 8048428:	58                   	pop    %eax
 8048429:	5b                   	pop    %ebx
 804842a:	c9                   	leave  
 804842b:	c3                   	ret    

Disassembly of section .plt:

0804842c <__fprintf_chk@plt-0x10>:
 804842c:	ff 35 f8 af 04 08    	pushl  0x804aff8
 8048432:	ff 25 fc af 04 08    	jmp    *0x804affc
 8048438:	00 00                	add    %al,(%eax)
	...

0804843c <__fprintf_chk@plt>:
 804843c:	ff 25 00 b0 04 08    	jmp    *0x804b000
 8048442:	68 00 00 00 00       	push   $0x0
 8048447:	e9 e0 ff ff ff       	jmp    804842c <_init+0x30>

0804844c <__gmon_start__@plt>:
 804844c:	ff 25 04 b0 04 08    	jmp    *0x804b004
 8048452:	68 08 00 00 00       	push   $0x8
 8048457:	e9 d0 ff ff ff       	jmp    804842c <_init+0x30>

0804845c <__libc_start_main@plt>:
 804845c:	ff 25 08 b0 04 08    	jmp    *0x804b008
 8048462:	68 10 00 00 00       	push   $0x10
 8048467:	e9 c0 ff ff ff       	jmp    804842c <_init+0x30>

0804846c <gettimeofday@plt>:
 804846c:	ff 25 0c b0 04 08    	jmp    *0x804b00c
 8048472:	68 18 00 00 00       	push   $0x18
 8048477:	e9 b0 ff ff ff       	jmp    804842c <_init+0x30>

0804847c <free@plt>:
 804847c:	ff 25 10 b0 04 08    	jmp    *0x804b010
 8048482:	68 20 00 00 00       	push   $0x20
 8048487:	e9 a0 ff ff ff       	jmp    804842c <_init+0x30>

0804848c <__vfprintf_chk@plt>:
 804848c:	ff 25 14 b0 04 08    	jmp    *0x804b014
 8048492:	68 28 00 00 00       	push   $0x28
 8048497:	e9 90 ff ff ff       	jmp    804842c <_init+0x30>

0804849c <getopt@plt>:
 804849c:	ff 25 18 b0 04 08    	jmp    *0x804b018
 80484a2:	68 30 00 00 00       	push   $0x30
 80484a7:	e9 80 ff ff ff       	jmp    804842c <_init+0x30>

080484ac <strtoul@plt>:
 80484ac:	ff 25 1c b0 04 08    	jmp    *0x804b01c
 80484b2:	68 38 00 00 00       	push   $0x38
 80484b7:	e9 70 ff ff ff       	jmp    804842c <_init+0x30>

080484bc <malloc@plt>:
 80484bc:	ff 25 20 b0 04 08    	jmp    *0x804b020
 80484c2:	68 40 00 00 00       	push   $0x40
 80484c7:	e9 60 ff ff ff       	jmp    804842c <_init+0x30>

Disassembly of section .text:

080484d0 <_start>:
 80484d0:	31 ed                	xor    %ebp,%ebp
 80484d2:	5e                   	pop    %esi
 80484d3:	89 e1                	mov    %esp,%ecx
 80484d5:	83 e4 f0             	and    $0xfffffff0,%esp
 80484d8:	50                   	push   %eax
 80484d9:	54                   	push   %esp
 80484da:	52                   	push   %edx
 80484db:	68 c0 99 04 08       	push   $0x80499c0
 80484e0:	68 60 99 04 08       	push   $0x8049960
 80484e5:	51                   	push   %ecx
 80484e6:	56                   	push   %esi
 80484e7:	68 50 94 04 08       	push   $0x8049450
 80484ec:	e8 6b ff ff ff       	call   804845c <__libc_start_main@plt>
 80484f1:	f4                   	hlt    
 80484f2:	90                   	nop
 80484f3:	90                   	nop
 80484f4:	90                   	nop
 80484f5:	90                   	nop
 80484f6:	90                   	nop
 80484f7:	90                   	nop
 80484f8:	90                   	nop
 80484f9:	90                   	nop
 80484fa:	90                   	nop
 80484fb:	90                   	nop
 80484fc:	90                   	nop
 80484fd:	90                   	nop
 80484fe:	90                   	nop
 80484ff:	90                   	nop

08048500 <__do_global_dtors_aux>:
 8048500:	55                   	push   %ebp
 8048501:	89 e5                	mov    %esp,%ebp
 8048503:	53                   	push   %ebx
 8048504:	83 ec 04             	sub    $0x4,%esp
 8048507:	80 3d 84 b0 04 08 00 	cmpb   $0x0,0x804b084
 804850e:	75 3f                	jne    804854f <__do_global_dtors_aux+0x4f>
 8048510:	a1 88 b0 04 08       	mov    0x804b088,%eax
 8048515:	bb 20 af 04 08       	mov    $0x804af20,%ebx
 804851a:	81 eb 1c af 04 08    	sub    $0x804af1c,%ebx
 8048520:	c1 fb 02             	sar    $0x2,%ebx
 8048523:	83 eb 01             	sub    $0x1,%ebx
 8048526:	39 d8                	cmp    %ebx,%eax
 8048528:	73 1e                	jae    8048548 <__do_global_dtors_aux+0x48>
 804852a:	8d b6 00 00 00 00    	lea    0x0(%esi),%esi
 8048530:	83 c0 01             	add    $0x1,%eax
 8048533:	a3 88 b0 04 08       	mov    %eax,0x804b088
 8048538:	ff 14 85 1c af 04 08 	call   *0x804af1c(,%eax,4)
 804853f:	a1 88 b0 04 08       	mov    0x804b088,%eax
 8048544:	39 d8                	cmp    %ebx,%eax
 8048546:	72 e8                	jb     8048530 <__do_global_dtors_aux+0x30>
 8048548:	c6 05 84 b0 04 08 01 	movb   $0x1,0x804b084
 804854f:	83 c4 04             	add    $0x4,%esp
 8048552:	5b                   	pop    %ebx
 8048553:	5d                   	pop    %ebp
 8048554:	c3                   	ret    
 8048555:	8d 74 26 00          	lea    0x0(%esi,%eiz,1),%esi
 8048559:	8d bc 27 00 00 00 00 	lea    0x0(%edi,%eiz,1),%edi

08048560 <frame_dummy>:
 8048560:	55                   	push   %ebp
 8048561:	89 e5                	mov    %esp,%ebp
 8048563:	83 ec 18             	sub    $0x18,%esp
 8048566:	a1 24 af 04 08       	mov    0x804af24,%eax
 804856b:	85 c0                	test   %eax,%eax
 804856d:	74 12                	je     8048581 <frame_dummy+0x21>
 804856f:	b8 00 00 00 00       	mov    $0x0,%eax
 8048574:	85 c0                	test   %eax,%eax
 8048576:	74 09                	je     8048581 <frame_dummy+0x21>
 8048578:	c7 04 24 24 af 04 08 	movl   $0x804af24,(%esp)
 804857f:	ff d0                	call   *%eax
 8048581:	c9                   	leave  
 8048582:	c3                   	ret    
 8048583:	90                   	nop
 8048584:	90                   	nop
 8048585:	90                   	nop
 8048586:	90                   	nop
 8048587:	90                   	nop
 8048588:	90                   	nop
 8048589:	90                   	nop
 804858a:	90                   	nop
 804858b:	90                   	nop
 804858c:	90                   	nop
 804858d:	90                   	nop
 804858e:	90                   	nop
 804858f:	90                   	nop

08048590 <u64f_fibonacci_recursive>:
 8048590:	55                   	push   %ebp
 8048591:	89 e5                	mov    %esp,%ebp
 8048593:	57                   	push   %edi
 8048594:	56                   	push   %esi
 8048595:	53                   	push   %ebx
 8048596:	81 ec 8c 00 00 00    	sub    $0x8c,%esp
 804859c:	8b 45 08             	mov    0x8(%ebp),%eax
 804859f:	c7 45 a0 00 00 00 00 	movl   $0x0,-0x60(%ebp)
 80485a6:	c7 45 a4 00 00 00 00 	movl   $0x0,-0x5c(%ebp)
 80485ad:	89 45 b4             	mov    %eax,-0x4c(%ebp)
 80485b0:	83 7d b4 01          	cmpl   $0x1,-0x4c(%ebp)
 80485b4:	0f 86 a1 02 00 00    	jbe    804885b <u64f_fibonacci_recursive+0x2cb>
 80485ba:	8b 45 b4             	mov    -0x4c(%ebp),%eax
 80485bd:	83 6d b4 02          	subl   $0x2,-0x4c(%ebp)
 80485c1:	c7 45 98 00 00 00 00 	movl   $0x0,-0x68(%ebp)
 80485c8:	83 e8 01             	sub    $0x1,%eax
 80485cb:	89 85 7c ff ff ff    	mov    %eax,-0x84(%ebp)
 80485d1:	8b 45 b4             	mov    -0x4c(%ebp),%eax
 80485d4:	c7 45 9c 00 00 00 00 	movl   $0x0,-0x64(%ebp)
 80485db:	89 45 c4             	mov    %eax,-0x3c(%ebp)
 80485de:	8b 45 c4             	mov    -0x3c(%ebp),%eax
 80485e1:	83 c0 01             	add    $0x1,%eax
 80485e4:	83 f8 01             	cmp    $0x1,%eax
 80485e7:	0f 86 4a 02 00 00    	jbe    8048837 <u64f_fibonacci_recursive+0x2a7>
 80485ed:	8b 45 c4             	mov    -0x3c(%ebp),%eax
 80485f0:	c7 45 90 00 00 00 00 	movl   $0x0,-0x70(%ebp)
 80485f7:	c7 45 94 00 00 00 00 	movl   $0x0,-0x6c(%ebp)
 80485fe:	83 e8 01             	sub    $0x1,%eax
 8048601:	89 45 c0             	mov    %eax,-0x40(%ebp)
 8048604:	8b 45 c0             	mov    -0x40(%ebp),%eax
 8048607:	83 c0 01             	add    $0x1,%eax
 804860a:	83 f8 01             	cmp    $0x1,%eax
 804860d:	0f 86 02 02 00 00    	jbe    8048815 <u64f_fibonacci_recursive+0x285>
 8048613:	8b 45 c0             	mov    -0x40(%ebp),%eax
 8048616:	c7 45 88 00 00 00 00 	movl   $0x0,-0x78(%ebp)
 804861d:	c7 45 8c 00 00 00 00 	movl   $0x0,-0x74(%ebp)
 8048624:	83 e8 01             	sub    $0x1,%eax
 8048627:	89 45 bc             	mov    %eax,-0x44(%ebp)
 804862a:	8b 45 bc             	mov    -0x44(%ebp),%eax
 804862d:	83 c0 01             	add    $0x1,%eax
 8048630:	83 f8 01             	cmp    $0x1,%eax
 8048633:	0f 86 ba 01 00 00    	jbe    80487f3 <u64f_fibonacci_recursive+0x263>
 8048639:	8b 45 bc             	mov    -0x44(%ebp),%eax
 804863c:	c7 45 80 00 00 00 00 	movl   $0x0,-0x80(%ebp)
 8048643:	c7 45 84 00 00 00 00 	movl   $0x0,-0x7c(%ebp)
 804864a:	83 e8 01             	sub    $0x1,%eax
 804864d:	89 45 b0             	mov    %eax,-0x50(%ebp)
 8048650:	8b 45 b0             	mov    -0x50(%ebp),%eax
 8048653:	83 c0 01             	add    $0x1,%eax
 8048656:	83 f8 01             	cmp    $0x1,%eax
 8048659:	0f 86 72 01 00 00    	jbe    80487d1 <u64f_fibonacci_recursive+0x241>
 804865f:	83 7d b0 01          	cmpl   $0x1,-0x50(%ebp)
 8048663:	0f 84 50 01 00 00    	je     80487b9 <u64f_fibonacci_recursive+0x229>
 8048669:	8b 45 b0             	mov    -0x50(%ebp),%eax
 804866c:	c7 45 a8 00 00 00 00 	movl   $0x0,-0x58(%ebp)
 8048673:	c7 45 ac 00 00 00 00 	movl   $0x0,-0x54(%ebp)
 804867a:	83 e8 01             	sub    $0x1,%eax
 804867d:	89 45 b8             	mov    %eax,-0x48(%ebp)
 8048680:	83 7d b8 01          	cmpl   $0x1,-0x48(%ebp)
 8048684:	0f 86 19 01 00 00    	jbe    80487a3 <u64f_fibonacci_recursive+0x213>
 804868a:	8b 45 b8             	mov    -0x48(%ebp),%eax
 804868d:	c7 45 c8 00 00 00 00 	movl   $0x0,-0x38(%ebp)
 8048694:	c7 45 cc 00 00 00 00 	movl   $0x0,-0x34(%ebp)
 804869b:	83 e8 01             	sub    $0x1,%eax
 804869e:	89 45 d4             	mov    %eax,-0x2c(%ebp)
 80486a1:	8b 45 d4             	mov    -0x2c(%ebp),%eax
 80486a4:	c7 45 d8 00 00 00 00 	movl   $0x0,-0x28(%ebp)
 80486ab:	c7 45 dc 00 00 00 00 	movl   $0x0,-0x24(%ebp)
 80486b2:	83 e8 01             	sub    $0x1,%eax
 80486b5:	83 7d d4 01          	cmpl   $0x1,-0x2c(%ebp)
 80486b9:	89 45 e4             	mov    %eax,-0x1c(%ebp)
 80486bc:	0f 86 d6 00 00 00    	jbe    8048798 <u64f_fibonacci_recursive+0x208>
 80486c2:	8d b6 00 00 00 00    	lea    0x0(%esi),%esi
 80486c8:	8b 5d e4             	mov    -0x1c(%ebp),%ebx
 80486cb:	31 f6                	xor    %esi,%esi
 80486cd:	31 ff                	xor    %edi,%edi
 80486cf:	83 fb 01             	cmp    $0x1,%ebx
 80486d2:	0f 86 b6 00 00 00    	jbe    804878e <u64f_fibonacci_recursive+0x1fe>
 80486d8:	8d 43 ff             	lea    -0x1(%ebx),%eax
 80486db:	83 eb 02             	sub    $0x2,%ebx
 80486de:	89 04 24             	mov    %eax,(%esp)
 80486e1:	e8 aa fe ff ff       	call   8048590 <u64f_fibonacci_recursive>
 80486e6:	01 c6                	add    %eax,%esi
 80486e8:	11 d7                	adc    %edx,%edi
 80486ea:	83 fb 01             	cmp    $0x1,%ebx
 80486ed:	77 e9                	ja     80486d8 <u64f_fibonacci_recursive+0x148>
 80486ef:	8b 4d e4             	mov    -0x1c(%ebp),%ecx
 80486f2:	83 e9 02             	sub    $0x2,%ecx
 80486f5:	89 c8                	mov    %ecx,%eax
 80486f7:	83 e0 01             	and    $0x1,%eax
 80486fa:	31 d2                	xor    %edx,%edx
 80486fc:	01 f0                	add    %esi,%eax
 80486fe:	11 fa                	adc    %edi,%edx
 8048700:	01 45 d8             	add    %eax,-0x28(%ebp)
 8048703:	89 c8                	mov    %ecx,%eax
 8048705:	11 55 dc             	adc    %edx,-0x24(%ebp)
 8048708:	83 c0 01             	add    $0x1,%eax
 804870b:	83 f8 01             	cmp    $0x1,%eax
 804870e:	89 4d e4             	mov    %ecx,-0x1c(%ebp)
 8048711:	77 b5                	ja     80486c8 <u64f_fibonacci_recursive+0x138>
 8048713:	8b 4d d4             	mov    -0x2c(%ebp),%ecx
 8048716:	83 e9 02             	sub    $0x2,%ecx
 8048719:	89 c8                	mov    %ecx,%eax
 804871b:	83 e0 01             	and    $0x1,%eax
 804871e:	31 d2                	xor    %edx,%edx
 8048720:	03 45 d8             	add    -0x28(%ebp),%eax
 8048723:	13 55 dc             	adc    -0x24(%ebp),%edx
 8048726:	01 45 c8             	add    %eax,-0x38(%ebp)
 8048729:	89 c8                	mov    %ecx,%eax
 804872b:	11 55 cc             	adc    %edx,-0x34(%ebp)
 804872e:	83 c0 01             	add    $0x1,%eax
 8048731:	83 f8 01             	cmp    $0x1,%eax
 8048734:	89 4d d4             	mov    %ecx,-0x2c(%ebp)
 8048737:	0f 87 64 ff ff ff    	ja     80486a1 <u64f_fibonacci_recursive+0x111>
 804873d:	8b 45 b8             	mov    -0x48(%ebp),%eax
 8048740:	83 e8 02             	sub    $0x2,%eax
 8048743:	89 c2                	mov    %eax,%edx
 8048745:	d1 ea                	shr    %edx
 8048747:	6b d2 fe             	imul   $0xfffffffe,%edx,%edx
 804874a:	01 c2                	add    %eax,%edx
 804874c:	31 c9                	xor    %ecx,%ecx
 804874e:	03 55 c8             	add    -0x38(%ebp),%edx
 8048751:	13 4d cc             	adc    -0x34(%ebp),%ecx
 8048754:	01 55 a8             	add    %edx,-0x58(%ebp)
 8048757:	11 4d ac             	adc    %ecx,-0x54(%ebp)
 804875a:	89 45 b8             	mov    %eax,-0x48(%ebp)
 804875d:	83 c0 01             	add    $0x1,%eax
 8048760:	83 f8 01             	cmp    $0x1,%eax
 8048763:	0f 87 17 ff ff ff    	ja     8048680 <u64f_fibonacci_recursive+0xf0>
 8048769:	8b 45 b0             	mov    -0x50(%ebp),%eax
 804876c:	83 e8 02             	sub    $0x2,%eax
 804876f:	89 c2                	mov    %eax,%edx
 8048771:	d1 ea                	shr    %edx
 8048773:	6b d2 fe             	imul   $0xfffffffe,%edx,%edx
 8048776:	01 c2                	add    %eax,%edx
 8048778:	31 c9                	xor    %ecx,%ecx
 804877a:	03 55 a8             	add    -0x58(%ebp),%edx
 804877d:	13 4d ac             	adc    -0x54(%ebp),%ecx
 8048780:	01 55 80             	add    %edx,-0x80(%ebp)
 8048783:	11 4d 84             	adc    %ecx,-0x7c(%ebp)
 8048786:	89 45 b0             	mov    %eax,-0x50(%ebp)
 8048789:	e9 c2 fe ff ff       	jmp    8048650 <u64f_fibonacci_recursive+0xc0>
 804878e:	89 d8                	mov    %ebx,%eax
 8048790:	8d 4b fe             	lea    -0x2(%ebx),%ecx
 8048793:	e9 62 ff ff ff       	jmp    80486fa <u64f_fibonacci_recursive+0x16a>
 8048798:	8b 45 d4             	mov    -0x2c(%ebp),%eax
 804879b:	8d 48 fe             	lea    -0x2(%eax),%ecx
 804879e:	e9 7b ff ff ff       	jmp    804871e <u64f_fibonacci_recursive+0x18e>
 80487a3:	8b 55 b8             	mov    -0x48(%ebp),%edx
 80487a6:	c7 45 c8 00 00 00 00 	movl   $0x0,-0x38(%ebp)
 80487ad:	c7 45 cc 00 00 00 00 	movl   $0x0,-0x34(%ebp)
 80487b4:	8d 42 fe             	lea    -0x2(%edx),%eax
 80487b7:	eb 93                	jmp    804874c <u64f_fibonacci_recursive+0x1bc>
 80487b9:	ba 01 00 00 00       	mov    $0x1,%edx
 80487be:	83 c8 ff             	or     $0xffffffff,%eax
 80487c1:	c7 45 a8 00 00 00 00 	movl   $0x0,-0x58(%ebp)
 80487c8:	c7 45 ac 00 00 00 00 	movl   $0x0,-0x54(%ebp)
 80487cf:	eb a7                	jmp    8048778 <u64f_fibonacci_recursive+0x1e8>
 80487d1:	8b 45 bc             	mov    -0x44(%ebp),%eax
 80487d4:	31 d2                	xor    %edx,%edx
 80487d6:	d1 e8                	shr    %eax
 80487d8:	6b c0 fe             	imul   $0xfffffffe,%eax,%eax
 80487db:	03 45 bc             	add    -0x44(%ebp),%eax
 80487de:	03 45 80             	add    -0x80(%ebp),%eax
 80487e1:	13 55 84             	adc    -0x7c(%ebp),%edx
 80487e4:	01 45 88             	add    %eax,-0x78(%ebp)
 80487e7:	11 55 8c             	adc    %edx,-0x74(%ebp)
 80487ea:	83 6d bc 02          	subl   $0x2,-0x44(%ebp)
 80487ee:	e9 37 fe ff ff       	jmp    804862a <u64f_fibonacci_recursive+0x9a>
 80487f3:	8b 45 c0             	mov    -0x40(%ebp),%eax
 80487f6:	31 d2                	xor    %edx,%edx
 80487f8:	d1 e8                	shr    %eax
 80487fa:	6b c0 fe             	imul   $0xfffffffe,%eax,%eax
 80487fd:	03 45 c0             	add    -0x40(%ebp),%eax
 8048800:	03 45 88             	add    -0x78(%ebp),%eax
 8048803:	13 55 8c             	adc    -0x74(%ebp),%edx
 8048806:	01 45 90             	add    %eax,-0x70(%ebp)
 8048809:	11 55 94             	adc    %edx,-0x6c(%ebp)
 804880c:	83 6d c0 02          	subl   $0x2,-0x40(%ebp)
 8048810:	e9 ef fd ff ff       	jmp    8048604 <u64f_fibonacci_recursive+0x74>
 8048815:	8b 45 c4             	mov    -0x3c(%ebp),%eax
 8048818:	31 d2                	xor    %edx,%edx
 804881a:	d1 e8                	shr    %eax
 804881c:	6b c0 fe             	imul   $0xfffffffe,%eax,%eax
 804881f:	03 45 c4             	add    -0x3c(%ebp),%eax
 8048822:	03 45 90             	add    -0x70(%ebp),%eax
 8048825:	13 55 94             	adc    -0x6c(%ebp),%edx
 8048828:	01 45 98             	add    %eax,-0x68(%ebp)
 804882b:	11 55 9c             	adc    %edx,-0x64(%ebp)
 804882e:	83 6d c4 02          	subl   $0x2,-0x3c(%ebp)
 8048832:	e9 a7 fd ff ff       	jmp    80485de <u64f_fibonacci_recursive+0x4e>
 8048837:	8b 85 7c ff ff ff    	mov    -0x84(%ebp),%eax
 804883d:	31 d2                	xor    %edx,%edx
 804883f:	d1 e8                	shr    %eax
 8048841:	6b c0 fe             	imul   $0xfffffffe,%eax,%eax
 8048844:	03 85 7c ff ff ff    	add    -0x84(%ebp),%eax
 804884a:	03 45 98             	add    -0x68(%ebp),%eax
 804884d:	13 55 9c             	adc    -0x64(%ebp),%edx
 8048850:	01 45 a0             	add    %eax,-0x60(%ebp)
 8048853:	11 55 a4             	adc    %edx,-0x5c(%ebp)
 8048856:	e9 55 fd ff ff       	jmp    80485b0 <u64f_fibonacci_recursive+0x20>
 804885b:	8b 45 08             	mov    0x8(%ebp),%eax
 804885e:	31 d2                	xor    %edx,%edx
 8048860:	d1 e8                	shr    %eax
 8048862:	6b c0 fe             	imul   $0xfffffffe,%eax,%eax
 8048865:	03 45 08             	add    0x8(%ebp),%eax
 8048868:	03 45 a0             	add    -0x60(%ebp),%eax
 804886b:	13 55 a4             	adc    -0x5c(%ebp),%edx
 804886e:	81 c4 8c 00 00 00    	add    $0x8c,%esp
 8048874:	5b                   	pop    %ebx
 8048875:	5e                   	pop    %esi
 8048876:	5f                   	pop    %edi
 8048877:	5d                   	pop    %ebp
 8048878:	c3                   	ret    
 8048879:	8d b4 26 00 00 00 00 	lea    0x0(%esi,%eiz,1),%esi

08048880 <u64f_fibonacci_recursive_cached>:
 8048880:	55                   	push   %ebp
 8048881:	89 e5                	mov    %esp,%ebp
 8048883:	83 ec 58             	sub    $0x58,%esp
 8048886:	83 7d 08 01          	cmpl   $0x1,0x8(%ebp)
 804888a:	89 5d f4             	mov    %ebx,-0xc(%ebp)
 804888d:	89 75 f8             	mov    %esi,-0x8(%ebp)
 8048890:	89 7d fc             	mov    %edi,-0x4(%ebp)
 8048893:	0f 86 d7 02 00 00    	jbe    8048b70 <u64f_fibonacci_recursive_cached+0x2f0>
 8048899:	8b 0d 90 b0 04 08    	mov    0x804b090,%ecx
 804889f:	85 c9                	test   %ecx,%ecx
 80488a1:	7e 2d                	jle    80488d0 <u64f_fibonacci_recursive_cached+0x50>
 80488a3:	8b 45 08             	mov    0x8(%ebp),%eax
 80488a6:	c7 04 24 90 b0 04 08 	movl   $0x804b090,(%esp)
 80488ad:	89 44 24 04          	mov    %eax,0x4(%esp)
 80488b1:	e8 6a 0d 00 00       	call   8049620 <u64f_lcache_find>
 80488b6:	89 c3                	mov    %eax,%ebx
 80488b8:	89 d6                	mov    %edx,%esi
 80488ba:	09 da                	or     %ebx,%edx
 80488bc:	74 62                	je     8048920 <u64f_fibonacci_recursive_cached+0xa0>
 80488be:	89 d8                	mov    %ebx,%eax
 80488c0:	89 f2                	mov    %esi,%edx
 80488c2:	8b 5d f4             	mov    -0xc(%ebp),%ebx
 80488c5:	8b 75 f8             	mov    -0x8(%ebp),%esi
 80488c8:	8b 7d fc             	mov    -0x4(%ebp),%edi
 80488cb:	89 ec                	mov    %ebp,%esp
 80488cd:	5d                   	pop    %ebp
 80488ce:	c3                   	ret    
 80488cf:	90                   	nop
 80488d0:	8b 55 08             	mov    0x8(%ebp),%edx
 80488d3:	8b 45 08             	mov    0x8(%ebp),%eax
 80488d6:	c7 44 24 08 90 b0 04 	movl   $0x804b090,0x8(%esp)
 80488dd:	08 
 80488de:	c7 44 24 04 01 00 00 	movl   $0x1,0x4(%esp)
 80488e5:	00 
 80488e6:	83 e2 01             	and    $0x1,%edx
 80488e9:	d1 e8                	shr    %eax
 80488eb:	8d 04 02             	lea    (%edx,%eax,1),%eax
 80488ee:	a3 8c b0 04 08       	mov    %eax,0x804b08c
 80488f3:	89 04 24             	mov    %eax,(%esp)
 80488f6:	e8 75 0b 00 00       	call   8049470 <s32f_lcache_init>
 80488fb:	83 f8 ff             	cmp    $0xffffffff,%eax
 80488fe:	75 20                	jne    8048920 <u64f_fibonacci_recursive_cached+0xa0>
 8048900:	8b 45 08             	mov    0x8(%ebp),%eax
 8048903:	c7 44 24 08 10 00 00 	movl   $0x10,0x8(%esp)
 804890a:	00 
 804890b:	c7 04 24 20 9a 04 08 	movl   $0x8049a20,(%esp)
 8048912:	89 44 24 04          	mov    %eax,0x4(%esp)
 8048916:	e8 f5 0d 00 00       	call   8049710 <uwarning>
 804891b:	90                   	nop
 804891c:	8d 74 26 00          	lea    0x0(%esi,%eiz,1),%esi
 8048920:	8b 7d 08             	mov    0x8(%ebp),%edi
 8048923:	31 f6                	xor    %esi,%esi
 8048925:	bb 01 00 00 00       	mov    $0x1,%ebx
 804892a:	83 ef 01             	sub    $0x1,%edi
 804892d:	83 ff 01             	cmp    $0x1,%edi
 8048930:	74 26                	je     8048958 <u64f_fibonacci_recursive_cached+0xd8>
 8048932:	8b 15 90 b0 04 08    	mov    0x804b090,%edx
 8048938:	85 d2                	test   %edx,%edx
 804893a:	7e 7c                	jle    80489b8 <u64f_fibonacci_recursive_cached+0x138>
 804893c:	89 7c 24 04          	mov    %edi,0x4(%esp)
 8048940:	c7 04 24 90 b0 04 08 	movl   $0x804b090,(%esp)
 8048947:	e8 d4 0c 00 00       	call   8049620 <u64f_lcache_find>
 804894c:	89 c3                	mov    %eax,%ebx
 804894e:	89 d6                	mov    %edx,%esi
 8048950:	09 da                	or     %ebx,%edx
 8048952:	0f 84 92 00 00 00    	je     80489ea <u64f_fibonacci_recursive_cached+0x16a>
 8048958:	8b 7d 08             	mov    0x8(%ebp),%edi
 804895b:	31 c9                	xor    %ecx,%ecx
 804895d:	83 ef 02             	sub    $0x2,%edi
 8048960:	83 ff 01             	cmp    $0x1,%edi
 8048963:	89 fa                	mov    %edi,%edx
 8048965:	76 2b                	jbe    8048992 <u64f_fibonacci_recursive_cached+0x112>
 8048967:	a1 90 b0 04 08       	mov    0x804b090,%eax
 804896c:	85 c0                	test   %eax,%eax
 804896e:	0f 8e 14 01 00 00    	jle    8048a88 <u64f_fibonacci_recursive_cached+0x208>
 8048974:	89 7c 24 04          	mov    %edi,0x4(%esp)
 8048978:	c7 04 24 90 b0 04 08 	movl   $0x804b090,(%esp)
 804897f:	e8 9c 0c 00 00       	call   8049620 <u64f_lcache_find>
 8048984:	89 d1                	mov    %edx,%ecx
 8048986:	89 c2                	mov    %eax,%edx
 8048988:	89 c8                	mov    %ecx,%eax
 804898a:	09 d0                	or     %edx,%eax
 804898c:	0f 84 28 01 00 00    	je     8048aba <u64f_fibonacci_recursive_cached+0x23a>
 8048992:	01 d3                	add    %edx,%ebx
 8048994:	8b 55 08             	mov    0x8(%ebp),%edx
 8048997:	11 ce                	adc    %ecx,%esi
 8048999:	89 5c 24 04          	mov    %ebx,0x4(%esp)
 804899d:	89 74 24 08          	mov    %esi,0x8(%esp)
 80489a1:	89 54 24 0c          	mov    %edx,0xc(%esp)
 80489a5:	c7 04 24 90 b0 04 08 	movl   $0x804b090,(%esp)
 80489ac:	e8 df 0b 00 00       	call   8049590 <s32f_lcache_add>
 80489b1:	e9 08 ff ff ff       	jmp    80488be <u64f_fibonacci_recursive_cached+0x3e>
 80489b6:	66 90                	xchg   %ax,%ax
 80489b8:	89 fa                	mov    %edi,%edx
 80489ba:	89 f8                	mov    %edi,%eax
 80489bc:	83 e2 01             	and    $0x1,%edx
 80489bf:	d1 e8                	shr    %eax
 80489c1:	8d 04 02             	lea    (%edx,%eax,1),%eax
 80489c4:	a3 8c b0 04 08       	mov    %eax,0x804b08c
 80489c9:	c7 44 24 08 90 b0 04 	movl   $0x804b090,0x8(%esp)
 80489d0:	08 
 80489d1:	c7 44 24 04 01 00 00 	movl   $0x1,0x4(%esp)
 80489d8:	00 
 80489d9:	89 04 24             	mov    %eax,(%esp)
 80489dc:	e8 8f 0a 00 00       	call   8049470 <s32f_lcache_init>
 80489e1:	83 f8 ff             	cmp    $0xffffffff,%eax
 80489e4:	0f 84 ba 07 00 00    	je     80491a4 <u64f_fibonacci_recursive_cached+0x924>
 80489ea:	8d 4f ff             	lea    -0x1(%edi),%ecx
 80489ed:	31 f6                	xor    %esi,%esi
 80489ef:	83 f9 01             	cmp    $0x1,%ecx
 80489f2:	bb 01 00 00 00       	mov    $0x1,%ebx
 80489f7:	74 31                	je     8048a2a <u64f_fibonacci_recursive_cached+0x1aa>
 80489f9:	a1 90 b0 04 08       	mov    0x804b090,%eax
 80489fe:	85 c0                	test   %eax,%eax
 8048a00:	0f 8e 4a 04 00 00    	jle    8048e50 <u64f_fibonacci_recursive_cached+0x5d0>
 8048a06:	89 4c 24 04          	mov    %ecx,0x4(%esp)
 8048a0a:	89 4d bc             	mov    %ecx,-0x44(%ebp)
 8048a0d:	c7 04 24 90 b0 04 08 	movl   $0x804b090,(%esp)
 8048a14:	e8 07 0c 00 00       	call   8049620 <u64f_lcache_find>
 8048a19:	8b 4d bc             	mov    -0x44(%ebp),%ecx
 8048a1c:	89 c3                	mov    %eax,%ebx
 8048a1e:	89 d0                	mov    %edx,%eax
 8048a20:	09 d8                	or     %ebx,%eax
 8048a22:	89 d6                	mov    %edx,%esi
 8048a24:	0f 84 76 04 00 00    	je     8048ea0 <u64f_fibonacci_recursive_cached+0x620>
 8048a2a:	8d 57 fe             	lea    -0x2(%edi),%edx
 8048a2d:	83 fa 01             	cmp    $0x1,%edx
 8048a30:	89 55 e0             	mov    %edx,-0x20(%ebp)
 8048a33:	0f 86 b7 04 00 00    	jbe    8048ef0 <u64f_fibonacci_recursive_cached+0x670>
 8048a39:	a1 90 b0 04 08       	mov    0x804b090,%eax
 8048a3e:	85 c0                	test   %eax,%eax
 8048a40:	0f 8e 3a 01 00 00    	jle    8048b80 <u64f_fibonacci_recursive_cached+0x300>
 8048a46:	8b 45 e0             	mov    -0x20(%ebp),%eax
 8048a49:	c7 04 24 90 b0 04 08 	movl   $0x804b090,(%esp)
 8048a50:	89 44 24 04          	mov    %eax,0x4(%esp)
 8048a54:	e8 c7 0b 00 00       	call   8049620 <u64f_lcache_find>
 8048a59:	89 d1                	mov    %edx,%ecx
 8048a5b:	89 c2                	mov    %eax,%edx
 8048a5d:	89 c8                	mov    %ecx,%eax
 8048a5f:	09 d0                	or     %edx,%eax
 8048a61:	0f 84 69 01 00 00    	je     8048bd0 <u64f_fibonacci_recursive_cached+0x350>
 8048a67:	01 d3                	add    %edx,%ebx
 8048a69:	11 ce                	adc    %ecx,%esi
 8048a6b:	89 7c 24 0c          	mov    %edi,0xc(%esp)
 8048a6f:	89 5c 24 04          	mov    %ebx,0x4(%esp)
 8048a73:	89 74 24 08          	mov    %esi,0x8(%esp)
 8048a77:	c7 04 24 90 b0 04 08 	movl   $0x804b090,(%esp)
 8048a7e:	e8 0d 0b 00 00       	call   8049590 <s32f_lcache_add>
 8048a83:	e9 d0 fe ff ff       	jmp    8048958 <u64f_fibonacci_recursive_cached+0xd8>
 8048a88:	89 fa                	mov    %edi,%edx
 8048a8a:	89 f8                	mov    %edi,%eax
 8048a8c:	83 e2 01             	and    $0x1,%edx
 8048a8f:	d1 e8                	shr    %eax
 8048a91:	8d 04 02             	lea    (%edx,%eax,1),%eax
 8048a94:	a3 8c b0 04 08       	mov    %eax,0x804b08c
 8048a99:	c7 44 24 08 90 b0 04 	movl   $0x804b090,0x8(%esp)
 8048aa0:	08 
 8048aa1:	c7 44 24 04 01 00 00 	movl   $0x1,0x4(%esp)
 8048aa8:	00 
 8048aa9:	89 04 24             	mov    %eax,(%esp)
 8048aac:	e8 bf 09 00 00       	call   8049470 <s32f_lcache_init>
 8048ab1:	83 f8 ff             	cmp    $0xffffffff,%eax
 8048ab4:	0f 84 07 07 00 00    	je     80491c1 <u64f_fibonacci_recursive_cached+0x941>
 8048aba:	8d 57 ff             	lea    -0x1(%edi),%edx
 8048abd:	83 fa 01             	cmp    $0x1,%edx
 8048ac0:	89 55 d8             	mov    %edx,-0x28(%ebp)
 8048ac3:	c7 45 e0 01 00 00 00 	movl   $0x1,-0x20(%ebp)
 8048aca:	c7 45 e4 00 00 00 00 	movl   $0x0,-0x1c(%ebp)
 8048ad1:	74 2b                	je     8048afe <u64f_fibonacci_recursive_cached+0x27e>
 8048ad3:	a1 90 b0 04 08       	mov    0x804b090,%eax
 8048ad8:	85 c0                	test   %eax,%eax
 8048ada:	0f 8e 58 02 00 00    	jle    8048d38 <u64f_fibonacci_recursive_cached+0x4b8>
 8048ae0:	89 54 24 04          	mov    %edx,0x4(%esp)
 8048ae4:	c7 04 24 90 b0 04 08 	movl   $0x804b090,(%esp)
 8048aeb:	e8 30 0b 00 00       	call   8049620 <u64f_lcache_find>
 8048af0:	89 55 e4             	mov    %edx,-0x1c(%ebp)
 8048af3:	09 c2                	or     %eax,%edx
 8048af5:	89 45 e0             	mov    %eax,-0x20(%ebp)
 8048af8:	0f 84 8a 02 00 00    	je     8048d88 <u64f_fibonacci_recursive_cached+0x508>
 8048afe:	8d 57 fe             	lea    -0x2(%edi),%edx
 8048b01:	83 fa 01             	cmp    $0x1,%edx
 8048b04:	89 55 d8             	mov    %edx,-0x28(%ebp)
 8048b07:	0f 86 f3 03 00 00    	jbe    8048f00 <u64f_fibonacci_recursive_cached+0x680>
 8048b0d:	8b 0d 90 b0 04 08    	mov    0x804b090,%ecx
 8048b13:	85 c9                	test   %ecx,%ecx
 8048b15:	0f 8e 0d 01 00 00    	jle    8048c28 <u64f_fibonacci_recursive_cached+0x3a8>
 8048b1b:	8b 45 d8             	mov    -0x28(%ebp),%eax
 8048b1e:	c7 04 24 90 b0 04 08 	movl   $0x804b090,(%esp)
 8048b25:	89 44 24 04          	mov    %eax,0x4(%esp)
 8048b29:	e8 f2 0a 00 00       	call   8049620 <u64f_lcache_find>
 8048b2e:	89 d1                	mov    %edx,%ecx
 8048b30:	89 c2                	mov    %eax,%edx
 8048b32:	89 c8                	mov    %ecx,%eax
 8048b34:	09 d0                	or     %edx,%eax
 8048b36:	0f 84 3c 01 00 00    	je     8048c78 <u64f_fibonacci_recursive_cached+0x3f8>
 8048b3c:	03 55 e0             	add    -0x20(%ebp),%edx
 8048b3f:	13 4d e4             	adc    -0x1c(%ebp),%ecx
 8048b42:	89 7c 24 0c          	mov    %edi,0xc(%esp)
 8048b46:	89 54 24 04          	mov    %edx,0x4(%esp)
 8048b4a:	89 4c 24 08          	mov    %ecx,0x8(%esp)
 8048b4e:	89 55 b8             	mov    %edx,-0x48(%ebp)
 8048b51:	89 4d bc             	mov    %ecx,-0x44(%ebp)
 8048b54:	c7 04 24 90 b0 04 08 	movl   $0x804b090,(%esp)
 8048b5b:	e8 30 0a 00 00       	call   8049590 <s32f_lcache_add>
 8048b60:	8b 4d bc             	mov    -0x44(%ebp),%ecx
 8048b63:	8b 55 b8             	mov    -0x48(%ebp),%edx
 8048b66:	e9 27 fe ff ff       	jmp    8048992 <u64f_fibonacci_recursive_cached+0x112>
 8048b6b:	90                   	nop
 8048b6c:	8d 74 26 00          	lea    0x0(%esi,%eiz,1),%esi
 8048b70:	8b 5d 08             	mov    0x8(%ebp),%ebx
 8048b73:	31 f6                	xor    %esi,%esi
 8048b75:	e9 44 fd ff ff       	jmp    80488be <u64f_fibonacci_recursive_cached+0x3e>
 8048b7a:	8d b6 00 00 00 00    	lea    0x0(%esi),%esi
 8048b80:	8b 45 e0             	mov    -0x20(%ebp),%eax
 8048b83:	8b 55 e0             	mov    -0x20(%ebp),%edx
 8048b86:	c7 44 24 08 90 b0 04 	movl   $0x804b090,0x8(%esp)
 8048b8d:	08 
 8048b8e:	c7 44 24 04 01 00 00 	movl   $0x1,0x4(%esp)
 8048b95:	00 
 8048b96:	83 e0 01             	and    $0x1,%eax
 8048b99:	d1 ea                	shr    %edx
 8048b9b:	01 d0                	add    %edx,%eax
 8048b9d:	a3 8c b0 04 08       	mov    %eax,0x804b08c
 8048ba2:	89 04 24             	mov    %eax,(%esp)
 8048ba5:	e8 c6 08 00 00       	call   8049470 <s32f_lcache_init>
 8048baa:	83 f8 ff             	cmp    $0xffffffff,%eax
 8048bad:	75 21                	jne    8048bd0 <u64f_fibonacci_recursive_cached+0x350>
 8048baf:	8b 55 e0             	mov    -0x20(%ebp),%edx
 8048bb2:	c7 44 24 08 10 00 00 	movl   $0x10,0x8(%esp)
 8048bb9:	00 
 8048bba:	c7 04 24 20 9a 04 08 	movl   $0x8049a20,(%esp)
 8048bc1:	89 54 24 04          	mov    %edx,0x4(%esp)
 8048bc5:	e8 46 0b 00 00       	call   8049710 <uwarning>
 8048bca:	8d b6 00 00 00 00    	lea    0x0(%esi),%esi
 8048bd0:	8b 45 e0             	mov    -0x20(%ebp),%eax
 8048bd3:	83 e8 01             	sub    $0x1,%eax
 8048bd6:	89 04 24             	mov    %eax,(%esp)
 8048bd9:	e8 a2 fc ff ff       	call   8048880 <u64f_fibonacci_recursive_cached>
 8048bde:	89 45 d8             	mov    %eax,-0x28(%ebp)
 8048be1:	8b 45 e0             	mov    -0x20(%ebp),%eax
 8048be4:	89 55 dc             	mov    %edx,-0x24(%ebp)
 8048be7:	83 e8 02             	sub    $0x2,%eax
 8048bea:	89 04 24             	mov    %eax,(%esp)
 8048bed:	e8 8e fc ff ff       	call   8048880 <u64f_fibonacci_recursive_cached>
 8048bf2:	c7 04 24 90 b0 04 08 	movl   $0x804b090,(%esp)
 8048bf9:	89 d1                	mov    %edx,%ecx
 8048bfb:	89 c2                	mov    %eax,%edx
 8048bfd:	8b 45 e0             	mov    -0x20(%ebp),%eax
 8048c00:	03 55 d8             	add    -0x28(%ebp),%edx
 8048c03:	13 4d dc             	adc    -0x24(%ebp),%ecx
 8048c06:	89 54 24 04          	mov    %edx,0x4(%esp)
 8048c0a:	89 4c 24 08          	mov    %ecx,0x8(%esp)
 8048c0e:	89 55 b8             	mov    %edx,-0x48(%ebp)
 8048c11:	89 4d bc             	mov    %ecx,-0x44(%ebp)
 8048c14:	89 44 24 0c          	mov    %eax,0xc(%esp)
 8048c18:	e8 73 09 00 00       	call   8049590 <s32f_lcache_add>
 8048c1d:	8b 4d bc             	mov    -0x44(%ebp),%ecx
 8048c20:	8b 55 b8             	mov    -0x48(%ebp),%edx
 8048c23:	e9 3f fe ff ff       	jmp    8048a67 <u64f_fibonacci_recursive_cached+0x1e7>
 8048c28:	8b 45 d8             	mov    -0x28(%ebp),%eax
 8048c2b:	8b 55 d8             	mov    -0x28(%ebp),%edx
 8048c2e:	c7 44 24 08 90 b0 04 	movl   $0x804b090,0x8(%esp)
 8048c35:	08 
 8048c36:	c7 44 24 04 01 00 00 	movl   $0x1,0x4(%esp)
 8048c3d:	00 
 8048c3e:	83 e0 01             	and    $0x1,%eax
 8048c41:	d1 ea                	shr    %edx
 8048c43:	01 d0                	add    %edx,%eax
 8048c45:	a3 8c b0 04 08       	mov    %eax,0x804b08c
 8048c4a:	89 04 24             	mov    %eax,(%esp)
 8048c4d:	e8 1e 08 00 00       	call   8049470 <s32f_lcache_init>
 8048c52:	83 f8 ff             	cmp    $0xffffffff,%eax
 8048c55:	75 21                	jne    8048c78 <u64f_fibonacci_recursive_cached+0x3f8>
 8048c57:	8b 55 d8             	mov    -0x28(%ebp),%edx
 8048c5a:	c7 44 24 08 10 00 00 	movl   $0x10,0x8(%esp)
 8048c61:	00 
 8048c62:	c7 04 24 20 9a 04 08 	movl   $0x8049a20,(%esp)
 8048c69:	89 54 24 04          	mov    %edx,0x4(%esp)
 8048c6d:	e8 9e 0a 00 00       	call   8049710 <uwarning>
 8048c72:	8d b6 00 00 00 00    	lea    0x0(%esi),%esi
 8048c78:	8b 4d d8             	mov    -0x28(%ebp),%ecx
 8048c7b:	c7 45 d0 01 00 00 00 	movl   $0x1,-0x30(%ebp)
 8048c82:	c7 45 d4 00 00 00 00 	movl   $0x0,-0x2c(%ebp)
 8048c89:	83 e9 01             	sub    $0x1,%ecx
 8048c8c:	83 f9 01             	cmp    $0x1,%ecx
 8048c8f:	74 32                	je     8048cc3 <u64f_fibonacci_recursive_cached+0x443>
 8048c91:	8b 15 90 b0 04 08    	mov    0x804b090,%edx
 8048c97:	85 d2                	test   %edx,%edx
 8048c99:	0f 8e 13 03 00 00    	jle    8048fb2 <u64f_fibonacci_recursive_cached+0x732>
 8048c9f:	89 4c 24 04          	mov    %ecx,0x4(%esp)
 8048ca3:	89 4d bc             	mov    %ecx,-0x44(%ebp)
 8048ca6:	c7 04 24 90 b0 04 08 	movl   $0x804b090,(%esp)
 8048cad:	e8 6e 09 00 00       	call   8049620 <u64f_lcache_find>
 8048cb2:	8b 4d bc             	mov    -0x44(%ebp),%ecx
 8048cb5:	89 55 d4             	mov    %edx,-0x2c(%ebp)
 8048cb8:	09 c2                	or     %eax,%edx
 8048cba:	89 45 d0             	mov    %eax,-0x30(%ebp)
 8048cbd:	0f 84 3d 03 00 00    	je     8049000 <u64f_fibonacci_recursive_cached+0x780>
 8048cc3:	8b 55 d8             	mov    -0x28(%ebp),%edx
 8048cc6:	83 ea 02             	sub    $0x2,%edx
 8048cc9:	83 fa 01             	cmp    $0x1,%edx
 8048ccc:	89 55 c8             	mov    %edx,-0x38(%ebp)
 8048ccf:	0f 86 18 05 00 00    	jbe    80491ed <u64f_fibonacci_recursive_cached+0x96d>
 8048cd5:	a1 90 b0 04 08       	mov    0x804b090,%eax
 8048cda:	85 c0                	test   %eax,%eax
 8048cdc:	0f 8e 78 03 00 00    	jle    804905a <u64f_fibonacci_recursive_cached+0x7da>
 8048ce2:	8b 45 c8             	mov    -0x38(%ebp),%eax
 8048ce5:	c7 04 24 90 b0 04 08 	movl   $0x804b090,(%esp)
 8048cec:	89 44 24 04          	mov    %eax,0x4(%esp)
 8048cf0:	e8 2b 09 00 00       	call   8049620 <u64f_lcache_find>
 8048cf5:	89 d1                	mov    %edx,%ecx
 8048cf7:	89 c2                	mov    %eax,%edx
 8048cf9:	89 c8                	mov    %ecx,%eax
 8048cfb:	09 d0                	or     %edx,%eax
 8048cfd:	0f 84 a1 03 00 00    	je     80490a4 <u64f_fibonacci_recursive_cached+0x824>
 8048d03:	8b 45 d8             	mov    -0x28(%ebp),%eax
 8048d06:	03 55 d0             	add    -0x30(%ebp),%edx
 8048d09:	13 4d d4             	adc    -0x2c(%ebp),%ecx
 8048d0c:	c7 04 24 90 b0 04 08 	movl   $0x804b090,(%esp)
 8048d13:	89 54 24 04          	mov    %edx,0x4(%esp)
 8048d17:	89 4c 24 08          	mov    %ecx,0x8(%esp)
 8048d1b:	89 55 b8             	mov    %edx,-0x48(%ebp)
 8048d1e:	89 4d bc             	mov    %ecx,-0x44(%ebp)
 8048d21:	89 44 24 0c          	mov    %eax,0xc(%esp)
 8048d25:	e8 66 08 00 00       	call   8049590 <s32f_lcache_add>
 8048d2a:	8b 4d bc             	mov    -0x44(%ebp),%ecx
 8048d2d:	8b 55 b8             	mov    -0x48(%ebp),%edx
 8048d30:	e9 07 fe ff ff       	jmp    8048b3c <u64f_fibonacci_recursive_cached+0x2bc>
 8048d35:	8d 76 00             	lea    0x0(%esi),%esi
 8048d38:	8b 45 d8             	mov    -0x28(%ebp),%eax
 8048d3b:	8b 55 d8             	mov    -0x28(%ebp),%edx
 8048d3e:	c7 44 24 08 90 b0 04 	movl   $0x804b090,0x8(%esp)
 8048d45:	08 
 8048d46:	c7 44 24 04 01 00 00 	movl   $0x1,0x4(%esp)
 8048d4d:	00 
 8048d4e:	83 e0 01             	and    $0x1,%eax
 8048d51:	d1 ea                	shr    %edx
 8048d53:	01 d0                	add    %edx,%eax
 8048d55:	a3 8c b0 04 08       	mov    %eax,0x804b08c
 8048d5a:	89 04 24             	mov    %eax,(%esp)
 8048d5d:	e8 0e 07 00 00       	call   8049470 <s32f_lcache_init>
 8048d62:	83 f8 ff             	cmp    $0xffffffff,%eax
 8048d65:	75 21                	jne    8048d88 <u64f_fibonacci_recursive_cached+0x508>
 8048d67:	8b 45 d8             	mov    -0x28(%ebp),%eax
 8048d6a:	c7 44 24 08 10 00 00 	movl   $0x10,0x8(%esp)
 8048d71:	00 
 8048d72:	c7 04 24 20 9a 04 08 	movl   $0x8049a20,(%esp)
 8048d79:	89 44 24 04          	mov    %eax,0x4(%esp)
 8048d7d:	e8 8e 09 00 00       	call   8049710 <uwarning>
 8048d82:	8d b6 00 00 00 00    	lea    0x0(%esi),%esi
 8048d88:	8b 4d d8             	mov    -0x28(%ebp),%ecx
 8048d8b:	c7 45 e0 01 00 00 00 	movl   $0x1,-0x20(%ebp)
 8048d92:	c7 45 e4 00 00 00 00 	movl   $0x0,-0x1c(%ebp)
 8048d99:	83 e9 01             	sub    $0x1,%ecx
 8048d9c:	83 f9 01             	cmp    $0x1,%ecx
 8048d9f:	74 31                	je     8048dd2 <u64f_fibonacci_recursive_cached+0x552>
 8048da1:	a1 90 b0 04 08       	mov    0x804b090,%eax
 8048da6:	85 c0                	test   %eax,%eax
 8048da8:	0f 8e 5c 01 00 00    	jle    8048f0a <u64f_fibonacci_recursive_cached+0x68a>
 8048dae:	89 4c 24 04          	mov    %ecx,0x4(%esp)
 8048db2:	89 4d bc             	mov    %ecx,-0x44(%ebp)
 8048db5:	c7 04 24 90 b0 04 08 	movl   $0x804b090,(%esp)
 8048dbc:	e8 5f 08 00 00       	call   8049620 <u64f_lcache_find>
 8048dc1:	8b 4d bc             	mov    -0x44(%ebp),%ecx
 8048dc4:	89 55 e4             	mov    %edx,-0x1c(%ebp)
 8048dc7:	09 c2                	or     %eax,%edx
 8048dc9:	89 45 e0             	mov    %eax,-0x20(%ebp)
 8048dcc:	0f 84 86 01 00 00    	je     8048f58 <u64f_fibonacci_recursive_cached+0x6d8>
 8048dd2:	8b 4d d8             	mov    -0x28(%ebp),%ecx
 8048dd5:	83 e9 02             	sub    $0x2,%ecx
 8048dd8:	83 f9 01             	cmp    $0x1,%ecx
 8048ddb:	0f 86 fd 03 00 00    	jbe    80491de <u64f_fibonacci_recursive_cached+0x95e>
 8048de1:	a1 90 b0 04 08       	mov    0x804b090,%eax
 8048de6:	85 c0                	test   %eax,%eax
 8048de8:	0f 8e 0e 03 00 00    	jle    80490fc <u64f_fibonacci_recursive_cached+0x87c>
 8048dee:	89 4c 24 04          	mov    %ecx,0x4(%esp)
 8048df2:	89 4d bc             	mov    %ecx,-0x44(%ebp)
 8048df5:	c7 04 24 90 b0 04 08 	movl   $0x804b090,(%esp)
 8048dfc:	e8 1f 08 00 00       	call   8049620 <u64f_lcache_find>
 8048e01:	8b 4d bc             	mov    -0x44(%ebp),%ecx
 8048e04:	89 55 c4             	mov    %edx,-0x3c(%ebp)
 8048e07:	09 c2                	or     %eax,%edx
 8048e09:	89 45 c0             	mov    %eax,-0x40(%ebp)
 8048e0c:	0f 84 38 03 00 00    	je     804914a <u64f_fibonacci_recursive_cached+0x8ca>
 8048e12:	8b 45 e0             	mov    -0x20(%ebp),%eax
 8048e15:	8b 55 e4             	mov    -0x1c(%ebp),%edx
 8048e18:	03 45 c0             	add    -0x40(%ebp),%eax
 8048e1b:	13 55 c4             	adc    -0x3c(%ebp),%edx
 8048e1e:	c7 04 24 90 b0 04 08 	movl   $0x804b090,(%esp)
 8048e25:	89 45 e0             	mov    %eax,-0x20(%ebp)
 8048e28:	8b 45 e0             	mov    -0x20(%ebp),%eax
 8048e2b:	89 55 e4             	mov    %edx,-0x1c(%ebp)
 8048e2e:	8b 55 d8             	mov    -0x28(%ebp),%edx
 8048e31:	89 44 24 04          	mov    %eax,0x4(%esp)
 8048e35:	89 54 24 0c          	mov    %edx,0xc(%esp)
 8048e39:	8b 55 e4             	mov    -0x1c(%ebp),%edx
 8048e3c:	89 54 24 08          	mov    %edx,0x8(%esp)
 8048e40:	e8 4b 07 00 00       	call   8049590 <s32f_lcache_add>
 8048e45:	e9 b4 fc ff ff       	jmp    8048afe <u64f_fibonacci_recursive_cached+0x27e>
 8048e4a:	8d b6 00 00 00 00    	lea    0x0(%esi),%esi
 8048e50:	89 ca                	mov    %ecx,%edx
 8048e52:	89 c8                	mov    %ecx,%eax
 8048e54:	83 e2 01             	and    $0x1,%edx
 8048e57:	d1 e8                	shr    %eax
 8048e59:	8d 04 02             	lea    (%edx,%eax,1),%eax
 8048e5c:	89 4d bc             	mov    %ecx,-0x44(%ebp)
 8048e5f:	a3 8c b0 04 08       	mov    %eax,0x804b08c
 8048e64:	c7 44 24 08 90 b0 04 	movl   $0x804b090,0x8(%esp)
 8048e6b:	08 
 8048e6c:	c7 44 24 04 01 00 00 	movl   $0x1,0x4(%esp)
 8048e73:	00 
 8048e74:	89 04 24             	mov    %eax,(%esp)
 8048e77:	e8 f4 05 00 00       	call   8049470 <s32f_lcache_init>
 8048e7c:	8b 4d bc             	mov    -0x44(%ebp),%ecx
 8048e7f:	83 f8 ff             	cmp    $0xffffffff,%eax
 8048e82:	75 1c                	jne    8048ea0 <u64f_fibonacci_recursive_cached+0x620>
 8048e84:	89 4c 24 04          	mov    %ecx,0x4(%esp)
 8048e88:	c7 44 24 08 10 00 00 	movl   $0x10,0x8(%esp)
 8048e8f:	00 
 8048e90:	c7 04 24 20 9a 04 08 	movl   $0x8049a20,(%esp)
 8048e97:	e8 74 08 00 00       	call   8049710 <uwarning>
 8048e9c:	8b 4d bc             	mov    -0x44(%ebp),%ecx
 8048e9f:	90                   	nop
 8048ea0:	8d 41 ff             	lea    -0x1(%ecx),%eax
 8048ea3:	89 4d bc             	mov    %ecx,-0x44(%ebp)
 8048ea6:	89 04 24             	mov    %eax,(%esp)
 8048ea9:	e8 d2 f9 ff ff       	call   8048880 <u64f_fibonacci_recursive_cached>
 8048eae:	8b 4d bc             	mov    -0x44(%ebp),%ecx
 8048eb1:	89 45 e0             	mov    %eax,-0x20(%ebp)
 8048eb4:	8d 41 fe             	lea    -0x2(%ecx),%eax
 8048eb7:	89 55 e4             	mov    %edx,-0x1c(%ebp)
 8048eba:	89 04 24             	mov    %eax,(%esp)
 8048ebd:	e8 be f9 ff ff       	call   8048880 <u64f_fibonacci_recursive_cached>
 8048ec2:	8b 4d bc             	mov    -0x44(%ebp),%ecx
 8048ec5:	c7 04 24 90 b0 04 08 	movl   $0x804b090,(%esp)
 8048ecc:	89 4c 24 0c          	mov    %ecx,0xc(%esp)
 8048ed0:	89 d6                	mov    %edx,%esi
 8048ed2:	89 c3                	mov    %eax,%ebx
 8048ed4:	03 5d e0             	add    -0x20(%ebp),%ebx
 8048ed7:	13 75 e4             	adc    -0x1c(%ebp),%esi
 8048eda:	89 5c 24 04          	mov    %ebx,0x4(%esp)
 8048ede:	89 74 24 08          	mov    %esi,0x8(%esp)
 8048ee2:	e8 a9 06 00 00       	call   8049590 <s32f_lcache_add>
 8048ee7:	e9 3e fb ff ff       	jmp    8048a2a <u64f_fibonacci_recursive_cached+0x1aa>
 8048eec:	8d 74 26 00          	lea    0x0(%esi,%eiz,1),%esi
 8048ef0:	8b 55 e0             	mov    -0x20(%ebp),%edx
 8048ef3:	31 c9                	xor    %ecx,%ecx
 8048ef5:	e9 6d fb ff ff       	jmp    8048a67 <u64f_fibonacci_recursive_cached+0x1e7>
 8048efa:	8d b6 00 00 00 00    	lea    0x0(%esi),%esi
 8048f00:	8b 55 d8             	mov    -0x28(%ebp),%edx
 8048f03:	31 c9                	xor    %ecx,%ecx
 8048f05:	e9 32 fc ff ff       	jmp    8048b3c <u64f_fibonacci_recursive_cached+0x2bc>
 8048f0a:	89 c8                	mov    %ecx,%eax
 8048f0c:	89 ca                	mov    %ecx,%edx
 8048f0e:	d1 ea                	shr    %edx
 8048f10:	83 e0 01             	and    $0x1,%eax
 8048f13:	01 d0                	add    %edx,%eax
 8048f15:	89 4d bc             	mov    %ecx,-0x44(%ebp)
 8048f18:	a3 8c b0 04 08       	mov    %eax,0x804b08c
 8048f1d:	c7 44 24 08 90 b0 04 	movl   $0x804b090,0x8(%esp)
 8048f24:	08 
 8048f25:	c7 44 24 04 01 00 00 	movl   $0x1,0x4(%esp)
 8048f2c:	00 
 8048f2d:	89 04 24             	mov    %eax,(%esp)
 8048f30:	e8 3b 05 00 00       	call   8049470 <s32f_lcache_init>
 8048f35:	8b 4d bc             	mov    -0x44(%ebp),%ecx
 8048f38:	83 f8 ff             	cmp    $0xffffffff,%eax
 8048f3b:	75 1b                	jne    8048f58 <u64f_fibonacci_recursive_cached+0x6d8>
 8048f3d:	89 4c 24 04          	mov    %ecx,0x4(%esp)
 8048f41:	c7 44 24 08 10 00 00 	movl   $0x10,0x8(%esp)
 8048f48:	00 
 8048f49:	c7 04 24 20 9a 04 08 	movl   $0x8049a20,(%esp)
 8048f50:	e8 bb 07 00 00       	call   8049710 <uwarning>
 8048f55:	8b 4d bc             	mov    -0x44(%ebp),%ecx
 8048f58:	8d 41 ff             	lea    -0x1(%ecx),%eax
 8048f5b:	89 4d bc             	mov    %ecx,-0x44(%ebp)
 8048f5e:	89 04 24             	mov    %eax,(%esp)
 8048f61:	e8 1a f9 ff ff       	call   8048880 <u64f_fibonacci_recursive_cached>
 8048f66:	8b 4d bc             	mov    -0x44(%ebp),%ecx
 8048f69:	89 45 d0             	mov    %eax,-0x30(%ebp)
 8048f6c:	8d 41 fe             	lea    -0x2(%ecx),%eax
 8048f6f:	89 55 d4             	mov    %edx,-0x2c(%ebp)
 8048f72:	89 04 24             	mov    %eax,(%esp)
 8048f75:	e8 06 f9 ff ff       	call   8048880 <u64f_fibonacci_recursive_cached>
 8048f7a:	8b 4d bc             	mov    -0x44(%ebp),%ecx
 8048f7d:	c7 04 24 90 b0 04 08 	movl   $0x804b090,(%esp)
 8048f84:	89 4c 24 0c          	mov    %ecx,0xc(%esp)
 8048f88:	89 45 e0             	mov    %eax,-0x20(%ebp)
 8048f8b:	8b 45 d0             	mov    -0x30(%ebp),%eax
 8048f8e:	89 55 e4             	mov    %edx,-0x1c(%ebp)
 8048f91:	8b 55 d4             	mov    -0x2c(%ebp),%edx
 8048f94:	01 45 e0             	add    %eax,-0x20(%ebp)
 8048f97:	11 55 e4             	adc    %edx,-0x1c(%ebp)
 8048f9a:	8b 45 e0             	mov    -0x20(%ebp),%eax
 8048f9d:	8b 55 e4             	mov    -0x1c(%ebp),%edx
 8048fa0:	89 44 24 04          	mov    %eax,0x4(%esp)
 8048fa4:	89 54 24 08          	mov    %edx,0x8(%esp)
 8048fa8:	e8 e3 05 00 00       	call   8049590 <s32f_lcache_add>
 8048fad:	e9 20 fe ff ff       	jmp    8048dd2 <u64f_fibonacci_recursive_cached+0x552>
 8048fb2:	89 c8                	mov    %ecx,%eax
 8048fb4:	89 ca                	mov    %ecx,%edx
 8048fb6:	d1 ea                	shr    %edx
 8048fb8:	83 e0 01             	and    $0x1,%eax
 8048fbb:	01 d0                	add    %edx,%eax
 8048fbd:	89 4d bc             	mov    %ecx,-0x44(%ebp)
 8048fc0:	a3 8c b0 04 08       	mov    %eax,0x804b08c
 8048fc5:	c7 44 24 08 90 b0 04 	movl   $0x804b090,0x8(%esp)
 8048fcc:	08 
 8048fcd:	c7 44 24 04 01 00 00 	movl   $0x1,0x4(%esp)
 8048fd4:	00 
 8048fd5:	89 04 24             	mov    %eax,(%esp)
 8048fd8:	e8 93 04 00 00       	call   8049470 <s32f_lcache_init>
 8048fdd:	8b 4d bc             	mov    -0x44(%ebp),%ecx
 8048fe0:	83 f8 ff             	cmp    $0xffffffff,%eax
 8048fe3:	75 1b                	jne    8049000 <u64f_fibonacci_recursive_cached+0x780>
 8048fe5:	89 4c 24 04          	mov    %ecx,0x4(%esp)
 8048fe9:	c7 44 24 08 10 00 00 	movl   $0x10,0x8(%esp)
 8048ff0:	00 
 8048ff1:	c7 04 24 20 9a 04 08 	movl   $0x8049a20,(%esp)
 8048ff8:	e8 13 07 00 00       	call   8049710 <uwarning>
 8048ffd:	8b 4d bc             	mov    -0x44(%ebp),%ecx
 8049000:	8d 41 ff             	lea    -0x1(%ecx),%eax
 8049003:	89 4d bc             	mov    %ecx,-0x44(%ebp)
 8049006:	89 04 24             	mov    %eax,(%esp)
 8049009:	e8 72 f8 ff ff       	call   8048880 <u64f_fibonacci_recursive_cached>
 804900e:	8b 4d bc             	mov    -0x44(%ebp),%ecx
 8049011:	89 45 c8             	mov    %eax,-0x38(%ebp)
 8049014:	8d 41 fe             	lea    -0x2(%ecx),%eax
 8049017:	89 55 cc             	mov    %edx,-0x34(%ebp)
 804901a:	89 04 24             	mov    %eax,(%esp)
 804901d:	e8 5e f8 ff ff       	call   8048880 <u64f_fibonacci_recursive_cached>
 8049022:	8b 4d bc             	mov    -0x44(%ebp),%ecx
 8049025:	c7 04 24 90 b0 04 08 	movl   $0x804b090,(%esp)
 804902c:	89 4c 24 0c          	mov    %ecx,0xc(%esp)
 8049030:	89 45 d0             	mov    %eax,-0x30(%ebp)
 8049033:	8b 45 c8             	mov    -0x38(%ebp),%eax
 8049036:	89 55 d4             	mov    %edx,-0x2c(%ebp)
 8049039:	8b 55 cc             	mov    -0x34(%ebp),%edx
 804903c:	01 45 d0             	add    %eax,-0x30(%ebp)
 804903f:	11 55 d4             	adc    %edx,-0x2c(%ebp)
 8049042:	8b 45 d0             	mov    -0x30(%ebp),%eax
 8049045:	8b 55 d4             	mov    -0x2c(%ebp),%edx
 8049048:	89 44 24 04          	mov    %eax,0x4(%esp)
 804904c:	89 54 24 08          	mov    %edx,0x8(%esp)
 8049050:	e8 3b 05 00 00       	call   8049590 <s32f_lcache_add>
 8049055:	e9 69 fc ff ff       	jmp    8048cc3 <u64f_fibonacci_recursive_cached+0x443>
 804905a:	8b 45 c8             	mov    -0x38(%ebp),%eax
 804905d:	8b 55 c8             	mov    -0x38(%ebp),%edx
 8049060:	c7 44 24 08 90 b0 04 	movl   $0x804b090,0x8(%esp)
 8049067:	08 
 8049068:	c7 44 24 04 01 00 00 	movl   $0x1,0x4(%esp)
 804906f:	00 
 8049070:	83 e0 01             	and    $0x1,%eax
 8049073:	d1 ea                	shr    %edx
 8049075:	01 d0                	add    %edx,%eax
 8049077:	a3 8c b0 04 08       	mov    %eax,0x804b08c
 804907c:	89 04 24             	mov    %eax,(%esp)
 804907f:	e8 ec 03 00 00       	call   8049470 <s32f_lcache_init>
 8049084:	83 f8 ff             	cmp    $0xffffffff,%eax
 8049087:	75 1b                	jne    80490a4 <u64f_fibonacci_recursive_cached+0x824>
 8049089:	8b 55 c8             	mov    -0x38(%ebp),%edx
 804908c:	c7 44 24 08 10 00 00 	movl   $0x10,0x8(%esp)
 8049093:	00 
 8049094:	c7 04 24 20 9a 04 08 	movl   $0x8049a20,(%esp)
 804909b:	89 54 24 04          	mov    %edx,0x4(%esp)
 804909f:	e8 6c 06 00 00       	call   8049710 <uwarning>
 80490a4:	8b 45 c8             	mov    -0x38(%ebp),%eax
 80490a7:	83 e8 01             	sub    $0x1,%eax
 80490aa:	89 04 24             	mov    %eax,(%esp)
 80490ad:	e8 ce f7 ff ff       	call   8048880 <u64f_fibonacci_recursive_cached>
 80490b2:	89 45 c0             	mov    %eax,-0x40(%ebp)
 80490b5:	8b 45 c8             	mov    -0x38(%ebp),%eax
 80490b8:	89 55 c4             	mov    %edx,-0x3c(%ebp)
 80490bb:	83 e8 02             	sub    $0x2,%eax
 80490be:	89 04 24             	mov    %eax,(%esp)
 80490c1:	e8 ba f7 ff ff       	call   8048880 <u64f_fibonacci_recursive_cached>
 80490c6:	c7 04 24 90 b0 04 08 	movl   $0x804b090,(%esp)
 80490cd:	89 d1                	mov    %edx,%ecx
 80490cf:	89 c2                	mov    %eax,%edx
 80490d1:	8b 45 c8             	mov    -0x38(%ebp),%eax
 80490d4:	03 55 c0             	add    -0x40(%ebp),%edx
 80490d7:	13 4d c4             	adc    -0x3c(%ebp),%ecx
 80490da:	89 54 24 04          	mov    %edx,0x4(%esp)
 80490de:	89 4c 24 08          	mov    %ecx,0x8(%esp)
 80490e2:	89 55 b8             	mov    %edx,-0x48(%ebp)
 80490e5:	89 4d bc             	mov    %ecx,-0x44(%ebp)
 80490e8:	89 44 24 0c          	mov    %eax,0xc(%esp)
 80490ec:	e8 9f 04 00 00       	call   8049590 <s32f_lcache_add>
 80490f1:	8b 4d bc             	mov    -0x44(%ebp),%ecx
 80490f4:	8b 55 b8             	mov    -0x48(%ebp),%edx
 80490f7:	e9 07 fc ff ff       	jmp    8048d03 <u64f_fibonacci_recursive_cached+0x483>
 80490fc:	89 c8                	mov    %ecx,%eax
 80490fe:	89 ca                	mov    %ecx,%edx
 8049100:	d1 ea                	shr    %edx
 8049102:	83 e0 01             	and    $0x1,%eax
 8049105:	01 d0                	add    %edx,%eax
 8049107:	89 4d bc             	mov    %ecx,-0x44(%ebp)
 804910a:	a3 8c b0 04 08       	mov    %eax,0x804b08c
 804910f:	c7 44 24 08 90 b0 04 	movl   $0x804b090,0x8(%esp)
 8049116:	08 
 8049117:	c7 44 24 04 01 00 00 	movl   $0x1,0x4(%esp)
 804911e:	00 
 804911f:	89 04 24             	mov    %eax,(%esp)
 8049122:	e8 49 03 00 00       	call   8049470 <s32f_lcache_init>
 8049127:	8b 4d bc             	mov    -0x44(%ebp),%ecx
 804912a:	83 f8 ff             	cmp    $0xffffffff,%eax
 804912d:	75 1b                	jne    804914a <u64f_fibonacci_recursive_cached+0x8ca>
 804912f:	89 4c 24 04          	mov    %ecx,0x4(%esp)
 8049133:	c7 44 24 08 10 00 00 	movl   $0x10,0x8(%esp)
 804913a:	00 
 804913b:	c7 04 24 20 9a 04 08 	movl   $0x8049a20,(%esp)
 8049142:	e8 c9 05 00 00       	call   8049710 <uwarning>
 8049147:	8b 4d bc             	mov    -0x44(%ebp),%ecx
 804914a:	8d 41 ff             	lea    -0x1(%ecx),%eax
 804914d:	89 4d bc             	mov    %ecx,-0x44(%ebp)
 8049150:	89 04 24             	mov    %eax,(%esp)
 8049153:	e8 28 f7 ff ff       	call   8048880 <u64f_fibonacci_recursive_cached>
 8049158:	8b 4d bc             	mov    -0x44(%ebp),%ecx
 804915b:	89 45 c8             	mov    %eax,-0x38(%ebp)
 804915e:	8d 41 fe             	lea    -0x2(%ecx),%eax
 8049161:	89 55 cc             	mov    %edx,-0x34(%ebp)
 8049164:	89 04 24             	mov    %eax,(%esp)
 8049167:	e8 14 f7 ff ff       	call   8048880 <u64f_fibonacci_recursive_cached>
 804916c:	8b 4d bc             	mov    -0x44(%ebp),%ecx
 804916f:	c7 04 24 90 b0 04 08 	movl   $0x804b090,(%esp)
 8049176:	89 4c 24 0c          	mov    %ecx,0xc(%esp)
 804917a:	89 45 c0             	mov    %eax,-0x40(%ebp)
 804917d:	8b 45 c8             	mov    -0x38(%ebp),%eax
 8049180:	89 55 c4             	mov    %edx,-0x3c(%ebp)
 8049183:	8b 55 cc             	mov    -0x34(%ebp),%edx
 8049186:	01 45 c0             	add    %eax,-0x40(%ebp)
 8049189:	11 55 c4             	adc    %edx,-0x3c(%ebp)
 804918c:	8b 45 c0             	mov    -0x40(%ebp),%eax
 804918f:	8b 55 c4             	mov    -0x3c(%ebp),%edx
 8049192:	89 44 24 04          	mov    %eax,0x4(%esp)
 8049196:	89 54 24 08          	mov    %edx,0x8(%esp)
 804919a:	e8 f1 03 00 00       	call   8049590 <s32f_lcache_add>
 804919f:	e9 6e fc ff ff       	jmp    8048e12 <u64f_fibonacci_recursive_cached+0x592>
 80491a4:	c7 44 24 08 10 00 00 	movl   $0x10,0x8(%esp)
 80491ab:	00 
 80491ac:	89 7c 24 04          	mov    %edi,0x4(%esp)
 80491b0:	c7 04 24 20 9a 04 08 	movl   $0x8049a20,(%esp)
 80491b7:	e8 54 05 00 00       	call   8049710 <uwarning>
 80491bc:	e9 29 f8 ff ff       	jmp    80489ea <u64f_fibonacci_recursive_cached+0x16a>
 80491c1:	c7 44 24 08 10 00 00 	movl   $0x10,0x8(%esp)
 80491c8:	00 
 80491c9:	89 7c 24 04          	mov    %edi,0x4(%esp)
 80491cd:	c7 04 24 20 9a 04 08 	movl   $0x8049a20,(%esp)
 80491d4:	e8 37 05 00 00       	call   8049710 <uwarning>
 80491d9:	e9 dc f8 ff ff       	jmp    8048aba <u64f_fibonacci_recursive_cached+0x23a>
 80491de:	89 4d c0             	mov    %ecx,-0x40(%ebp)
 80491e1:	c7 45 c4 00 00 00 00 	movl   $0x0,-0x3c(%ebp)
 80491e8:	e9 25 fc ff ff       	jmp    8048e12 <u64f_fibonacci_recursive_cached+0x592>
 80491ed:	8b 55 c8             	mov    -0x38(%ebp),%edx
 80491f0:	31 c9                	xor    %ecx,%ecx
 80491f2:	e9 0c fb ff ff       	jmp    8048d03 <u64f_fibonacci_recursive_cached+0x483>
 80491f7:	89 f6                	mov    %esi,%esi
 80491f9:	8d bc 27 00 00 00 00 	lea    0x0(%edi,%eiz,1),%edi

08049200 <u64f_fibonacci_seq>:
 8049200:	55                   	push   %ebp
 8049201:	89 e5                	mov    %esp,%ebp
 8049203:	56                   	push   %esi
 8049204:	31 f6                	xor    %esi,%esi
 8049206:	53                   	push   %ebx
 8049207:	83 ec 08             	sub    $0x8,%esp
 804920a:	8b 5d 08             	mov    0x8(%ebp),%ebx
 804920d:	83 fb 01             	cmp    $0x1,%ebx
 8049210:	76 3a                	jbe    804924c <u64f_fibonacci_seq+0x4c>
 8049212:	89 d8                	mov    %ebx,%eax
 8049214:	ba 01 00 00 00       	mov    $0x1,%edx
 8049219:	31 c9                	xor    %ecx,%ecx
 804921b:	c7 45 f0 00 00 00 00 	movl   $0x0,-0x10(%ebp)
 8049222:	c7 45 f4 00 00 00 00 	movl   $0x0,-0xc(%ebp)
 8049229:	eb 0f                	jmp    804923a <u64f_fibonacci_seq+0x3a>
 804922b:	90                   	nop
 804922c:	8d 74 26 00          	lea    0x0(%esi,%eiz,1),%esi
 8049230:	89 55 f0             	mov    %edx,-0x10(%ebp)
 8049233:	89 da                	mov    %ebx,%edx
 8049235:	89 4d f4             	mov    %ecx,-0xc(%ebp)
 8049238:	89 f1                	mov    %esi,%ecx
 804923a:	8b 5d f0             	mov    -0x10(%ebp),%ebx
 804923d:	8b 75 f4             	mov    -0xc(%ebp),%esi
 8049240:	01 d3                	add    %edx,%ebx
 8049242:	11 ce                	adc    %ecx,%esi
 8049244:	83 e8 01             	sub    $0x1,%eax
 8049247:	83 f8 01             	cmp    $0x1,%eax
 804924a:	75 e4                	jne    8049230 <u64f_fibonacci_seq+0x30>
 804924c:	83 c4 08             	add    $0x8,%esp
 804924f:	89 d8                	mov    %ebx,%eax
 8049251:	89 f2                	mov    %esi,%edx
 8049253:	5b                   	pop    %ebx
 8049254:	5e                   	pop    %esi
 8049255:	5d                   	pop    %ebp
 8049256:	c3                   	ret    
 8049257:	89 f6                	mov    %esi,%esi
 8049259:	8d bc 27 00 00 00 00 	lea    0x0(%edi,%eiz,1),%edi

08049260 <s32f_fibonacci_app>:
 8049260:	55                   	push   %ebp
 8049261:	89 e5                	mov    %esp,%ebp
 8049263:	57                   	push   %edi
 8049264:	56                   	push   %esi
 8049265:	53                   	push   %ebx
 8049266:	83 ec 4c             	sub    $0x4c,%esp
 8049269:	8b 7d 0c             	mov    0xc(%ebp),%edi
 804926c:	8d 45 e4             	lea    -0x1c(%ebp),%eax
 804926f:	89 44 24 08          	mov    %eax,0x8(%esp)
 8049273:	8b 45 08             	mov    0x8(%ebp),%eax
 8049276:	c7 45 e4 00 00 00 00 	movl   $0x0,-0x1c(%ebp)
 804927d:	89 7c 24 04          	mov    %edi,0x4(%esp)
 8049281:	89 04 24             	mov    %eax,(%esp)
 8049284:	e8 47 05 00 00       	call   80497d0 <s32f_parse_args>
 8049289:	89 c3                	mov    %eax,%ebx
 804928b:	31 c0                	xor    %eax,%eax
 804928d:	83 fb ff             	cmp    $0xffffffff,%ebx
 8049290:	0f 84 a0 00 00 00    	je     8049336 <s32f_fibonacci_app+0xd6>
 8049296:	f6 c3 01             	test   $0x1,%bl
 8049299:	0f 84 a1 00 00 00    	je     8049340 <s32f_fibonacci_app+0xe0>
 804929f:	31 ff                	xor    %edi,%edi
 80492a1:	f6 c3 08             	test   $0x8,%bl
 80492a4:	c7 45 c8 00 00 00 00 	movl   $0x0,-0x38(%ebp)
 80492ab:	c7 45 cc 00 00 00 00 	movl   $0x0,-0x34(%ebp)
 80492b2:	74 23                	je     80492d7 <s32f_fibonacci_app+0x77>
 80492b4:	e8 d7 05 00 00       	call   8049890 <u64f_gettime_msec>
 80492b9:	66 bf 01 00          	mov    $0x1,%di
 80492bd:	c7 04 24 4c 9b 04 08 	movl   $0x8049b4c,(%esp)
 80492c4:	89 45 c8             	mov    %eax,-0x38(%ebp)
 80492c7:	89 55 cc             	mov    %edx,-0x34(%ebp)
 80492ca:	89 44 24 04          	mov    %eax,0x4(%esp)
 80492ce:	89 54 24 08          	mov    %edx,0x8(%esp)
 80492d2:	e8 d9 03 00 00       	call   80496b0 <umessage>
 80492d7:	f6 c3 02             	test   $0x2,%bl
 80492da:	0f 84 80 00 00 00    	je     8049360 <s32f_fibonacci_app+0x100>
 80492e0:	c7 04 24 70 9a 04 08 	movl   $0x8049a70,(%esp)
 80492e7:	e8 c4 03 00 00       	call   80496b0 <umessage>
 80492ec:	83 e3 04             	and    $0x4,%ebx
 80492ef:	0f 84 43 01 00 00    	je     8049438 <s32f_fibonacci_app+0x1d8>
 80492f5:	c7 04 24 9c 9a 04 08 	movl   $0x8049a9c,(%esp)
 80492fc:	e8 af 03 00 00       	call   80496b0 <umessage>
 8049301:	8b 45 e4             	mov    -0x1c(%ebp),%eax
 8049304:	89 04 24             	mov    %eax,(%esp)
 8049307:	e8 74 f5 ff ff       	call   8048880 <u64f_fibonacci_recursive_cached>
 804930c:	89 c3                	mov    %eax,%ebx
 804930e:	89 d6                	mov    %edx,%esi
 8049310:	83 ff 01             	cmp    $0x1,%edi
 8049313:	0f 84 a4 00 00 00    	je     80493bd <s32f_fibonacci_app+0x15d>
 8049319:	8b 45 e4             	mov    -0x1c(%ebp),%eax
 804931c:	89 5c 24 08          	mov    %ebx,0x8(%esp)
 8049320:	89 74 24 0c          	mov    %esi,0xc(%esp)
 8049324:	c7 04 24 f4 9a 04 08 	movl   $0x8049af4,(%esp)
 804932b:	89 44 24 04          	mov    %eax,0x4(%esp)
 804932f:	e8 7c 03 00 00       	call   80496b0 <umessage>
 8049334:	31 c0                	xor    %eax,%eax
 8049336:	83 c4 4c             	add    $0x4c,%esp
 8049339:	5b                   	pop    %ebx
 804933a:	5e                   	pop    %esi
 804933b:	5f                   	pop    %edi
 804933c:	5d                   	pop    %ebp
 804933d:	c3                   	ret    
 804933e:	66 90                	xchg   %ax,%ax
 8049340:	8b 07                	mov    (%edi),%eax
 8049342:	c7 04 24 1c 9b 04 08 	movl   $0x8049b1c,(%esp)
 8049349:	89 44 24 04          	mov    %eax,0x4(%esp)
 804934d:	e8 1e 04 00 00       	call   8049770 <uerror>
 8049352:	83 c4 4c             	add    $0x4c,%esp
 8049355:	b8 ff ff ff ff       	mov    $0xffffffff,%eax
 804935a:	5b                   	pop    %ebx
 804935b:	5e                   	pop    %esi
 804935c:	5f                   	pop    %edi
 804935d:	5d                   	pop    %ebp
 804935e:	c3                   	ret    
 804935f:	90                   	nop
 8049360:	c7 04 24 c8 9a 04 08 	movl   $0x8049ac8,(%esp)
 8049367:	31 f6                	xor    %esi,%esi
 8049369:	e8 42 03 00 00       	call   80496b0 <umessage>
 804936e:	8b 4d e4             	mov    -0x1c(%ebp),%ecx
 8049371:	31 d2                	xor    %edx,%edx
 8049373:	c7 45 d0 00 00 00 00 	movl   $0x0,-0x30(%ebp)
 804937a:	b8 01 00 00 00       	mov    $0x1,%eax
 804937f:	c7 45 d4 00 00 00 00 	movl   $0x0,-0x2c(%ebp)
 8049386:	83 f9 01             	cmp    $0x1,%ecx
 8049389:	89 cb                	mov    %ecx,%ebx
 804938b:	77 15                	ja     80493a2 <s32f_fibonacci_app+0x142>
 804938d:	e9 7e ff ff ff       	jmp    8049310 <s32f_fibonacci_app+0xb0>
 8049392:	8d b6 00 00 00 00    	lea    0x0(%esi),%esi
 8049398:	89 45 d0             	mov    %eax,-0x30(%ebp)
 804939b:	89 d8                	mov    %ebx,%eax
 804939d:	89 55 d4             	mov    %edx,-0x2c(%ebp)
 80493a0:	89 f2                	mov    %esi,%edx
 80493a2:	8b 5d d0             	mov    -0x30(%ebp),%ebx
 80493a5:	8b 75 d4             	mov    -0x2c(%ebp),%esi
 80493a8:	01 c3                	add    %eax,%ebx
 80493aa:	11 d6                	adc    %edx,%esi
 80493ac:	83 e9 01             	sub    $0x1,%ecx
 80493af:	83 f9 01             	cmp    $0x1,%ecx
 80493b2:	75 e4                	jne    8049398 <s32f_fibonacci_app+0x138>
 80493b4:	83 ff 01             	cmp    $0x1,%edi
 80493b7:	0f 85 5c ff ff ff    	jne    8049319 <s32f_fibonacci_app+0xb9>
 80493bd:	e8 ce 04 00 00       	call   8049890 <u64f_gettime_msec>
 80493c2:	c7 04 24 5c 9b 04 08 	movl   $0x8049b5c,(%esp)
 80493c9:	89 44 24 04          	mov    %eax,0x4(%esp)
 80493cd:	89 54 24 08          	mov    %edx,0x8(%esp)
 80493d1:	89 45 c4             	mov    %eax,-0x3c(%ebp)
 80493d4:	89 55 c0             	mov    %edx,-0x40(%ebp)
 80493d7:	e8 d4 02 00 00       	call   80496b0 <umessage>
 80493dc:	8b 4d e4             	mov    -0x1c(%ebp),%ecx
 80493df:	89 5c 24 08          	mov    %ebx,0x8(%esp)
 80493e3:	89 74 24 0c          	mov    %esi,0xc(%esp)
 80493e7:	c7 04 24 f4 9a 04 08 	movl   $0x8049af4,(%esp)
 80493ee:	89 4c 24 04          	mov    %ecx,0x4(%esp)
 80493f2:	e8 b9 02 00 00       	call   80496b0 <umessage>
 80493f7:	8b 4d c8             	mov    -0x38(%ebp),%ecx
 80493fa:	8b 5d cc             	mov    -0x34(%ebp),%ebx
 80493fd:	8b 45 c4             	mov    -0x3c(%ebp),%eax
 8049400:	8b 55 c0             	mov    -0x40(%ebp),%edx
 8049403:	89 4c 24 08          	mov    %ecx,0x8(%esp)
 8049407:	89 5c 24 0c          	mov    %ebx,0xc(%esp)
 804940b:	89 04 24             	mov    %eax,(%esp)
 804940e:	89 54 24 04          	mov    %edx,0x4(%esp)
 8049412:	e8 b9 04 00 00       	call   80498d0 <u64f_getdelta>
 8049417:	c7 04 24 6c 9b 04 08 	movl   $0x8049b6c,(%esp)
 804941e:	89 44 24 04          	mov    %eax,0x4(%esp)
 8049422:	89 54 24 08          	mov    %edx,0x8(%esp)
 8049426:	e8 85 02 00 00       	call   80496b0 <umessage>
 804942b:	83 c4 4c             	add    $0x4c,%esp
 804942e:	31 c0                	xor    %eax,%eax
 8049430:	5b                   	pop    %ebx
 8049431:	5e                   	pop    %esi
 8049432:	5f                   	pop    %edi
 8049433:	5d                   	pop    %ebp
 8049434:	c3                   	ret    
 8049435:	8d 76 00             	lea    0x0(%esi),%esi
 8049438:	8b 45 e4             	mov    -0x1c(%ebp),%eax
 804943b:	89 04 24             	mov    %eax,(%esp)
 804943e:	e8 4d f1 ff ff       	call   8048590 <u64f_fibonacci_recursive>
 8049443:	89 c3                	mov    %eax,%ebx
 8049445:	89 d6                	mov    %edx,%esi
 8049447:	e9 c4 fe ff ff       	jmp    8049310 <s32f_fibonacci_app+0xb0>
 804944c:	8d 74 26 00          	lea    0x0(%esi,%eiz,1),%esi

08049450 <main>:
 8049450:	55                   	push   %ebp
 8049451:	89 e5                	mov    %esp,%ebp
 8049453:	83 e4 f0             	and    $0xfffffff0,%esp
 8049456:	83 ec 10             	sub    $0x10,%esp
 8049459:	8b 45 0c             	mov    0xc(%ebp),%eax
 804945c:	89 44 24 04          	mov    %eax,0x4(%esp)
 8049460:	8b 45 08             	mov    0x8(%ebp),%eax
 8049463:	89 04 24             	mov    %eax,(%esp)
 8049466:	e8 f5 fd ff ff       	call   8049260 <s32f_fibonacci_app>
 804946b:	c9                   	leave  
 804946c:	c3                   	ret    
 804946d:	90                   	nop
 804946e:	90                   	nop
 804946f:	90                   	nop

08049470 <s32f_lcache_init>:
 8049470:	55                   	push   %ebp
 8049471:	89 e5                	mov    %esp,%ebp
 8049473:	83 ec 38             	sub    $0x38,%esp
 8049476:	83 7d 0c ff          	cmpl   $0xffffffff,0xc(%ebp)
 804947a:	89 75 f8             	mov    %esi,-0x8(%ebp)
 804947d:	8b 75 10             	mov    0x10(%ebp),%esi
 8049480:	89 7d fc             	mov    %edi,-0x4(%ebp)
 8049483:	8b 7d 08             	mov    0x8(%ebp),%edi
 8049486:	89 5d f4             	mov    %ebx,-0xc(%ebp)
 8049489:	75 15                	jne    80494a0 <s32f_lcache_init+0x30>
 804948b:	bb ff ff ff ff       	mov    $0xffffffff,%ebx
 8049490:	89 d8                	mov    %ebx,%eax
 8049492:	8b 75 f8             	mov    -0x8(%ebp),%esi
 8049495:	8b 5d f4             	mov    -0xc(%ebp),%ebx
 8049498:	8b 7d fc             	mov    -0x4(%ebp),%edi
 804949b:	89 ec                	mov    %ebp,%esp
 804949d:	5d                   	pop    %ebp
 804949e:	c3                   	ret    
 804949f:	90                   	nop
 80494a0:	85 ff                	test   %edi,%edi
 80494a2:	7e e7                	jle    804948b <s32f_lcache_init+0x1b>
 80494a4:	85 f6                	test   %esi,%esi
 80494a6:	bb ff ff ff ff       	mov    $0xffffffff,%ebx
 80494ab:	74 e3                	je     8049490 <s32f_lcache_init+0x20>
 80494ad:	8d 04 fd 01 00 00 00 	lea    0x1(,%edi,8),%eax
 80494b4:	89 04 24             	mov    %eax,(%esp)
 80494b7:	e8 00 f0 ff ff       	call   80484bc <malloc@plt>
 80494bc:	85 c0                	test   %eax,%eax
 80494be:	89 c2                	mov    %eax,%edx
 80494c0:	89 46 04             	mov    %eax,0x4(%esi)
 80494c3:	74 cb                	je     8049490 <s32f_lcache_init+0x20>
 80494c5:	8d 04 bd 01 00 00 00 	lea    0x1(,%edi,4),%eax
 80494cc:	89 55 e4             	mov    %edx,-0x1c(%ebp)
 80494cf:	89 04 24             	mov    %eax,(%esp)
 80494d2:	e8 e5 ef ff ff       	call   80484bc <malloc@plt>
 80494d7:	8b 55 e4             	mov    -0x1c(%ebp),%edx
 80494da:	85 c0                	test   %eax,%eax
 80494dc:	89 46 08             	mov    %eax,0x8(%esi)
 80494df:	74 33                	je     8049514 <s32f_lcache_init+0xa4>
 80494e1:	89 3e                	mov    %edi,(%esi)
 80494e3:	31 c9                	xor    %ecx,%ecx
 80494e5:	c7 46 0c 00 00 00 00 	movl   $0x0,0xc(%esi)
 80494ec:	c6 46 10 00          	movb   $0x0,0x10(%esi)
 80494f0:	c7 04 88 00 00 00 00 	movl   $0x0,(%eax,%ecx,4)
 80494f7:	c7 04 ca 00 00 00 00 	movl   $0x0,(%edx,%ecx,8)
 80494fe:	c7 44 ca 04 00 00 00 	movl   $0x0,0x4(%edx,%ecx,8)
 8049505:	00 
 8049506:	83 c1 01             	add    $0x1,%ecx
 8049509:	39 0e                	cmp    %ecx,(%esi)
 804950b:	7f e3                	jg     80494f0 <s32f_lcache_init+0x80>
 804950d:	31 db                	xor    %ebx,%ebx
 804950f:	e9 7c ff ff ff       	jmp    8049490 <s32f_lcache_init+0x20>
 8049514:	89 14 24             	mov    %edx,(%esp)
 8049517:	e8 60 ef ff ff       	call   804847c <free@plt>
 804951c:	e9 6f ff ff ff       	jmp    8049490 <s32f_lcache_init+0x20>
 8049521:	eb 0d                	jmp    8049530 <s32f_lcache_free>
 8049523:	90                   	nop
 8049524:	90                   	nop
 8049525:	90                   	nop
 8049526:	90                   	nop
 8049527:	90                   	nop
 8049528:	90                   	nop
 8049529:	90                   	nop
 804952a:	90                   	nop
 804952b:	90                   	nop
 804952c:	90                   	nop
 804952d:	90                   	nop
 804952e:	90                   	nop
 804952f:	90                   	nop

08049530 <s32f_lcache_free>:
 8049530:	55                   	push   %ebp
 8049531:	b8 ff ff ff ff       	mov    $0xffffffff,%eax
 8049536:	89 e5                	mov    %esp,%ebp
 8049538:	53                   	push   %ebx
 8049539:	83 ec 14             	sub    $0x14,%esp
 804953c:	8b 5d 08             	mov    0x8(%ebp),%ebx
 804953f:	85 db                	test   %ebx,%ebx
 8049541:	75 0d                	jne    8049550 <s32f_lcache_free+0x20>
 8049543:	83 c4 14             	add    $0x14,%esp
 8049546:	5b                   	pop    %ebx
 8049547:	5d                   	pop    %ebp
 8049548:	c3                   	ret    
 8049549:	8d b4 26 00 00 00 00 	lea    0x0(%esi,%eiz,1),%esi
 8049550:	8b 53 08             	mov    0x8(%ebx),%edx
 8049553:	85 d2                	test   %edx,%edx
 8049555:	74 ec                	je     8049543 <s32f_lcache_free+0x13>
 8049557:	8b 4b 04             	mov    0x4(%ebx),%ecx
 804955a:	85 c9                	test   %ecx,%ecx
 804955c:	74 e5                	je     8049543 <s32f_lcache_free+0x13>
 804955e:	89 14 24             	mov    %edx,(%esp)
 8049561:	e8 16 ef ff ff       	call   804847c <free@plt>
 8049566:	8b 43 04             	mov    0x4(%ebx),%eax
 8049569:	89 04 24             	mov    %eax,(%esp)
 804956c:	e8 0b ef ff ff       	call   804847c <free@plt>
 8049571:	31 c0                	xor    %eax,%eax
 8049573:	c7 03 00 00 00 00    	movl   $0x0,(%ebx)
 8049579:	c7 43 0c 00 00 00 00 	movl   $0x0,0xc(%ebx)
 8049580:	c6 43 10 00          	movb   $0x0,0x10(%ebx)
 8049584:	eb bd                	jmp    8049543 <s32f_lcache_free+0x13>
 8049586:	8d 76 00             	lea    0x0(%esi),%esi
 8049589:	8d bc 27 00 00 00 00 	lea    0x0(%edi,%eiz,1),%edi

08049590 <s32f_lcache_add>:
 8049590:	55                   	push   %ebp
 8049591:	89 e5                	mov    %esp,%ebp
 8049593:	83 ec 0c             	sub    $0xc,%esp
 8049596:	8b 4d 0c             	mov    0xc(%ebp),%ecx
 8049599:	8b 55 10             	mov    0x10(%ebp),%edx
 804959c:	89 1c 24             	mov    %ebx,(%esp)
 804959f:	8b 5d 08             	mov    0x8(%ebp),%ebx
 80495a2:	89 74 24 04          	mov    %esi,0x4(%esp)
 80495a6:	8b 75 14             	mov    0x14(%ebp),%esi
 80495a9:	89 c8                	mov    %ecx,%eax
 80495ab:	09 d0                	or     %edx,%eax
 80495ad:	89 7c 24 08          	mov    %edi,0x8(%esp)
 80495b1:	75 15                	jne    80495c8 <s32f_lcache_add+0x38>
 80495b3:	b8 ff ff ff ff       	mov    $0xffffffff,%eax
 80495b8:	8b 1c 24             	mov    (%esp),%ebx
 80495bb:	8b 74 24 04          	mov    0x4(%esp),%esi
 80495bf:	8b 7c 24 08          	mov    0x8(%esp),%edi
 80495c3:	89 ec                	mov    %ebp,%esp
 80495c5:	5d                   	pop    %ebp
 80495c6:	c3                   	ret    
 80495c7:	90                   	nop
 80495c8:	85 db                	test   %ebx,%ebx
 80495ca:	74 e7                	je     80495b3 <s32f_lcache_add+0x23>
 80495cc:	85 f6                	test   %esi,%esi
 80495ce:	b8 ff ff ff ff       	mov    $0xffffffff,%eax
 80495d3:	74 e3                	je     80495b8 <s32f_lcache_add+0x28>
 80495d5:	8b 7b 0c             	mov    0xc(%ebx),%edi
 80495d8:	3b 3b                	cmp    (%ebx),%edi
 80495da:	7f dc                	jg     80495b8 <s32f_lcache_add+0x28>
 80495dc:	74 2b                	je     8049609 <s32f_lcache_add+0x79>
 80495de:	8b 43 04             	mov    0x4(%ebx),%eax
 80495e1:	89 54 f8 04          	mov    %edx,0x4(%eax,%edi,8)
 80495e5:	89 0c f8             	mov    %ecx,(%eax,%edi,8)
 80495e8:	8b 43 08             	mov    0x8(%ebx),%eax
 80495eb:	89 34 b8             	mov    %esi,(%eax,%edi,4)
 80495ee:	8b 53 0c             	mov    0xc(%ebx),%edx
 80495f1:	31 c0                	xor    %eax,%eax
 80495f3:	83 c2 01             	add    $0x1,%edx
 80495f6:	80 7b 10 00          	cmpb   $0x0,0x10(%ebx)
 80495fa:	89 53 0c             	mov    %edx,0xc(%ebx)
 80495fd:	75 b9                	jne    80495b8 <s32f_lcache_add+0x28>
 80495ff:	3b 13                	cmp    (%ebx),%edx
 8049601:	75 b5                	jne    80495b8 <s32f_lcache_add+0x28>
 8049603:	c6 43 10 01          	movb   $0x1,0x10(%ebx)
 8049607:	eb af                	jmp    80495b8 <s32f_lcache_add+0x28>
 8049609:	80 7b 10 01          	cmpb   $0x1,0x10(%ebx)
 804960d:	75 cf                	jne    80495de <s32f_lcache_add+0x4e>
 804960f:	c7 43 0c 00 00 00 00 	movl   $0x0,0xc(%ebx)
 8049616:	31 ff                	xor    %edi,%edi
 8049618:	eb c4                	jmp    80495de <s32f_lcache_add+0x4e>
 804961a:	8d b6 00 00 00 00    	lea    0x0(%esi),%esi

08049620 <u64f_lcache_find>:
 8049620:	55                   	push   %ebp
 8049621:	89 e5                	mov    %esp,%ebp
 8049623:	56                   	push   %esi
 8049624:	53                   	push   %ebx
 8049625:	83 ec 08             	sub    $0x8,%esp
 8049628:	8b 55 0c             	mov    0xc(%ebp),%edx
 804962b:	8b 75 08             	mov    0x8(%ebp),%esi
 804962e:	85 d2                	test   %edx,%edx
 8049630:	74 32                	je     8049664 <u64f_lcache_find+0x44>
 8049632:	85 f6                	test   %esi,%esi
 8049634:	74 2e                	je     8049664 <u64f_lcache_find+0x44>
 8049636:	8b 0e                	mov    (%esi),%ecx
 8049638:	c7 45 f0 00 00 00 00 	movl   $0x0,-0x10(%ebp)
 804963f:	c7 45 f4 00 00 00 00 	movl   $0x0,-0xc(%ebp)
 8049646:	85 c9                	test   %ecx,%ecx
 8049648:	7e 28                	jle    8049672 <u64f_lcache_find+0x52>
 804964a:	8b 5e 08             	mov    0x8(%esi),%ebx
 804964d:	31 c0                	xor    %eax,%eax
 804964f:	39 13                	cmp    %edx,(%ebx)
 8049651:	75 0a                	jne    804965d <u64f_lcache_find+0x3d>
 8049653:	eb 4b                	jmp    80496a0 <u64f_lcache_find+0x80>
 8049655:	8d 76 00             	lea    0x0(%esi),%esi
 8049658:	39 14 83             	cmp    %edx,(%ebx,%eax,4)
 804965b:	74 23                	je     8049680 <u64f_lcache_find+0x60>
 804965d:	83 c0 01             	add    $0x1,%eax
 8049660:	39 c8                	cmp    %ecx,%eax
 8049662:	7c f4                	jl     8049658 <u64f_lcache_find+0x38>
 8049664:	c7 45 f0 00 00 00 00 	movl   $0x0,-0x10(%ebp)
 804966b:	c7 45 f4 00 00 00 00 	movl   $0x0,-0xc(%ebp)
 8049672:	8b 45 f0             	mov    -0x10(%ebp),%eax
 8049675:	8b 55 f4             	mov    -0xc(%ebp),%edx
 8049678:	83 c4 08             	add    $0x8,%esp
 804967b:	5b                   	pop    %ebx
 804967c:	5e                   	pop    %esi
 804967d:	5d                   	pop    %ebp
 804967e:	c3                   	ret    
 804967f:	90                   	nop
 8049680:	c1 e0 03             	shl    $0x3,%eax
 8049683:	8b 56 04             	mov    0x4(%esi),%edx
 8049686:	8b 5c 02 04          	mov    0x4(%edx,%eax,1),%ebx
 804968a:	8b 0c 02             	mov    (%edx,%eax,1),%ecx
 804968d:	89 5d f4             	mov    %ebx,-0xc(%ebp)
 8049690:	8b 55 f4             	mov    -0xc(%ebp),%edx
 8049693:	89 4d f0             	mov    %ecx,-0x10(%ebp)
 8049696:	8b 45 f0             	mov    -0x10(%ebp),%eax
 8049699:	83 c4 08             	add    $0x8,%esp
 804969c:	5b                   	pop    %ebx
 804969d:	5e                   	pop    %esi
 804969e:	5d                   	pop    %ebp
 804969f:	c3                   	ret    
 80496a0:	31 c0                	xor    %eax,%eax
 80496a2:	eb df                	jmp    8049683 <u64f_lcache_find+0x63>
 80496a4:	90                   	nop
 80496a5:	90                   	nop
 80496a6:	90                   	nop
 80496a7:	90                   	nop
 80496a8:	90                   	nop
 80496a9:	90                   	nop
 80496aa:	90                   	nop
 80496ab:	90                   	nop
 80496ac:	90                   	nop
 80496ad:	90                   	nop
 80496ae:	90                   	nop
 80496af:	90                   	nop

080496b0 <umessage>:
 80496b0:	55                   	push   %ebp
 80496b1:	89 e5                	mov    %esp,%ebp
 80496b3:	53                   	push   %ebx
 80496b4:	83 ec 14             	sub    $0x14,%esp
 80496b7:	a1 60 b0 04 08       	mov    0x804b060,%eax
 80496bc:	c7 44 24 0c 83 9b 04 	movl   $0x8049b83,0xc(%esp)
 80496c3:	08 
 80496c4:	8d 5d 0c             	lea    0xc(%ebp),%ebx
 80496c7:	c7 44 24 08 88 9b 04 	movl   $0x8049b88,0x8(%esp)
 80496ce:	08 
 80496cf:	c7 44 24 04 01 00 00 	movl   $0x1,0x4(%esp)
 80496d6:	00 
 80496d7:	89 04 24             	mov    %eax,(%esp)
 80496da:	a3 a4 b0 04 08       	mov    %eax,0x804b0a4
 80496df:	e8 58 ed ff ff       	call   804843c <__fprintf_chk@plt>
 80496e4:	8b 45 08             	mov    0x8(%ebp),%eax
 80496e7:	89 5c 24 0c          	mov    %ebx,0xc(%esp)
 80496eb:	c7 44 24 04 01 00 00 	movl   $0x1,0x4(%esp)
 80496f2:	00 
 80496f3:	89 44 24 08          	mov    %eax,0x8(%esp)
 80496f7:	a1 a4 b0 04 08       	mov    0x804b0a4,%eax
 80496fc:	89 04 24             	mov    %eax,(%esp)
 80496ff:	e8 88 ed ff ff       	call   804848c <__vfprintf_chk@plt>
 8049704:	83 c4 14             	add    $0x14,%esp
 8049707:	5b                   	pop    %ebx
 8049708:	5d                   	pop    %ebp
 8049709:	c3                   	ret    
 804970a:	8d b6 00 00 00 00    	lea    0x0(%esi),%esi

08049710 <uwarning>:
 8049710:	55                   	push   %ebp
 8049711:	89 e5                	mov    %esp,%ebp
 8049713:	53                   	push   %ebx
 8049714:	83 ec 14             	sub    $0x14,%esp
 8049717:	a1 60 b0 04 08       	mov    0x804b060,%eax
 804971c:	c7 44 24 0c 8d 9b 04 	movl   $0x8049b8d,0xc(%esp)
 8049723:	08 
 8049724:	8d 5d 0c             	lea    0xc(%ebp),%ebx
 8049727:	c7 44 24 08 88 9b 04 	movl   $0x8049b88,0x8(%esp)
 804972e:	08 
 804972f:	c7 44 24 04 01 00 00 	movl   $0x1,0x4(%esp)
 8049736:	00 
 8049737:	89 04 24             	mov    %eax,(%esp)
 804973a:	a3 a4 b0 04 08       	mov    %eax,0x804b0a4
 804973f:	e8 f8 ec ff ff       	call   804843c <__fprintf_chk@plt>
 8049744:	8b 45 08             	mov    0x8(%ebp),%eax
 8049747:	89 5c 24 0c          	mov    %ebx,0xc(%esp)
 804974b:	c7 44 24 04 01 00 00 	movl   $0x1,0x4(%esp)
 8049752:	00 
 8049753:	89 44 24 08          	mov    %eax,0x8(%esp)
 8049757:	a1 a4 b0 04 08       	mov    0x804b0a4,%eax
 804975c:	89 04 24             	mov    %eax,(%esp)
 804975f:	e8 28 ed ff ff       	call   804848c <__vfprintf_chk@plt>
 8049764:	83 c4 14             	add    $0x14,%esp
 8049767:	5b                   	pop    %ebx
 8049768:	5d                   	pop    %ebp
 8049769:	c3                   	ret    
 804976a:	8d b6 00 00 00 00    	lea    0x0(%esi),%esi

08049770 <uerror>:
 8049770:	55                   	push   %ebp
 8049771:	89 e5                	mov    %esp,%ebp
 8049773:	53                   	push   %ebx
 8049774:	83 ec 14             	sub    $0x14,%esp
 8049777:	a1 40 b0 04 08       	mov    0x804b040,%eax
 804977c:	c7 44 24 0c 92 9b 04 	movl   $0x8049b92,0xc(%esp)
 8049783:	08 
 8049784:	8d 5d 0c             	lea    0xc(%ebp),%ebx
 8049787:	c7 44 24 08 88 9b 04 	movl   $0x8049b88,0x8(%esp)
 804978e:	08 
 804978f:	c7 44 24 04 01 00 00 	movl   $0x1,0x4(%esp)
 8049796:	00 
 8049797:	89 04 24             	mov    %eax,(%esp)
 804979a:	a3 a4 b0 04 08       	mov    %eax,0x804b0a4
 804979f:	e8 98 ec ff ff       	call   804843c <__fprintf_chk@plt>
 80497a4:	8b 45 08             	mov    0x8(%ebp),%eax
 80497a7:	89 5c 24 0c          	mov    %ebx,0xc(%esp)
 80497ab:	c7 44 24 04 01 00 00 	movl   $0x1,0x4(%esp)
 80497b2:	00 
 80497b3:	89 44 24 08          	mov    %eax,0x8(%esp)
 80497b7:	a1 a4 b0 04 08       	mov    0x804b0a4,%eax
 80497bc:	89 04 24             	mov    %eax,(%esp)
 80497bf:	e8 c8 ec ff ff       	call   804848c <__vfprintf_chk@plt>
 80497c4:	83 c4 14             	add    $0x14,%esp
 80497c7:	5b                   	pop    %ebx
 80497c8:	5d                   	pop    %ebp
 80497c9:	c3                   	ret    
 80497ca:	90                   	nop
 80497cb:	90                   	nop
 80497cc:	90                   	nop
 80497cd:	90                   	nop
 80497ce:	90                   	nop
 80497cf:	90                   	nop

080497d0 <s32f_parse_args>:
 80497d0:	55                   	push   %ebp
 80497d1:	89 e5                	mov    %esp,%ebp
 80497d3:	57                   	push   %edi
 80497d4:	56                   	push   %esi
 80497d5:	53                   	push   %ebx
 80497d6:	bb ff ff ff ff       	mov    $0xffffffff,%ebx
 80497db:	83 ec 2c             	sub    $0x2c,%esp
 80497de:	8b 45 10             	mov    0x10(%ebp),%eax
 80497e1:	8b 75 08             	mov    0x8(%ebp),%esi
 80497e4:	8b 7d 0c             	mov    0xc(%ebp),%edi
 80497e7:	85 c0                	test   %eax,%eax
 80497e9:	0f 84 89 00 00 00    	je     8049878 <s32f_parse_args+0xa8>
 80497ef:	c7 45 e4 00 00 00 00 	movl   $0x0,-0x1c(%ebp)
 80497f6:	31 db                	xor    %ebx,%ebx
 80497f8:	c7 44 24 08 98 9b 04 	movl   $0x8049b98,0x8(%esp)
 80497ff:	08 
 8049800:	89 7c 24 04          	mov    %edi,0x4(%esp)
 8049804:	89 34 24             	mov    %esi,(%esp)
 8049807:	e8 90 ec ff ff       	call   804849c <getopt@plt>
 804980c:	83 f8 ff             	cmp    $0xffffffff,%eax
 804980f:	74 5f                	je     8049870 <s32f_parse_args+0xa0>
 8049811:	83 e8 63             	sub    $0x63,%eax
 8049814:	83 f8 11             	cmp    $0x11,%eax
 8049817:	76 07                	jbe    8049820 <s32f_parse_args+0x50>
 8049819:	83 cb 10             	or     $0x10,%ebx
 804981c:	eb da                	jmp    80497f8 <s32f_parse_args+0x28>
 804981e:	66 90                	xchg   %ax,%ax
 8049820:	ff 24 85 a0 9b 04 08 	jmp    *0x8049ba0(,%eax,4)
 8049827:	90                   	nop
 8049828:	83 cb 02             	or     $0x2,%ebx
 804982b:	90                   	nop
 804982c:	8d 74 26 00          	lea    0x0(%esi,%eiz,1),%esi
 8049830:	eb c6                	jmp    80497f8 <s32f_parse_args+0x28>
 8049832:	8d b6 00 00 00 00    	lea    0x0(%esi),%esi
 8049838:	a1 80 b0 04 08       	mov    0x804b080,%eax
 804983d:	83 cb 01             	or     $0x1,%ebx
 8049840:	c7 44 24 08 0a 00 00 	movl   $0xa,0x8(%esp)
 8049847:	00 
 8049848:	c7 44 24 04 00 00 00 	movl   $0x0,0x4(%esp)
 804984f:	00 
 8049850:	89 04 24             	mov    %eax,(%esp)
 8049853:	e8 54 ec ff ff       	call   80484ac <strtoul@plt>
 8049858:	89 45 e4             	mov    %eax,-0x1c(%ebp)
 804985b:	eb 9b                	jmp    80497f8 <s32f_parse_args+0x28>
 804985d:	8d 76 00             	lea    0x0(%esi),%esi
 8049860:	83 cb 08             	or     $0x8,%ebx
 8049863:	eb 93                	jmp    80497f8 <s32f_parse_args+0x28>
 8049865:	8d 76 00             	lea    0x0(%esi),%esi
 8049868:	83 cb 04             	or     $0x4,%ebx
 804986b:	eb 8b                	jmp    80497f8 <s32f_parse_args+0x28>
 804986d:	8d 76 00             	lea    0x0(%esi),%esi
 8049870:	8b 55 e4             	mov    -0x1c(%ebp),%edx
 8049873:	8b 45 10             	mov    0x10(%ebp),%eax
 8049876:	89 10                	mov    %edx,(%eax)
 8049878:	83 c4 2c             	add    $0x2c,%esp
 804987b:	89 d8                	mov    %ebx,%eax
 804987d:	5b                   	pop    %ebx
 804987e:	5e                   	pop    %esi
 804987f:	5f                   	pop    %edi
 8049880:	5d                   	pop    %ebp
 8049881:	c3                   	ret    
 8049882:	90                   	nop
 8049883:	90                   	nop
 8049884:	90                   	nop
 8049885:	90                   	nop
 8049886:	90                   	nop
 8049887:	90                   	nop
 8049888:	90                   	nop
 8049889:	90                   	nop
 804988a:	90                   	nop
 804988b:	90                   	nop
 804988c:	90                   	nop
 804988d:	90                   	nop
 804988e:	90                   	nop
 804988f:	90                   	nop

08049890 <u64f_gettime_msec>:
 8049890:	55                   	push   %ebp
 8049891:	89 e5                	mov    %esp,%ebp
 8049893:	83 ec 28             	sub    $0x28,%esp
 8049896:	8d 45 f0             	lea    -0x10(%ebp),%eax
 8049899:	c7 44 24 04 00 00 00 	movl   $0x0,0x4(%esp)
 80498a0:	00 
 80498a1:	89 04 24             	mov    %eax,(%esp)
 80498a4:	e8 c3 eb ff ff       	call   804846c <gettimeofday@plt>
 80498a9:	31 d2                	xor    %edx,%edx
 80498ab:	89 c1                	mov    %eax,%ecx
 80498ad:	31 c0                	xor    %eax,%eax
 80498af:	83 f9 ff             	cmp    $0xffffffff,%ecx
 80498b2:	74 0f                	je     80498c3 <u64f_gettime_msec+0x33>
 80498b4:	69 55 f0 40 42 0f 00 	imul   $0xf4240,-0x10(%ebp),%edx
 80498bb:	03 55 f4             	add    -0xc(%ebp),%edx
 80498be:	89 d0                	mov    %edx,%eax
 80498c0:	c1 fa 1f             	sar    $0x1f,%edx
 80498c3:	c9                   	leave  
 80498c4:	c3                   	ret    
 80498c5:	8d 74 26 00          	lea    0x0(%esi,%eiz,1),%esi
 80498c9:	8d bc 27 00 00 00 00 	lea    0x0(%edi,%eiz,1),%edi

080498d0 <u64f_getdelta>:
 80498d0:	55                   	push   %ebp
 80498d1:	89 e5                	mov    %esp,%ebp
 80498d3:	83 ec 0c             	sub    $0xc,%esp
 80498d6:	89 1c 24             	mov    %ebx,(%esp)
 80498d9:	8b 55 14             	mov    0x14(%ebp),%edx
 80498dc:	8b 5d 0c             	mov    0xc(%ebp),%ebx
 80498df:	89 74 24 04          	mov    %esi,0x4(%esp)
 80498e3:	8b 4d 08             	mov    0x8(%ebp),%ecx
 80498e6:	89 7c 24 08          	mov    %edi,0x8(%esp)
 80498ea:	8b 45 10             	mov    0x10(%ebp),%eax
 80498ed:	39 da                	cmp    %ebx,%edx
 80498ef:	73 1f                	jae    8049910 <u64f_getdelta+0x40>
 80498f1:	89 ce                	mov    %ecx,%esi
 80498f3:	89 df                	mov    %ebx,%edi
 80498f5:	8b 1c 24             	mov    (%esp),%ebx
 80498f8:	29 c6                	sub    %eax,%esi
 80498fa:	19 d7                	sbb    %edx,%edi
 80498fc:	89 f0                	mov    %esi,%eax
 80498fe:	8b 74 24 04          	mov    0x4(%esp),%esi
 8049902:	89 fa                	mov    %edi,%edx
 8049904:	8b 7c 24 08          	mov    0x8(%esp),%edi
 8049908:	89 ec                	mov    %ebp,%esp
 804990a:	5d                   	pop    %ebp
 804990b:	c3                   	ret    
 804990c:	8d 74 26 00          	lea    0x0(%esi,%eiz,1),%esi
 8049910:	76 16                	jbe    8049928 <u64f_getdelta+0x58>
 8049912:	29 c8                	sub    %ecx,%eax
 8049914:	8b 74 24 04          	mov    0x4(%esp),%esi
 8049918:	19 da                	sbb    %ebx,%edx
 804991a:	8b 7c 24 08          	mov    0x8(%esp),%edi
 804991e:	8b 1c 24             	mov    (%esp),%ebx
 8049921:	89 ec                	mov    %ebp,%esp
 8049923:	5d                   	pop    %ebp
 8049924:	c3                   	ret    
 8049925:	8d 76 00             	lea    0x0(%esi),%esi
 8049928:	39 c8                	cmp    %ecx,%eax
 804992a:	77 e6                	ja     8049912 <u64f_getdelta+0x42>
 804992c:	39 da                	cmp    %ebx,%edx
 804992e:	76 13                	jbe    8049943 <u64f_getdelta+0x73>
 8049930:	31 c0                	xor    %eax,%eax
 8049932:	31 d2                	xor    %edx,%edx
 8049934:	8b 1c 24             	mov    (%esp),%ebx
 8049937:	8b 74 24 04          	mov    0x4(%esp),%esi
 804993b:	8b 7c 24 08          	mov    0x8(%esp),%edi
 804993f:	89 ec                	mov    %ebp,%esp
 8049941:	5d                   	pop    %ebp
 8049942:	c3                   	ret    
 8049943:	72 ac                	jb     80498f1 <u64f_getdelta+0x21>
 8049945:	39 c8                	cmp    %ecx,%eax
 8049947:	73 e7                	jae    8049930 <u64f_getdelta+0x60>
 8049949:	8d b4 26 00 00 00 00 	lea    0x0(%esi,%eiz,1),%esi
 8049950:	eb 9f                	jmp    80498f1 <u64f_getdelta+0x21>
 8049952:	90                   	nop
 8049953:	90                   	nop
 8049954:	90                   	nop
 8049955:	90                   	nop
 8049956:	90                   	nop
 8049957:	90                   	nop
 8049958:	90                   	nop
 8049959:	90                   	nop
 804995a:	90                   	nop
 804995b:	90                   	nop
 804995c:	90                   	nop
 804995d:	90                   	nop
 804995e:	90                   	nop
 804995f:	90                   	nop

08049960 <__libc_csu_init>:
 8049960:	55                   	push   %ebp
 8049961:	89 e5                	mov    %esp,%ebp
 8049963:	57                   	push   %edi
 8049964:	56                   	push   %esi
 8049965:	53                   	push   %ebx
 8049966:	e8 5a 00 00 00       	call   80499c5 <__i686.get_pc_thunk.bx>
 804996b:	81 c3 89 16 00 00    	add    $0x1689,%ebx
 8049971:	83 ec 1c             	sub    $0x1c,%esp
 8049974:	e8 83 ea ff ff       	call   80483fc <_init>
 8049979:	8d bb 20 ff ff ff    	lea    -0xe0(%ebx),%edi
 804997f:	8d 83 20 ff ff ff    	lea    -0xe0(%ebx),%eax
 8049985:	29 c7                	sub    %eax,%edi
 8049987:	c1 ff 02             	sar    $0x2,%edi
 804998a:	85 ff                	test   %edi,%edi
 804998c:	74 24                	je     80499b2 <__libc_csu_init+0x52>
 804998e:	31 f6                	xor    %esi,%esi
 8049990:	8b 45 10             	mov    0x10(%ebp),%eax
 8049993:	89 44 24 08          	mov    %eax,0x8(%esp)
 8049997:	8b 45 0c             	mov    0xc(%ebp),%eax
 804999a:	89 44 24 04          	mov    %eax,0x4(%esp)
 804999e:	8b 45 08             	mov    0x8(%ebp),%eax
 80499a1:	89 04 24             	mov    %eax,(%esp)
 80499a4:	ff 94 b3 20 ff ff ff 	call   *-0xe0(%ebx,%esi,4)
 80499ab:	83 c6 01             	add    $0x1,%esi
 80499ae:	39 fe                	cmp    %edi,%esi
 80499b0:	72 de                	jb     8049990 <__libc_csu_init+0x30>
 80499b2:	83 c4 1c             	add    $0x1c,%esp
 80499b5:	5b                   	pop    %ebx
 80499b6:	5e                   	pop    %esi
 80499b7:	5f                   	pop    %edi
 80499b8:	5d                   	pop    %ebp
 80499b9:	c3                   	ret    
 80499ba:	8d b6 00 00 00 00    	lea    0x0(%esi),%esi

080499c0 <__libc_csu_fini>:
 80499c0:	55                   	push   %ebp
 80499c1:	89 e5                	mov    %esp,%ebp
 80499c3:	5d                   	pop    %ebp
 80499c4:	c3                   	ret    

080499c5 <__i686.get_pc_thunk.bx>:
 80499c5:	8b 1c 24             	mov    (%esp),%ebx
 80499c8:	c3                   	ret    
 80499c9:	90                   	nop
 80499ca:	90                   	nop
 80499cb:	90                   	nop
 80499cc:	90                   	nop
 80499cd:	90                   	nop
 80499ce:	90                   	nop
 80499cf:	90                   	nop

080499d0 <__do_global_ctors_aux>:
 80499d0:	55                   	push   %ebp
 80499d1:	89 e5                	mov    %esp,%ebp
 80499d3:	53                   	push   %ebx
 80499d4:	83 ec 04             	sub    $0x4,%esp
 80499d7:	a1 14 af 04 08       	mov    0x804af14,%eax
 80499dc:	83 f8 ff             	cmp    $0xffffffff,%eax
 80499df:	74 13                	je     80499f4 <__do_global_ctors_aux+0x24>
 80499e1:	bb 14 af 04 08       	mov    $0x804af14,%ebx
 80499e6:	66 90                	xchg   %ax,%ax
 80499e8:	83 eb 04             	sub    $0x4,%ebx
 80499eb:	ff d0                	call   *%eax
 80499ed:	8b 03                	mov    (%ebx),%eax
 80499ef:	83 f8 ff             	cmp    $0xffffffff,%eax
 80499f2:	75 f4                	jne    80499e8 <__do_global_ctors_aux+0x18>
 80499f4:	83 c4 04             	add    $0x4,%esp
 80499f7:	5b                   	pop    %ebx
 80499f8:	5d                   	pop    %ebp
 80499f9:	c3                   	ret    
 80499fa:	90                   	nop
 80499fb:	90                   	nop

Disassembly of section .fini:

080499fc <_fini>:
 80499fc:	55                   	push   %ebp
 80499fd:	89 e5                	mov    %esp,%ebp
 80499ff:	53                   	push   %ebx
 8049a00:	83 ec 04             	sub    $0x4,%esp
 8049a03:	e8 00 00 00 00       	call   8049a08 <_fini+0xc>
 8049a08:	5b                   	pop    %ebx
 8049a09:	81 c3 ec 15 00 00    	add    $0x15ec,%ebx
 8049a0f:	e8 ec ea ff ff       	call   8048500 <__do_global_dtors_aux>
 8049a14:	59                   	pop    %ecx
 8049a15:	5b                   	pop    %ebx
 8049a16:	c9                   	leave  
 8049a17:	c3                   	ret    

Disassembly of section .rodata:

08049a18 <_fp_hw>:
 8049a18:	03 00                	add    (%eax),%eax
	...

08049a1c <_IO_stdin_used>:
 8049a1c:	01 00                	add    %eax,(%eax)
 8049a1e:	02 00                	add    (%eax),%al
 8049a20:	75 36                	jne    8049a58 <_IO_stdin_used+0x3c>
 8049a22:	34 66                	xor    $0x66,%al
 8049a24:	5f                   	pop    %edi
 8049a25:	66 69 62 6f 6e 61    	imul   $0x616e,0x6f(%edx),%sp
 8049a2b:	63 63 69             	arpl   %sp,0x69(%ebx)
 8049a2e:	5f                   	pop    %edi
 8049a2f:	72 65                	jb     8049a96 <_IO_stdin_used+0x7a>
 8049a31:	63 75 72             	arpl   %si,0x72(%ebp)
 8049a34:	73 69                	jae    8049a9f <_IO_stdin_used+0x83>
 8049a36:	76 65                	jbe    8049a9d <_IO_stdin_used+0x81>
 8049a38:	5f                   	pop    %edi
 8049a39:	63 61 63             	arpl   %sp,0x63(%ecx)
 8049a3c:	68 65 64 3a 20       	push   $0x203a6465
 8049a41:	63 61 6e             	arpl   %sp,0x6e(%ecx)
 8049a44:	6e                   	outsb  %ds:(%esi),(%dx)
 8049a45:	6f                   	outsl  %ds:(%esi),(%dx)
 8049a46:	74 20                	je     8049a68 <_IO_stdin_used+0x4c>
 8049a48:	69 6e 69 74 69 61 6c 	imul   $0x6c616974,0x69(%esi),%ebp
 8049a4f:	69 7a 65 20 63 61 63 	imul   $0x63616320,0x65(%edx),%edi
 8049a56:	68 65 20 5b 20       	push   $0x205b2065
 8049a5b:	25 75 20 5d 20       	and    $0x205d2075,%eax
 8049a60:	6f                   	outsl  %ds:(%esi),(%dx)
 8049a61:	66                   	data16
 8049a62:	20 73 69             	and    %dh,0x69(%ebx)
 8049a65:	7a 65                	jp     8049acc <_IO_stdin_used+0xb0>
 8049a67:	20 5b 20             	and    %bl,0x20(%ebx)
 8049a6a:	25 75 20 5d 0a       	and    $0xa5d2075,%eax
 8049a6f:	00 75 73             	add    %dh,0x73(%ebp)
 8049a72:	69 6e 67 20 72 65 63 	imul   $0x63657220,0x67(%esi),%ebp
 8049a79:	75 72                	jne    8049aed <_IO_stdin_used+0xd1>
 8049a7b:	73 69                	jae    8049ae6 <_IO_stdin_used+0xca>
 8049a7d:	76 65                	jbe    8049ae4 <_IO_stdin_used+0xc8>
 8049a7f:	20 61 6c             	and    %ah,0x6c(%ecx)
 8049a82:	67 6f                	outsl  %ds:(%si),(%dx)
 8049a84:	72 69                	jb     8049aef <_IO_stdin_used+0xd3>
 8049a86:	74 68                	je     8049af0 <_IO_stdin_used+0xd4>
 8049a88:	6d                   	insl   (%dx),%es:(%edi)
 8049a89:	20 66 6f             	and    %ah,0x6f(%esi)
 8049a8c:	72 20                	jb     8049aae <_IO_stdin_used+0x92>
 8049a8e:	72 65                	jb     8049af5 <_IO_stdin_used+0xd9>
 8049a90:	73 75                	jae    8049b07 <_IO_stdin_used+0xeb>
 8049a92:	6c                   	insb   (%dx),%es:(%edi)
 8049a93:	74 20                	je     8049ab5 <_IO_stdin_used+0x99>
 8049a95:	2e 2e 2e 0a 00       	cs cs or %cs:(%eax),%al
 8049a9a:	00 00                	add    %al,(%eax)
 8049a9c:	75 73                	jne    8049b11 <_IO_stdin_used+0xf5>
 8049a9e:	69 6e 67 20 72 65 63 	imul   $0x63657220,0x67(%esi),%ebp
 8049aa5:	75 72                	jne    8049b19 <_IO_stdin_used+0xfd>
 8049aa7:	73 69                	jae    8049b12 <_IO_stdin_used+0xf6>
 8049aa9:	76 65                	jbe    8049b10 <_IO_stdin_used+0xf4>
 8049aab:	20 61 6c             	and    %ah,0x6c(%ecx)
 8049aae:	67 6f                	outsl  %ds:(%si),(%dx)
 8049ab0:	72 69                	jb     8049b1b <_IO_stdin_used+0xff>
 8049ab2:	74 68                	je     8049b1c <_IO_stdin_used+0x100>
 8049ab4:	6d                   	insl   (%dx),%es:(%edi)
 8049ab5:	20 77 69             	and    %dh,0x69(%edi)
 8049ab8:	74 68                	je     8049b22 <_IO_stdin_used+0x106>
 8049aba:	20 63 61             	and    %ah,0x61(%ebx)
 8049abd:	63 68 65             	arpl   %bp,0x65(%eax)
 8049ac0:	20 2e                	and    %ch,(%esi)
 8049ac2:	2e 2e 0a 00          	cs or  %cs:(%eax),%al
 8049ac6:	00 00                	add    %al,(%eax)
 8049ac8:	75 73                	jne    8049b3d <_IO_stdin_used+0x121>
 8049aca:	69 6e 67 20 73 65 71 	imul   $0x71657320,0x67(%esi),%ebp
 8049ad1:	75 65                	jne    8049b38 <_IO_stdin_used+0x11c>
 8049ad3:	6e                   	outsb  %ds:(%esi),(%dx)
 8049ad4:	74 69                	je     8049b3f <_IO_stdin_used+0x123>
 8049ad6:	61                   	popa   
 8049ad7:	6c                   	insb   (%dx),%es:(%edi)
 8049ad8:	20 61 6c             	and    %ah,0x6c(%ecx)
 8049adb:	67 6f                	outsl  %ds:(%si),(%dx)
 8049add:	72 69                	jb     8049b48 <_IO_stdin_used+0x12c>
 8049adf:	74 68                	je     8049b49 <_IO_stdin_used+0x12d>
 8049ae1:	6d                   	insl   (%dx),%es:(%edi)
 8049ae2:	20 66 6f             	and    %ah,0x6f(%esi)
 8049ae5:	72 20                	jb     8049b07 <_IO_stdin_used+0xeb>
 8049ae7:	72 65                	jb     8049b4e <_IO_stdin_used+0x132>
 8049ae9:	73 75                	jae    8049b60 <_IO_stdin_used+0x144>
 8049aeb:	6c                   	insb   (%dx),%es:(%edi)
 8049aec:	74 20                	je     8049b0e <_IO_stdin_used+0xf2>
 8049aee:	2e 2e 2e 0a 00       	cs cs or %cs:(%eax),%al
 8049af3:	00 72 65             	add    %dh,0x65(%edx)
 8049af6:	71 75                	jno    8049b6d <_IO_stdin_used+0x151>
 8049af8:	65                   	gs
 8049af9:	73 74                	jae    8049b6f <_IO_stdin_used+0x153>
 8049afb:	65 64 3a 20          	gs cmp %fs:%gs:(%eax),%ah
 8049aff:	25 75 2c 20 63       	and    $0x63202c75,%eax
 8049b04:	6f                   	outsl  %ds:(%esi),(%dx)
 8049b05:	6d                   	insl   (%dx),%es:(%edi)
 8049b06:	70 75                	jo     8049b7d <_IO_stdin_used+0x161>
 8049b08:	74 65                	je     8049b6f <_IO_stdin_used+0x153>
 8049b0a:	64                   	fs
 8049b0b:	2d 72 65 73 75       	sub    $0x75736572,%eax
 8049b10:	6c                   	insb   (%dx),%es:(%edi)
 8049b11:	74 3a                	je     8049b4d <_IO_stdin_used+0x131>
 8049b13:	20 25 6c 75 20 0a    	and    %ah,0xa20756c
 8049b19:	00 00                	add    %al,(%eax)
 8049b1b:	00 6e 6f             	add    %ch,0x6f(%esi)
 8049b1e:	20 6e 75             	and    %ch,0x75(%esi)
 8049b21:	6d                   	insl   (%dx),%es:(%edi)
 8049b22:	62 65 72             	bound  %esp,0x72(%ebp)
 8049b25:	20 73 70             	and    %dh,0x70(%ebx)
 8049b28:	65 63 69 66          	arpl   %bp,%gs:0x66(%ecx)
 8049b2c:	69 65 64 0a 75 73 61 	imul   $0x6173750a,0x64(%ebp),%esp
 8049b33:	67 65 3a 20          	cmp    %gs:(%bx,%si),%ah
 8049b37:	25 73 20 2d 6e       	and    $0x6e2d2073,%eax
 8049b3c:	20 3c 6e             	and    %bh,(%esi,%ebp,2)
 8049b3f:	75 6d                	jne    8049bae <_IO_stdin_used+0x192>
 8049b41:	62 65 72             	bound  %esp,0x72(%ebp)
 8049b44:	3e 20 5b 2d          	and    %bl,%ds:0x2d(%ebx)
 8049b48:	72 5d                	jb     8049ba7 <_IO_stdin_used+0x18b>
 8049b4a:	0a 00                	or     (%eax),%al
 8049b4c:	73 74                	jae    8049bc2 <_IO_stdin_used+0x1a6>
 8049b4e:	61                   	popa   
 8049b4f:	6d                   	insl   (%dx),%es:(%edi)
 8049b50:	70 5b                	jo     8049bad <_IO_stdin_used+0x191>
 8049b52:	31 5d 20             	xor    %ebx,0x20(%ebp)
 8049b55:	3d 20 25 6c 75       	cmp    $0x756c2520,%eax
 8049b5a:	0a 00                	or     (%eax),%al
 8049b5c:	73 74                	jae    8049bd2 <_IO_stdin_used+0x1b6>
 8049b5e:	61                   	popa   
 8049b5f:	6d                   	insl   (%dx),%es:(%edi)
 8049b60:	70 5b                	jo     8049bbd <_IO_stdin_used+0x1a1>
 8049b62:	32 5d 20             	xor    0x20(%ebp),%bl
 8049b65:	3d 20 25 6c 75       	cmp    $0x756c2520,%eax
 8049b6a:	0a 00                	or     (%eax),%al
 8049b6c:	74 69                	je     8049bd7 <_IO_stdin_used+0x1bb>
 8049b6e:	6d                   	insl   (%dx),%es:(%edi)
 8049b6f:	65 20 74 61 6b       	and    %dh,%gs:0x6b(%ecx,%eiz,2)
 8049b74:	65 6e                	outsb  %gs:(%esi),(%dx)
 8049b76:	3a 20                	cmp    (%eax),%ah
 8049b78:	25 6c 75 20 75       	and    $0x7520756c,%eax
 8049b7d:	53                   	push   %ebx
 8049b7e:	65 63 73 0a          	arpl   %si,%gs:0xa(%ebx)
 8049b82:	00 69 6e             	add    %ch,0x6e(%ecx)
 8049b85:	66 6f                	outsw  %ds:(%esi),(%dx)
 8049b87:	00 25 73 3a 20 00    	add    %ah,0x203a73
 8049b8d:	77 61                	ja     8049bf0 <__FRAME_END__+0x8>
 8049b8f:	72 6e                	jb     8049bff <__FRAME_END__+0x17>
 8049b91:	00 45 52             	add    %al,0x52(%ebp)
 8049b94:	52                   	push   %edx
 8049b95:	4f                   	dec    %edi
 8049b96:	52                   	push   %edx
 8049b97:	00 6e 3a             	add    %ch,0x3a(%esi)
 8049b9a:	72 63                	jb     8049bff <__FRAME_END__+0x17>
 8049b9c:	74 68                	je     8049c06 <__FRAME_END__+0x1e>
 8049b9e:	00 00                	add    %al,(%eax)
 8049ba0:	68 98 04 08 19       	push   $0x19080498
 8049ba5:	98                   	cwtl   
 8049ba6:	04 08                	add    $0x8,%al
 8049ba8:	19 98 04 08 19 98    	sbb    %ebx,-0x67e6f7fc(%eax)
 8049bae:	04 08                	add    $0x8,%al
 8049bb0:	19 98 04 08 19 98    	sbb    %ebx,-0x67e6f7fc(%eax)
 8049bb6:	04 08                	add    $0x8,%al
 8049bb8:	19 98 04 08 19 98    	sbb    %ebx,-0x67e6f7fc(%eax)
 8049bbe:	04 08                	add    $0x8,%al
 8049bc0:	19 98 04 08 19 98    	sbb    %ebx,-0x67e6f7fc(%eax)
 8049bc6:	04 08                	add    $0x8,%al
 8049bc8:	19 98 04 08 38 98    	sbb    %ebx,-0x67c7f7fc(%eax)
 8049bce:	04 08                	add    $0x8,%al
 8049bd0:	19 98 04 08 19 98    	sbb    %ebx,-0x67e6f7fc(%eax)
 8049bd6:	04 08                	add    $0x8,%al
 8049bd8:	19 98 04 08 28 98    	sbb    %ebx,-0x67d7f7fc(%eax)
 8049bde:	04 08                	add    $0x8,%al
 8049be0:	19 98 04 08 60 98    	sbb    %ebx,-0x679ff7fc(%eax)
 8049be6:	04 08                	add    $0x8,%al

Disassembly of section .eh_frame:

08049be8 <__FRAME_END__>:
 8049be8:	00 00                	add    %al,(%eax)
	...

Disassembly of section .ctors:

0804af14 <__CTOR_LIST__>:
 804af14:	ff                   	(bad)  
 804af15:	ff                   	(bad)  
 804af16:	ff                   	(bad)  
 804af17:	ff 00                	incl   (%eax)

0804af18 <__CTOR_END__>:
 804af18:	00 00                	add    %al,(%eax)
	...

Disassembly of section .dtors:

0804af1c <__DTOR_LIST__>:
 804af1c:	ff                   	(bad)  
 804af1d:	ff                   	(bad)  
 804af1e:	ff                   	(bad)  
 804af1f:	ff 00                	incl   (%eax)

0804af20 <__DTOR_END__>:
 804af20:	00 00                	add    %al,(%eax)
	...

Disassembly of section .jcr:

0804af24 <__JCR_END__>:
 804af24:	00 00                	add    %al,(%eax)
	...

Disassembly of section .dynamic:

0804af28 <_DYNAMIC>:
 804af28:	01 00                	add    %eax,(%eax)
 804af2a:	00 00                	add    %al,(%eax)
 804af2c:	10 00                	adc    %al,(%eax)
 804af2e:	00 00                	add    %al,(%eax)
 804af30:	0c 00                	or     $0x0,%al
 804af32:	00 00                	add    %al,(%eax)
 804af34:	fc                   	cld    
 804af35:	83 04 08 0d          	addl   $0xd,(%eax,%ecx,1)
 804af39:	00 00                	add    %al,(%eax)
 804af3b:	00 fc                	add    %bh,%ah
 804af3d:	99                   	cltd   
 804af3e:	04 08                	add    $0x8,%al
 804af40:	f5                   	cmc    
 804af41:	fe                   	(bad)  
 804af42:	ff 6f 8c             	ljmp   *-0x74(%edi)
 804af45:	81 04 08 05 00 00 00 	addl   $0x5,(%eax,%ecx,1)
 804af4c:	9c                   	pushf  
 804af4d:	82                   	(bad)  
 804af4e:	04 08                	add    $0x8,%al
 804af50:	06                   	push   %es
 804af51:	00 00                	add    %al,(%eax)
 804af53:	00 bc 81 04 08 0a 00 	add    %bh,0xa0804(%ecx,%eax,4)
 804af5a:	00 00                	add    %al,(%eax)
 804af5c:	ab                   	stos   %eax,%es:(%edi)
 804af5d:	00 00                	add    %al,(%eax)
 804af5f:	00 0b                	add    %cl,(%ebx)
 804af61:	00 00                	add    %al,(%eax)
 804af63:	00 10                	add    %dl,(%eax)
 804af65:	00 00                	add    %al,(%eax)
 804af67:	00 15 00 00 00 00    	add    %dl,0x0
 804af6d:	00 00                	add    %al,(%eax)
 804af6f:	00 03                	add    %al,(%ebx)
 804af71:	00 00                	add    %al,(%eax)
 804af73:	00 f4                	add    %dh,%ah
 804af75:	af                   	scas   %es:(%edi),%eax
 804af76:	04 08                	add    $0x8,%al
 804af78:	02 00                	add    (%eax),%al
 804af7a:	00 00                	add    %al,(%eax)
 804af7c:	48                   	dec    %eax
 804af7d:	00 00                	add    %al,(%eax)
 804af7f:	00 14 00             	add    %dl,(%eax,%eax,1)
 804af82:	00 00                	add    %al,(%eax)
 804af84:	11 00                	adc    %eax,(%eax)
 804af86:	00 00                	add    %al,(%eax)
 804af88:	17                   	pop    %ss
 804af89:	00 00                	add    %al,(%eax)
 804af8b:	00 b4 83 04 08 11 00 	add    %dh,0x110804(%ebx,%eax,4)
 804af92:	00 00                	add    %al,(%eax)
 804af94:	94                   	xchg   %eax,%esp
 804af95:	83 04 08 12          	addl   $0x12,(%eax,%ecx,1)
 804af99:	00 00                	add    %al,(%eax)
 804af9b:	00 20                	add    %ah,(%eax)
 804af9d:	00 00                	add    %al,(%eax)
 804af9f:	00 13                	add    %dl,(%ebx)
 804afa1:	00 00                	add    %al,(%eax)
 804afa3:	00 08                	add    %cl,(%eax)
 804afa5:	00 00                	add    %al,(%eax)
 804afa7:	00 fe                	add    %bh,%dh
 804afa9:	ff                   	(bad)  
 804afaa:	ff 6f 64             	ljmp   *0x64(%edi)
 804afad:	83 04 08 ff          	addl   $0xffffffff,(%eax,%ecx,1)
 804afb1:	ff                   	(bad)  
 804afb2:	ff 6f 01             	ljmp   *0x1(%edi)
 804afb5:	00 00                	add    %al,(%eax)
 804afb7:	00 f0                	add    %dh,%al
 804afb9:	ff                   	(bad)  
 804afba:	ff 6f 48             	ljmp   *0x48(%edi)
 804afbd:	83 04 08 00          	addl   $0x0,(%eax,%ecx,1)
	...

Disassembly of section .got:

0804aff0 <.got>:
 804aff0:	00 00                	add    %al,(%eax)
	...

Disassembly of section .got.plt:

0804aff4 <_GLOBAL_OFFSET_TABLE_>:
 804aff4:	28 af 04 08 00 00    	sub    %ch,0x804(%edi)
 804affa:	00 00                	add    %al,(%eax)
 804affc:	00 00                	add    %al,(%eax)
 804affe:	00 00                	add    %al,(%eax)
 804b000:	42                   	inc    %edx
 804b001:	84 04 08             	test   %al,(%eax,%ecx,1)
 804b004:	52                   	push   %edx
 804b005:	84 04 08             	test   %al,(%eax,%ecx,1)
 804b008:	62 84 04 08 72 84 04 	bound  %eax,0x4847208(%esp,%eax,1)
 804b00f:	08 82 84 04 08 92    	or     %al,-0x6df7fb7c(%edx)
 804b015:	84 04 08             	test   %al,(%eax,%ecx,1)
 804b018:	a2 84 04 08 b2       	mov    %al,0xb2080484
 804b01d:	84 04 08             	test   %al,(%eax,%ecx,1)
 804b020:	c2 84 04             	ret    $0x484
 804b023:	08                   	.byte 0x8

Disassembly of section .data:

0804b024 <__data_start>:
 804b024:	00 00                	add    %al,(%eax)
	...

0804b028 <__dso_handle>:
 804b028:	00 00                	add    %al,(%eax)
	...

Disassembly of section .bss:

0804b040 <stderr@@GLIBC_2.0>:
	...

0804b060 <stdout@@GLIBC_2.0>:
	...

0804b080 <optarg@@GLIBC_2.0>:
 804b080:	00 00                	add    %al,(%eax)
	...

0804b084 <completed.6155>:
 804b084:	00 00                	add    %al,(%eax)
	...

0804b088 <dtor_idx.6157>:
 804b088:	00 00                	add    %al,(%eax)
	...

0804b08c <u32v_cache_sz.1281>:
 804b08c:	00 00                	add    %al,(%eax)
	...

0804b090 <lcache_fibonacci.1280>:
	...

0804b0a4 <out_stream>:
 804b0a4:	00 00                	add    %al,(%eax)
	...

Disassembly of section .comment:

00000000 <.comment>:
   0:	47                   	inc    %edi
   1:	43                   	inc    %ebx
   2:	43                   	inc    %ebx
   3:	3a 20                	cmp    (%eax),%ah
   5:	28 55 62             	sub    %dl,0x62(%ebp)
   8:	75 6e                	jne    78 <_init-0x8048384>
   a:	74 75                	je     81 <_init-0x804837b>
   c:	2f                   	das    
   d:	4c                   	dec    %esp
   e:	69 6e 61 72 6f 20 34 	imul   $0x34206f72,0x61(%esi),%ebp
  15:	2e                   	cs
  16:	35 2e 32 2d 38       	xor    $0x382d322e,%eax
  1b:	75 62                	jne    7f <_init-0x804837d>
  1d:	75 6e                	jne    8d <_init-0x804836f>
  1f:	74 75                	je     96 <_init-0x8048366>
  21:	34 29                	xor    $0x29,%al
  23:	20 34 2e             	and    %dh,(%esi,%ebp,1)
  26:	35 2e 32 00 47       	xor    $0x4700322e,%eax
  2b:	43                   	inc    %ebx
  2c:	43                   	inc    %ebx
  2d:	3a 20                	cmp    (%eax),%ah
  2f:	28 55 62             	sub    %dl,0x62(%ebp)
  32:	75 6e                	jne    a2 <_init-0x804835a>
  34:	74 75                	je     ab <_init-0x8048351>
  36:	2f                   	das    
  37:	4c                   	dec    %esp
  38:	69 6e 61 72 6f 20 34 	imul   $0x34206f72,0x61(%esi),%ebp
  3f:	2e                   	cs
  40:	35 2e 32 2d 38       	xor    $0x382d322e,%eax
  45:	75 62                	jne    a9 <_init-0x8048353>
  47:	75 6e                	jne    b7 <_init-0x8048345>
  49:	74 75                	je     c0 <_init-0x804833c>
  4b:	33 29                	xor    (%ecx),%ebp
  4d:	20 34 2e             	and    %dh,(%esi,%ebp,1)
  50:	35                   	.byte 0x35
  51:	2e 32 00             	xor    %cs:(%eax),%al

Disassembly of section .debug_aranges:

00000000 <.debug_aranges>:
   0:	1c 00                	sbb    $0x0,%al
   2:	00 00                	add    %al,(%eax)
   4:	02 00                	add    (%eax),%al
   6:	00 00                	add    %al,(%eax)
   8:	00 00                	add    %al,(%eax)
   a:	04 00                	add    $0x0,%al
   c:	00 00                	add    %al,(%eax)
   e:	00 00                	add    %al,(%eax)
  10:	90                   	nop
  11:	85 04 08             	test   %eax,(%eax,%ecx,1)
  14:	dd 0e                	fisttpll (%esi)
	...
  1e:	00 00                	add    %al,(%eax)
  20:	1c 00                	sbb    $0x0,%al
  22:	00 00                	add    %al,(%eax)
  24:	02 00                	add    (%eax),%al
  26:	61                   	popa   
  27:	07                   	pop    %es
  28:	00 00                	add    %al,(%eax)
  2a:	04 00                	add    $0x0,%al
  2c:	00 00                	add    %al,(%eax)
  2e:	00 00                	add    %al,(%eax)
  30:	70 94                	jo     ffffffc6 <_end+0xf7fb4f1e>
  32:	04 08                	add    $0x8,%al
  34:	34 02                	xor    $0x2,%al
	...
  3e:	00 00                	add    %al,(%eax)
  40:	1c 00                	sbb    $0x0,%al
  42:	00 00                	add    %al,(%eax)
  44:	02 00                	add    (%eax),%al
  46:	c7                   	(bad)  
  47:	09 00                	or     %eax,(%eax)
  49:	00 04 00             	add    %al,(%eax,%eax,1)
  4c:	00 00                	add    %al,(%eax)
  4e:	00 00                	add    %al,(%eax)
  50:	b0 96                	mov    $0x96,%al
  52:	04 08                	add    $0x8,%al
  54:	1a 01                	sbb    (%ecx),%al
	...
  5e:	00 00                	add    %al,(%eax)
  60:	1c 00                	sbb    $0x0,%al
  62:	00 00                	add    %al,(%eax)
  64:	02 00                	add    (%eax),%al
  66:	f5                   	cmc    
  67:	0f 00 00             	sldt   (%eax)
  6a:	04 00                	add    $0x0,%al
  6c:	00 00                	add    %al,(%eax)
  6e:	00 00                	add    %al,(%eax)
  70:	d0 97 04 08 b2 00    	rclb   0xb20804(%edi)
	...
  7e:	00 00                	add    %al,(%eax)
  80:	1c 00                	sbb    $0x0,%al
  82:	00 00                	add    %al,(%eax)
  84:	02 00                	add    (%eax),%al
  86:	1b 11                	sbb    (%ecx),%edx
  88:	00 00                	add    %al,(%eax)
  8a:	04 00                	add    $0x0,%al
  8c:	00 00                	add    %al,(%eax)
  8e:	00 00                	add    %al,(%eax)
  90:	90                   	nop
  91:	98                   	cwtl   
  92:	04 08                	add    $0x8,%al
  94:	c2 00 00             	ret    $0x0
	...

Disassembly of section .debug_pubnames:

00000000 <.debug_pubnames>:
   0:	86 00                	xchg   %al,(%eax)
   2:	00 00                	add    %al,(%eax)
   4:	02 00                	add    (%eax),%al
   6:	00 00                	add    %al,(%eax)
   8:	00 00                	add    %al,(%eax)
   a:	61                   	popa   
   b:	07                   	pop    %es
   c:	00 00                	add    %al,(%eax)
   e:	62 01                	bound  %eax,(%ecx)
  10:	00 00                	add    %al,(%eax)
  12:	75 36                	jne    4a <_init-0x80483b2>
  14:	34 66                	xor    $0x66,%al
  16:	5f                   	pop    %edi
  17:	66 69 62 6f 6e 61    	imul   $0x616e,0x6f(%edx),%sp
  1d:	63 63 69             	arpl   %sp,0x69(%ebx)
  20:	5f                   	pop    %edi
  21:	72 65                	jb     88 <_init-0x8048374>
  23:	63 75 72             	arpl   %si,0x72(%ebp)
  26:	73 69                	jae    91 <_init-0x804836b>
  28:	76 65                	jbe    8f <_init-0x804836d>
  2a:	00 1c 03             	add    %bl,(%ebx,%eax,1)
  2d:	00 00                	add    %al,(%eax)
  2f:	75 36                	jne    67 <_init-0x8048395>
  31:	34 66                	xor    $0x66,%al
  33:	5f                   	pop    %edi
  34:	66 69 62 6f 6e 61    	imul   $0x616e,0x6f(%edx),%sp
  3a:	63 63 69             	arpl   %sp,0x69(%ebx)
  3d:	5f                   	pop    %edi
  3e:	72 65                	jb     a5 <_init-0x8048357>
  40:	63 75 72             	arpl   %si,0x72(%ebp)
  43:	73 69                	jae    ae <_init-0x804834e>
  45:	76 65                	jbe    ac <_init-0x8048350>
  47:	5f                   	pop    %edi
  48:	63 61 63             	arpl   %sp,0x63(%ecx)
  4b:	68 65 64 00 d9       	push   $0xd9006465
  50:	05 00 00 75 36       	add    $0x36750000,%eax
  55:	34 66                	xor    $0x66,%al
  57:	5f                   	pop    %edi
  58:	66 69 62 6f 6e 61    	imul   $0x616e,0x6f(%edx),%sp
  5e:	63 63 69             	arpl   %sp,0x69(%ebx)
  61:	5f                   	pop    %edi
  62:	73 65                	jae    c9 <_init-0x8048333>
  64:	71 00                	jno    66 <_init-0x8048396>
  66:	1b 06                	sbb    (%esi),%eax
  68:	00 00                	add    %al,(%eax)
  6a:	73 33                	jae    9f <_init-0x804835d>
  6c:	32 66 5f             	xor    0x5f(%esi),%ah
  6f:	66 69 62 6f 6e 61    	imul   $0x616e,0x6f(%edx),%sp
  75:	63 63 69             	arpl   %sp,0x69(%ebx)
  78:	5f                   	pop    %edi
  79:	61                   	popa   
  7a:	70 70                	jo     ec <_init-0x8048310>
  7c:	00 1b                	add    %bl,(%ebx)
  7e:	07                   	pop    %es
  7f:	00 00                	add    %al,(%eax)
  81:	6d                   	insl   (%dx),%es:(%edi)
  82:	61                   	popa   
  83:	69 6e 00 00 00 00 00 	imul   $0x0,0x0(%esi),%ebp
  8a:	61                   	popa   
  8b:	00 00                	add    %al,(%eax)
  8d:	00 02                	add    %al,(%edx)
  8f:	00 61 07             	add    %ah,0x7(%ecx)
  92:	00 00                	add    %al,(%eax)
  94:	66                   	data16
  95:	02 00                	add    (%eax),%al
  97:	00 04 01             	add    %al,(%ecx,%eax,1)
  9a:	00 00                	add    %al,(%eax)
  9c:	73 33                	jae    d1 <_init-0x804832b>
  9e:	32 66 5f             	xor    0x5f(%esi),%ah
  a1:	6c                   	insb   (%dx),%es:(%edi)
  a2:	63 61 63             	arpl   %sp,0x63(%ecx)
  a5:	68 65 5f 69 6e       	push   $0x6e695f65
  aa:	69 74 00 7f 01 00 00 	imul   $0x73000001,0x7f(%eax,%eax,1),%esi
  b1:	73 
  b2:	33 32                	xor    (%edx),%esi
  b4:	66 5f                	pop    %di
  b6:	6c                   	insb   (%dx),%es:(%edi)
  b7:	63 61 63             	arpl   %sp,0x63(%ecx)
  ba:	68 65 5f 66 72       	push   $0x72665f65
  bf:	65 65 00 ba 01 00 00 	gs add %bh,%gs:0x73000001(%edx)
  c6:	73 
  c7:	33 32                	xor    (%edx),%esi
  c9:	66 5f                	pop    %di
  cb:	6c                   	insb   (%dx),%es:(%edi)
  cc:	63 61 63             	arpl   %sp,0x63(%ecx)
  cf:	68 65 5f 61 64       	push   $0x64615f65
  d4:	64 00 11             	add    %dl,%fs:(%ecx)
  d7:	02 00                	add    (%eax),%al
  d9:	00 75 36             	add    %dh,0x36(%ebp)
  dc:	34 66                	xor    $0x66,%al
  de:	5f                   	pop    %edi
  df:	6c                   	insb   (%dx),%es:(%edi)
  e0:	63 61 63             	arpl   %sp,0x63(%ecx)
  e3:	68 65 5f 66 69       	push   $0x69665f65
  e8:	6e                   	outsb  %ds:(%esi),(%dx)
  e9:	64 00 00             	add    %al,%fs:(%eax)
  ec:	00 00                	add    %al,(%eax)
  ee:	00 42 00             	add    %al,0x0(%edx)
  f1:	00 00                	add    %al,(%eax)
  f3:	02 00                	add    (%eax),%al
  f5:	c7                   	(bad)  
  f6:	09 00                	or     %eax,(%eax)
  f8:	00 2e                	add    %ch,(%esi)
  fa:	06                   	push   %es
  fb:	00 00                	add    %al,(%eax)
  fd:	a4                   	movsb  %ds:(%esi),%es:(%edi)
  fe:	03 00                	add    (%eax),%eax
 100:	00 75 6d             	add    %dh,0x6d(%ebp)
 103:	65                   	gs
 104:	73 73                	jae    179 <_init-0x8048283>
 106:	61                   	popa   
 107:	67 65 00 58 04       	add    %bl,%gs:0x4(%bx,%si)
 10c:	00 00                	add    %al,(%eax)
 10e:	75 77                	jne    187 <_init-0x8048275>
 110:	61                   	popa   
 111:	72 6e                	jb     181 <_init-0x804827b>
 113:	69 6e 67 00 0c 05 00 	imul   $0x50c00,0x67(%esi),%ebp
 11a:	00 75 65             	add    %dh,0x65(%ebp)
 11d:	72 72                	jb     191 <_init-0x804826b>
 11f:	6f                   	outsl  %ds:(%esi),(%dx)
 120:	72 00                	jb     122 <_init-0x80482da>
 122:	1b 06                	sbb    (%esi),%eax
 124:	00 00                	add    %al,(%eax)
 126:	6f                   	outsl  %ds:(%esi),(%dx)
 127:	75 74                	jne    19d <_init-0x804825f>
 129:	5f                   	pop    %edi
 12a:	73 74                	jae    1a0 <_init-0x804825c>
 12c:	72 65                	jb     193 <_init-0x8048269>
 12e:	61                   	popa   
 12f:	6d                   	insl   (%dx),%es:(%edi)
 130:	00 00                	add    %al,(%eax)
 132:	00 00                	add    %al,(%eax)
 134:	00 22                	add    %ah,(%edx)
 136:	00 00                	add    %al,(%eax)
 138:	00 02                	add    %al,(%edx)
 13a:	00 f5                	add    %dh,%ch
 13c:	0f 00 00             	sldt   (%eax)
 13f:	26 01 00             	add    %eax,%es:(%eax)
 142:	00 8a 00 00 00 73    	add    %cl,0x73000000(%edx)
 148:	33 32                	xor    (%edx),%esi
 14a:	66 5f                	pop    %di
 14c:	70 61                	jo     1af <_init-0x804824d>
 14e:	72 73                	jb     1c3 <_init-0x8048239>
 150:	65                   	gs
 151:	5f                   	pop    %edi
 152:	61                   	popa   
 153:	72 67                	jb     1bc <_init-0x8048240>
 155:	73 00                	jae    157 <_init-0x80482a5>
 157:	00 00                	add    %al,(%eax)
 159:	00 00                	add    %al,(%eax)
 15b:	36 00 00             	add    %al,%ss:(%eax)
 15e:	00 02                	add    %al,(%edx)
 160:	00 1b                	add    %bl,(%ebx)
 162:	11 00                	adc    %eax,(%eax)
 164:	00 53 01             	add    %dl,0x1(%ebx)
 167:	00 00                	add    %al,(%eax)
 169:	c3                   	ret    
 16a:	00 00                	add    %al,(%eax)
 16c:	00 75 36             	add    %dh,0x36(%ebp)
 16f:	34 66                	xor    $0x66,%al
 171:	5f                   	pop    %edi
 172:	67                   	addr16
 173:	65                   	gs
 174:	74 74                	je     1ea <_init-0x8048212>
 176:	69 6d 65 5f 6d 73 65 	imul   $0x65736d5f,0x65(%ebp),%ebp
 17d:	63 00                	arpl   %ax,(%eax)
 17f:	0d 01 00 00 75       	or     $0x75000001,%eax
 184:	36                   	ss
 185:	34 66                	xor    $0x66,%al
 187:	5f                   	pop    %edi
 188:	67                   	addr16
 189:	65                   	gs
 18a:	74 64                	je     1f0 <_init-0x804820c>
 18c:	65                   	gs
 18d:	6c                   	insb   (%dx),%es:(%edi)
 18e:	74 61                	je     1f1 <_init-0x804820b>
 190:	00 00                	add    %al,(%eax)
 192:	00 00                	add    %al,(%eax)
	...

Disassembly of section .debug_info:

00000000 <.debug_info>:
       0:	5d                   	pop    %ebp
       1:	07                   	pop    %es
       2:	00 00                	add    %al,(%eax)
       4:	02 00                	add    (%eax),%al
       6:	00 00                	add    %al,(%eax)
       8:	00 00                	add    %al,(%eax)
       a:	04 01                	add    $0x1,%al
       c:	2b 00                	sub    (%eax),%eax
       e:	00 00                	add    %al,(%eax)
      10:	01 cf                	add    %ecx,%edi
      12:	01 00                	add    %eax,(%eax)
      14:	00 90 85 04 08 6d    	add    %dl,0x6d080485(%eax)
      1a:	94                   	xchg   %eax,%esp
      1b:	04 08                	add    $0x8,%al
      1d:	00 00                	add    %al,(%eax)
      1f:	00 00                	add    %al,(%eax)
      21:	02 0b                	add    (%ebx),%cl
      23:	00 00                	add    %al,(%eax)
      25:	00 02                	add    %al,(%edx)
      27:	04 2c                	add    $0x2c,%al
      29:	00 00                	add    %al,(%eax)
      2b:	00 03                	add    %al,(%ebx)
      2d:	04 05                	add    $0x5,%al
      2f:	69 6e 74 00 02 02 01 	imul   $0x1020200,0x74(%esi),%ebp
      36:	00 00                	add    %al,(%eax)
      38:	02 05 3e 00 00 00    	add    0x3e,%al
      3e:	04 04                	add    $0x4,%al
      40:	07                   	pop    %es
      41:	78 00                	js     43 <_init-0x80483b9>
      43:	00 00                	add    %al,(%eax)
      45:	04 01                	add    $0x1,%al
      47:	06                   	push   %es
      48:	9c                   	pushf  
      49:	00 00                	add    %al,(%eax)
      4b:	00 02                	add    %al,(%edx)
      4d:	55                   	push   %ebp
      4e:	01 00                	add    %eax,(%eax)
      50:	00 02                	add    %al,(%edx)
      52:	07                   	pop    %es
      53:	57                   	push   %edi
      54:	00 00                	add    %al,(%eax)
      56:	00 04 01             	add    %al,(%ecx,%eax,1)
      59:	08 93 00 00 00 04    	or     %dl,0x4000000(%ebx)
      5f:	02 05 77 01 00 00    	add    0x177,%al
      65:	04 02                	add    $0x2,%al
      67:	07                   	pop    %es
      68:	ae                   	scas   %es:(%edi),%al
      69:	00 00                	add    %al,(%eax)
      6b:	00 04 08             	add    %al,(%eax,%ecx,1)
      6e:	05 69 01 00 00       	add    $0x169,%eax
      73:	02 9c 01 00 00 02 0b 	add    0xb020000(%ecx,%eax,1),%bl
      7a:	7e 00                	jle    7c <_init-0x8048380>
      7c:	00 00                	add    %al,(%eax)
      7e:	04 08                	add    $0x8,%al
      80:	07                   	pop    %es
      81:	6e                   	outsb  %ds:(%esi),(%dx)
      82:	00 00                	add    %al,(%eax)
      84:	00 05 a7 01 00 00    	add    %al,0x1a7
      8a:	14 03                	adc    $0x3,%al
      8c:	0a d8                	or     %al,%bl
      8e:	00 00                	add    %al,(%eax)
      90:	00 06                	add    %al,(%esi)
      92:	f4                   	hlt    
      93:	00 00                	add    %al,(%eax)
      95:	00 03                	add    %al,(%ebx)
      97:	0c 21                	or     $0x21,%al
      99:	00 00                	add    %al,(%eax)
      9b:	00 02                	add    %al,(%edx)
      9d:	23 00                	and    (%eax),%eax
      9f:	06                   	push   %es
      a0:	a1 00 00 00 03       	mov    0x3000000,%eax
      a5:	0d d8 00 00 00       	or     $0xd8,%eax
      aa:	02 23                	add    (%ebx),%ah
      ac:	04 06                	add    $0x6,%al
      ae:	4b                   	dec    %ebx
      af:	01 00                	add    %eax,(%eax)
      b1:	00 03                	add    %al,(%ebx)
      b3:	0e                   	push   %cs
      b4:	de 00                	fiadd  (%eax)
      b6:	00 00                	add    %al,(%eax)
      b8:	02 23                	add    (%ebx),%ah
      ba:	08 06                	or     %al,(%esi)
      bc:	5a                   	pop    %edx
      bd:	01 00                	add    %eax,(%eax)
      bf:	00 03                	add    %al,(%ebx)
      c1:	0f 21                	(bad)  
      c3:	00 00                	add    %al,(%eax)
      c5:	00 02                	add    %al,(%edx)
      c7:	23 0c 06             	and    (%esi,%eax,1),%ecx
      ca:	c1 00 00             	roll   $0x0,(%eax)
      cd:	00 03                	add    %al,(%ebx)
      cf:	10 4c 00 00          	adc    %cl,0x0(%eax,%eax,1)
      d3:	00 02                	add    %al,(%edx)
      d5:	23 10                	and    (%eax),%edx
      d7:	00 07                	add    %al,(%edi)
      d9:	04 73                	add    $0x73,%al
      db:	00 00                	add    %al,(%eax)
      dd:	00 07                	add    %al,(%edi)
      df:	04 33                	add    $0x33,%al
      e1:	00 00                	add    %al,(%eax)
      e3:	00 02                	add    %al,(%edx)
      e5:	65 00 00             	add    %al,%gs:(%eax)
      e8:	00 03                	add    %al,(%ebx)
      ea:	12 85 00 00 00 08    	adc    0x8000000(%ebp),%al
      f0:	01 52 00             	add    %edx,0x0(%edx)
      f3:	00 00                	add    %al,(%eax)
      f5:	01 45 01             	add    %eax,0x1(%ebp)
      f8:	73 00                	jae    fa <_init-0x8048302>
      fa:	00 00                	add    %al,(%eax)
      fc:	01 39                	add    %edi,(%ecx)
      fe:	01 00                	add    %eax,(%eax)
     100:	00 09                	add    %cl,(%ecx)
     102:	37                   	aaa    
     103:	00 00                	add    %al,(%eax)
     105:	00 01                	add    %al,(%ecx)
     107:	45                   	inc    %ebp
     108:	33 00                	xor    (%eax),%eax
     10a:	00 00                	add    %al,(%eax)
     10c:	0a 92 01 00 00 01    	or     0x1000001(%edx),%dl
     112:	47                   	inc    %edi
     113:	73 00                	jae    115 <_init-0x80482e7>
     115:	00 00                	add    %al,(%eax)
     117:	0a 41 01             	or     0x1(%ecx),%al
     11a:	00 00                	add    %al,(%eax)
     11c:	01 48 73             	add    %ecx,0x73(%eax)
     11f:	00 00                	add    %al,(%eax)
     121:	00 0a                	add    %cl,(%edx)
     123:	49                   	dec    %ecx
     124:	00 00                	add    %al,(%eax)
     126:	00 01                	add    %al,(%ecx)
     128:	49                   	dec    %ecx
     129:	73 00                	jae    12b <_init-0x80482d1>
     12b:	00 00                	add    %al,(%eax)
     12d:	0a c6                	or     %dh,%al
     12f:	01 00                	add    %eax,(%eax)
     131:	00 01                	add    %al,(%ecx)
     133:	4a                   	dec    %edx
     134:	33 00                	xor    (%eax),%eax
     136:	00 00                	add    %al,(%eax)
     138:	00 08                	add    %cl,(%eax)
     13a:	01 08                	add    %ecx,(%eax)
     13c:	01 00                	add    %eax,(%eax)
     13e:	00 01                	add    %al,(%ecx)
     140:	0d 01 73 00 00       	or     $0x7301,%eax
     145:	00 01                	add    %al,(%ecx)
     147:	62 01                	bound  %eax,(%ecx)
     149:	00 00                	add    %al,(%eax)
     14b:	09 37                	or     %esi,(%edi)
     14d:	00 00                	add    %al,(%eax)
     14f:	00 01                	add    %al,(%ecx)
     151:	0d 33 00 00 00       	or     $0x33,%eax
     156:	0a d8                	or     %al,%bl
     158:	00 00                	add    %al,(%eax)
     15a:	00 01                	add    %al,(%ecx)
     15c:	0f 73                	(bad)  
     15e:	00 00                	add    %al,(%eax)
     160:	00 00                	add    %al,(%eax)
     162:	0b 39                	or     (%ecx),%edi
     164:	01 00                	add    %eax,(%eax)
     166:	00 90 85 04 08 79    	add    %dl,0x79080485(%eax)
     16c:	88 04 08             	mov    %al,(%eax,%ecx,1)
     16f:	00 00                	add    %al,(%eax)
     171:	00 00                	add    %al,(%eax)
     173:	dd 02                	fldl   (%edx)
     175:	00 00                	add    %al,(%eax)
     177:	0c 4b                	or     $0x4b,%al
     179:	01 00                	add    %eax,(%eax)
     17b:	00 02                	add    %al,(%edx)
     17d:	91                   	xchg   %eax,%ecx
     17e:	00 0d 56 01 00 00    	add    %cl,0x156
     184:	38 00                	cmp    %al,(%eax)
     186:	00 00                	add    %al,(%eax)
     188:	0e                   	push   %cs
     189:	39 01                	cmp    %eax,(%ecx)
     18b:	00 00                	add    %al,(%eax)
     18d:	de 85 04 08 5b 88    	fiadd  -0x77a4f7fc(%ebp)
     193:	04 08                	add    $0x8,%al
     195:	01 16                	add    %edx,(%esi)
     197:	0f 4b 01             	cmovnp (%ecx),%eax
     19a:	00 00                	add    %al,(%eax)
     19c:	54                   	push   %esp
     19d:	00 00                	add    %al,(%eax)
     19f:	00 10                	add    %dl,(%eax)
     1a1:	de 85 04 08 5b 88    	fiadd  -0x77a4f7fc(%ebp)
     1a7:	04 08                	add    $0x8,%al
     1a9:	0d 56 01 00 00       	or     $0x156,%eax
     1ae:	74 00                	je     1b0 <_init-0x804824c>
     1b0:	00 00                	add    %al,(%eax)
     1b2:	0e                   	push   %cs
     1b3:	39 01                	cmp    %eax,(%ecx)
     1b5:	00 00                	add    %al,(%eax)
     1b7:	04 86                	add    $0x86,%al
     1b9:	04 08                	add    $0x8,%al
     1bb:	37                   	aaa    
     1bc:	88 04 08             	mov    %al,(%eax,%ecx,1)
     1bf:	01 16                	add    %edx,(%esi)
     1c1:	0f 4b 01             	cmovnp (%ecx),%eax
     1c4:	00 00                	add    %al,(%eax)
     1c6:	90                   	nop
     1c7:	00 00                	add    %al,(%eax)
     1c9:	00 10                	add    %dl,(%eax)
     1cb:	04 86                	add    $0x86,%al
     1cd:	04 08                	add    $0x8,%al
     1cf:	37                   	aaa    
     1d0:	88 04 08             	mov    %al,(%eax,%ecx,1)
     1d3:	0d 56 01 00 00       	or     $0x156,%eax
     1d8:	a5                   	movsl  %ds:(%esi),%es:(%edi)
     1d9:	00 00                	add    %al,(%eax)
     1db:	00 0e                	add    %cl,(%esi)
     1dd:	39 01                	cmp    %eax,(%ecx)
     1df:	00 00                	add    %al,(%eax)
     1e1:	2a 86 04 08 15 88    	sub    -0x77eaf7fc(%esi),%al
     1e7:	04 08                	add    $0x8,%al
     1e9:	01 16                	add    %edx,(%esi)
     1eb:	0f 4b 01             	cmovnp (%ecx),%eax
     1ee:	00 00                	add    %al,(%eax)
     1f0:	c1 00 00             	roll   $0x0,(%eax)
     1f3:	00 10                	add    %dl,(%eax)
     1f5:	2a 86 04 08 15 88    	sub    -0x77eaf7fc(%esi),%al
     1fb:	04 08                	add    $0x8,%al
     1fd:	0d 56 01 00 00       	or     $0x156,%eax
     202:	d6                   	(bad)  
     203:	00 00                	add    %al,(%eax)
     205:	00 0e                	add    %cl,(%esi)
     207:	39 01                	cmp    %eax,(%ecx)
     209:	00 00                	add    %al,(%eax)
     20b:	50                   	push   %eax
     20c:	86 04 08             	xchg   %al,(%eax,%ecx,1)
     20f:	f3 87 04 08          	repz xchg %eax,(%eax,%ecx,1)
     213:	01 16                	add    %edx,(%esi)
     215:	0f 4b 01             	cmovnp (%ecx),%eax
     218:	00 00                	add    %al,(%eax)
     21a:	f2 00 00             	repnz add %al,(%eax)
     21d:	00 10                	add    %dl,(%eax)
     21f:	50                   	push   %eax
     220:	86 04 08             	xchg   %al,(%eax,%ecx,1)
     223:	f3 87 04 08          	repz xchg %eax,(%eax,%ecx,1)
     227:	0d 56 01 00 00       	or     $0x156,%eax
     22c:	07                   	pop    %es
     22d:	01 00                	add    %eax,(%eax)
     22f:	00 0e                	add    %cl,(%esi)
     231:	39 01                	cmp    %eax,(%ecx)
     233:	00 00                	add    %al,(%eax)
     235:	5f                   	pop    %edi
     236:	86 04 08             	xchg   %al,(%eax,%ecx,1)
     239:	d1 87 04 08 01 16    	roll   0x16010804(%edi)
     23f:	0f 4b 01             	cmovnp (%ecx),%eax
     242:	00 00                	add    %al,(%eax)
     244:	23 01                	and    (%ecx),%eax
     246:	00 00                	add    %al,(%eax)
     248:	10 5f 86             	adc    %bl,-0x7a(%edi)
     24b:	04 08                	add    $0x8,%al
     24d:	d1 87 04 08 0d 56    	roll   0x560d0804(%edi)
     253:	01 00                	add    %eax,(%eax)
     255:	00 38                	add    %bh,(%eax)
     257:	01 00                	add    %eax,(%eax)
     259:	00 11                	add    %dl,(%ecx)
     25b:	39 01                	cmp    %eax,(%ecx)
     25d:	00 00                	add    %al,(%eax)
     25f:	80 86 04 08 00 00 00 	addb   $0x0,0x804(%esi)
     266:	00 01                	add    %al,(%ecx)
     268:	16                   	push   %ss
     269:	0f 4b 01             	cmovnp (%ecx),%eax
     26c:	00 00                	add    %al,(%eax)
     26e:	73 01                	jae    271 <_init-0x804818b>
     270:	00 00                	add    %al,(%eax)
     272:	12 28                	adc    (%eax),%ch
     274:	00 00                	add    %al,(%eax)
     276:	00 0d 56 01 00 00    	add    %cl,0x156
     27c:	95                   	xchg   %eax,%ebp
     27d:	01 00                	add    %eax,(%eax)
     27f:	00 11                	add    %dl,(%ecx)
     281:	39 01                	cmp    %eax,(%ecx)
     283:	00 00                	add    %al,(%eax)
     285:	a4                   	movsb  %ds:(%esi),%es:(%edi)
     286:	86 04 08             	xchg   %al,(%eax,%ecx,1)
     289:	50                   	push   %eax
     28a:	00 00                	add    %al,(%eax)
     28c:	00 01                	add    %al,(%ecx)
     28e:	16                   	push   %ss
     28f:	0f 4b 01             	cmovnp (%ecx),%eax
     292:	00 00                	add    %al,(%eax)
     294:	d0 01                	rolb   (%ecx)
     296:	00 00                	add    %al,(%eax)
     298:	12 88 00 00 00 0d    	adc    0xd000000(%eax),%cl
     29e:	56                   	push   %esi
     29f:	01 00                	add    %eax,(%eax)
     2a1:	00 f0                	add    %dh,%al
     2a3:	01 00                	add    %eax,(%eax)
     2a5:	00 11                	add    %dl,(%ecx)
     2a7:	39 01                	cmp    %eax,(%ecx)
     2a9:	00 00                	add    %al,(%eax)
     2ab:	c8 86 04 08          	enter  $0x486,$0x8
     2af:	c0 00 00             	rolb   $0x0,(%eax)
     2b2:	00 01                	add    %al,(%ecx)
     2b4:	16                   	push   %ss
     2b5:	0f 4b 01             	cmovnp (%ecx),%eax
     2b8:	00 00                	add    %al,(%eax)
     2ba:	2b 02                	sub    (%edx),%eax
     2bc:	00 00                	add    %al,(%eax)
     2be:	12 e8                	adc    %al,%ch
     2c0:	00 00                	add    %al,(%eax)
     2c2:	00 0d 56 01 00 00    	add    %cl,0x156
     2c8:	4a                   	dec    %edx
     2c9:	02 00                	add    (%eax),%al
	...
     2db:	00 00                	add    %al,(%eax)
     2dd:	08 01                	or     %al,(%ecx)
     2df:	21 01                	and    %eax,(%ecx)
     2e1:	00 00                	add    %al,(%eax)
     2e3:	01 1c 01             	add    %ebx,(%ecx,%eax,1)
     2e6:	73 00                	jae    2e8 <_init-0x8048114>
     2e8:	00 00                	add    %al,(%eax)
     2ea:	01 1c 03             	add    %ebx,(%ebx,%eax,1)
     2ed:	00 00                	add    %al,(%eax)
     2ef:	09 37                	or     %esi,(%edi)
     2f1:	00 00                	add    %al,(%eax)
     2f3:	00 01                	add    %al,(%ecx)
     2f5:	1c 33                	sbb    $0x33,%al
     2f7:	00 00                	add    %al,(%eax)
     2f9:	00 0a                	add    %cl,(%edx)
     2fb:	81 01 00 00 01 1e    	addl   $0x1e010000,(%ecx)
     301:	e4 00                	in     $0x0,%al
     303:	00 00                	add    %al,(%eax)
     305:	0a 1d 00 00 00 01    	or     0x1000000,%bl
     30b:	1f                   	pop    %ds
     30c:	33 00                	xor    (%eax),%eax
     30e:	00 00                	add    %al,(%eax)
     310:	0a d8                	or     %al,%bl
     312:	00 00                	add    %al,(%eax)
     314:	00 01                	add    %al,(%ecx)
     316:	20 73 00             	and    %dh,0x0(%ebx)
     319:	00 00                	add    %al,(%eax)
     31b:	00 0b                	add    %cl,(%ebx)
     31d:	dd 02                	fldl   (%edx)
     31f:	00 00                	add    %al,(%eax)
     321:	80 88 04 08 f7 91 04 	orb    $0x4,-0x6e08f7fc(%eax)
     328:	08 85 02 00 00 d9    	or     %al,-0x26fffffe(%ebp)
     32e:	05 00 00 0c ef       	add    $0xef0c0000,%eax
     333:	02 00                	add    (%eax),%al
     335:	00 02                	add    %al,(%edx)
     337:	91                   	xchg   %eax,%ecx
     338:	00 13                	add    %dl,(%ebx)
     33a:	fa                   	cli    
     33b:	02 00                	add    (%eax),%al
     33d:	00 05 03 90 b0 04    	add    %al,0x4b09003
     343:	08 13                	or     %dl,(%ebx)
     345:	05 03 00 00 05       	add    $0x5000003,%eax
     34a:	03 8c b0 04 08 0d 10 	add    0x100d0804(%eax,%esi,4),%ecx
     351:	03 00                	add    (%eax),%eax
     353:	00 d5                	add    %dl,%ch
     355:	02 00                	add    (%eax),%al
     357:	00 14 dd 02 00 00 23 	add    %dl,0x23000002(,%ebx,8)
     35e:	89 04 08             	mov    %eax,(%eax,%ecx,1)
     361:	10 01                	adc    %al,(%ecx)
     363:	00 00                	add    %al,(%eax)
     365:	01 3b                	add    %edi,(%ebx)
     367:	1a 04 00             	sbb    (%eax,%eax,1),%al
     36a:	00 0f                	add    %cl,(%edi)
     36c:	ef                   	out    %eax,(%dx)
     36d:	02 00                	add    (%eax),%al
     36f:	00 49 03             	add    %cl,0x3(%ecx)
     372:	00 00                	add    %al,(%eax)
     374:	12 48 01             	adc    0x1(%eax),%cl
     377:	00 00                	add    %al,(%eax)
     379:	0d 10 03 00 00       	or     $0x310,%eax
     37e:	88 03                	mov    %al,(%ebx)
     380:	00 00                	add    %al,(%eax)
     382:	13 fa                	adc    %edx,%edi
     384:	02 00                	add    (%eax),%al
     386:	00 05 03 90 b0 04    	add    %al,0x4b09003
     38c:	08 13                	or     %dl,(%ebx)
     38e:	05 03 00 00 05       	add    $0x5000003,%eax
     393:	03 8c b0 04 08 14 dd 	add    -0x22ebf7fc(%eax,%esi,4),%ecx
     39a:	02 00                	add    (%eax),%al
     39c:	00 2d 8a 04 08 80    	add    %ch,0x8008048a
     3a2:	01 00                	add    %eax,(%eax)
     3a4:	00 01                	add    %al,(%ecx)
     3a6:	3b da                	cmp    %edx,%ebx
     3a8:	03 00                	add    (%eax),%eax
     3aa:	00 0f                	add    %cl,(%edi)
     3ac:	ef                   	out    %eax,(%dx)
     3ad:	02 00                	add    (%eax),%al
     3af:	00 2c 04             	add    %ch,(%esp,%eax,1)
     3b2:	00 00                	add    %al,(%eax)
     3b4:	12 a8 01 00 00 0d    	adc    0xd000001(%eax),%ch
     3ba:	10 03                	adc    %al,(%ebx)
     3bc:	00 00                	add    %al,(%eax)
     3be:	79 04                	jns    3c4 <_init-0x8048038>
     3c0:	00 00                	add    %al,(%eax)
     3c2:	13 fa                	adc    %edx,%edi
     3c4:	02 00                	add    (%eax),%al
     3c6:	00 05 03 90 b0 04    	add    %al,0x4b09003
     3cc:	08 13                	or     %dl,(%ebx)
     3ce:	05 03 00 00 05       	add    $0x5000003,%eax
     3d3:	03 8c b0 04 08 00 00 	add    0x804(%eax,%esi,4),%ecx
     3da:	11 dd                	adc    %ebx,%ebp
     3dc:	02 00                	add    (%eax),%al
     3de:	00 ed                	add    %ch,%ch
     3e0:	89 04 08             	mov    %eax,(%eax,%ecx,1)
     3e3:	d0 01                	rolb   (%ecx)
     3e5:	00 00                	add    %al,(%eax)
     3e7:	01 3b                	add    %edi,(%ebx)
     3e9:	0f ef 02             	pxor   (%edx),%mm0
     3ec:	00 00                	add    %al,(%eax)
     3ee:	fd                   	std    
     3ef:	04 00                	add    $0x0,%al
     3f1:	00 12                	add    %dl,(%edx)
     3f3:	e8 01 00 00 0d       	call   d0003f9 <_end+0x4fb5351>
     3f8:	10 03                	adc    %al,(%ebx)
     3fa:	00 00                	add    %al,(%eax)
     3fc:	1b 05 00 00 13 fa    	sbb    0xfa130000,%eax
     402:	02 00                	add    (%eax),%al
     404:	00 05 03 90 b0 04    	add    %al,0x4b09003
     40a:	08 13                	or     %dl,(%ebx)
     40c:	05 03 00 00 05       	add    $0x5000003,%eax
     411:	03 8c b0 04 08 00 00 	add    0x804(%eax,%esi,4),%ecx
     418:	00 00                	add    %al,(%eax)
     41a:	11 dd                	adc    %ebx,%ebp
     41c:	02 00                	add    (%eax),%al
     41e:	00 5b 89             	add    %bl,-0x77(%ebx)
     421:	04 08                	add    $0x8,%al
     423:	00 02                	add    %al,(%edx)
     425:	00 00                	add    %al,(%eax)
     427:	01 3b                	add    %edi,(%ebx)
     429:	0f ef 02             	pxor   (%edx),%mm0
     42c:	00 00                	add    %al,(%eax)
     42e:	8b 05 00 00 12 38    	mov    0x38120000,%eax
     434:	02 00                	add    (%eax),%al
     436:	00 0d 10 03 00 00    	add    %cl,0x310
     43c:	d5 05                	aad    $0x5
     43e:	00 00                	add    %al,(%eax)
     440:	13 fa                	adc    %edx,%edi
     442:	02 00                	add    (%eax),%al
     444:	00 05 03 90 b0 04    	add    %al,0x4b09003
     44a:	08 13                	or     %dl,(%ebx)
     44c:	05 03 00 00 05       	add    $0x5000003,%eax
     451:	03 8c b0 04 08 14 dd 	add    -0x22ebf7fc(%eax,%esi,4),%ecx
     458:	02 00                	add    (%eax),%al
     45a:	00 01                	add    %al,(%ecx)
     45c:	8b 04 08             	mov    (%eax,%ecx,1),%eax
     45f:	70 02                	jo     463 <_init-0x8047f99>
     461:	00 00                	add    %al,(%eax)
     463:	01 3b                	add    %edi,(%ebx)
     465:	18 05 00 00 0f ef    	sbb    %al,0xef0f0000
     46b:	02 00                	add    (%eax),%al
     46d:	00 49 06             	add    %cl,0x6(%ecx)
     470:	00 00                	add    %al,(%eax)
     472:	12 a8 02 00 00 0d    	adc    0xd000002(%eax),%ch
     478:	10 03                	adc    %al,(%ebx)
     47a:	00 00                	add    %al,(%eax)
     47c:	ae                   	scas   %es:(%edi),%al
     47d:	06                   	push   %es
     47e:	00 00                	add    %al,(%eax)
     480:	13 fa                	adc    %edx,%edi
     482:	02 00                	add    (%eax),%al
     484:	00 05 03 90 b0 04    	add    %al,0x4b09003
     48a:	08 13                	or     %dl,(%ebx)
     48c:	05 03 00 00 05       	add    $0x5000003,%eax
     491:	03 8c b0 04 08 14 dd 	add    -0x22ebf7fc(%eax,%esi,4),%ecx
     498:	02 00                	add    (%eax),%al
     49a:	00 c9                	add    %cl,%cl
     49c:	8c 04 08             	mov    %es,(%eax,%ecx,1)
     49f:	e0 02                	loopne 4a3 <_init-0x8047f59>
     4a1:	00 00                	add    %al,(%eax)
     4a3:	01 3b                	add    %edi,(%ebx)
     4a5:	d8 04 00             	fadds  (%eax,%eax,1)
     4a8:	00 0f                	add    %cl,(%edi)
     4aa:	ef                   	out    %eax,(%dx)
     4ab:	02 00                	add    (%eax),%al
     4ad:	00 32                	add    %dh,(%edx)
     4af:	07                   	pop    %es
     4b0:	00 00                	add    %al,(%eax)
     4b2:	12 08                	adc    (%eax),%cl
     4b4:	03 00                	add    (%eax),%eax
     4b6:	00 0d 10 03 00 00    	add    %cl,0x310
     4bc:	7f 07                	jg     4c5 <_init-0x8047f37>
     4be:	00 00                	add    %al,(%eax)
     4c0:	13 fa                	adc    %edx,%edi
     4c2:	02 00                	add    (%eax),%al
     4c4:	00 05 03 90 b0 04    	add    %al,0x4b09003
     4ca:	08 13                	or     %dl,(%ebx)
     4cc:	05 03 00 00 05       	add    $0x5000003,%eax
     4d1:	03 8c b0 04 08 00 00 	add    0x804(%eax,%esi,4),%ecx
     4d8:	11 dd                	adc    %ebx,%ebp
     4da:	02 00                	add    (%eax),%al
     4dc:	00 7b 8c             	add    %bh,-0x74(%ebx)
     4df:	04 08                	add    $0x8,%al
     4e1:	30 03                	xor    %al,(%ebx)
     4e3:	00 00                	add    %al,(%eax)
     4e5:	01 3b                	add    %edi,(%ebx)
     4e7:	0f ef 02             	pxor   (%edx),%mm0
     4ea:	00 00                	add    %al,(%eax)
     4ec:	03 08                	add    (%eax),%ecx
     4ee:	00 00                	add    %al,(%eax)
     4f0:	12 50 03             	adc    0x3(%eax),%dl
     4f3:	00 00                	add    %al,(%eax)
     4f5:	0d 10 03 00 00       	or     $0x310,%eax
     4fa:	21 08                	and    %ecx,(%eax)
     4fc:	00 00                	add    %al,(%eax)
     4fe:	13 fa                	adc    %edx,%edi
     500:	02 00                	add    (%eax),%al
     502:	00 05 03 90 b0 04    	add    %al,0x4b09003
     508:	08 13                	or     %dl,(%ebx)
     50a:	05 03 00 00 05       	add    $0x5000003,%eax
     50f:	03 8c b0 04 08 00 00 	add    0x804(%eax,%esi,4),%ecx
     516:	00 00                	add    %al,(%eax)
     518:	11 dd                	adc    %ebx,%ebp
     51a:	02 00                	add    (%eax),%al
     51c:	00 bd 8a 04 08 70    	add    %bh,0x7008048a(%ebp)
     522:	03 00                	add    (%eax),%eax
     524:	00 01                	add    %al,(%ecx)
     526:	3b 0f                	cmp    (%edi),%ecx
     528:	ef                   	out    %eax,(%dx)
     529:	02 00                	add    (%eax),%al
     52b:	00 81 08 00 00 12    	add    %al,0x12000008(%ecx)
     531:	a8 03                	test   $0x3,%al
     533:	00 00                	add    %al,(%eax)
     535:	0d 10 03 00 00       	or     $0x310,%eax
     53a:	c4 08                	les    (%eax),%ecx
     53c:	00 00                	add    %al,(%eax)
     53e:	13 fa                	adc    %edx,%edi
     540:	02 00                	add    (%eax),%al
     542:	00 05 03 90 b0 04    	add    %al,0x4b09003
     548:	08 13                	or     %dl,(%ebx)
     54a:	05 03 00 00 05       	add    $0x5000003,%eax
     54f:	03 8c b0 04 08 14 dd 	add    -0x22ebf7fc(%eax,%esi,4),%ecx
     556:	02 00                	add    (%eax),%al
     558:	00 d8                	add    %bl,%al
     55a:	8d 04 08             	lea    (%eax,%ecx,1),%eax
     55d:	e0 03                	loopne 562 <_init-0x8047e9a>
     55f:	00 00                	add    %al,(%eax)
     561:	01 3b                	add    %edi,(%ebx)
     563:	96                   	xchg   %eax,%esi
     564:	05 00 00 0f ef       	add    $0xef0f0000,%eax
     569:	02 00                	add    (%eax),%al
     56b:	00 48 09             	add    %cl,0x9(%eax)
     56e:	00 00                	add    %al,(%eax)
     570:	12 00                	adc    (%eax),%al
     572:	04 00                	add    $0x0,%al
     574:	00 0d 10 03 00 00    	add    %cl,0x310
     57a:	71 09                	jno    585 <_init-0x8047e77>
     57c:	00 00                	add    %al,(%eax)
     57e:	13 fa                	adc    %edx,%edi
     580:	02 00                	add    (%eax),%al
     582:	00 05 03 90 b0 04    	add    %al,0x4b09003
     588:	08 13                	or     %dl,(%ebx)
     58a:	05 03 00 00 05       	add    $0x5000003,%eax
     58f:	03 8c b0 04 08 00 00 	add    0x804(%eax,%esi,4),%ecx
     596:	11 dd                	adc    %ebx,%ebp
     598:	02 00                	add    (%eax),%al
     59a:	00 8b 8d 04 08 20    	add    %cl,0x2008048d(%ebx)
     5a0:	04 00                	add    $0x0,%al
     5a2:	00 01                	add    %al,(%ecx)
     5a4:	3b 0f                	cmp    (%edi),%ecx
     5a6:	ef                   	out    %eax,(%dx)
     5a7:	02 00                	add    (%eax),%al
     5a9:	00 dc                	add    %bl,%ah
     5ab:	09 00                	or     %eax,(%eax)
     5ad:	00 12                	add    %dl,(%edx)
     5af:	40                   	inc    %eax
     5b0:	04 00                	add    $0x0,%al
     5b2:	00 0d 10 03 00 00    	add    %cl,0x310
     5b8:	fa                   	cli    
     5b9:	09 00                	or     %eax,(%eax)
     5bb:	00 13                	add    %dl,(%ebx)
     5bd:	fa                   	cli    
     5be:	02 00                	add    (%eax),%al
     5c0:	00 05 03 90 b0 04    	add    %al,0x4b09003
     5c6:	08 13                	or     %dl,(%ebx)
     5c8:	05 03 00 00 05       	add    $0x5000003,%eax
     5cd:	03 8c b0 04 08 00 00 	add    0x804(%eax,%esi,4),%ecx
     5d4:	00 00                	add    %al,(%eax)
     5d6:	00 00                	add    %al,(%eax)
     5d8:	00 0b                	add    %cl,(%ebx)
     5da:	ef                   	out    %eax,(%dx)
     5db:	00 00                	add    %al,(%eax)
     5dd:	00 00                	add    %al,(%eax)
     5df:	92                   	xchg   %eax,%edx
     5e0:	04 08                	add    $0x8,%al
     5e2:	57                   	push   %edi
     5e3:	92                   	xchg   %eax,%edx
     5e4:	04 08                	add    $0x8,%al
     5e6:	66                   	data16
     5e7:	0a 00                	or     (%eax),%al
     5e9:	00 1b                	add    %bl,(%ebx)
     5eb:	06                   	push   %es
     5ec:	00 00                	add    %al,(%eax)
     5ee:	0c 01                	or     $0x1,%al
     5f0:	01 00                	add    %eax,(%eax)
     5f2:	00 02                	add    %al,(%edx)
     5f4:	91                   	xchg   %eax,%ecx
     5f5:	00 0d 0c 01 00 00    	add    %cl,0x10c
     5fb:	9e                   	sahf   
     5fc:	0a 00                	or     (%eax),%al
     5fe:	00 0d 17 01 00 00    	add    %cl,0x117
     604:	da 0a                	fimull (%edx)
     606:	00 00                	add    %al,(%eax)
     608:	0d 22 01 00 00       	or     $0x122,%eax
     60d:	16                   	push   %ss
     60e:	0b 00                	or     (%eax),%eax
     610:	00 0d 2d 01 00 00    	add    %cl,0x12d
     616:	62 0b                	bound  %ecx,(%ebx)
     618:	00 00                	add    %al,(%eax)
     61a:	00 15 01 e1 00 00    	add    %dl,0xe101
     620:	00 01                	add    %al,(%ecx)
     622:	5e                   	pop    %esi
     623:	01 21                	add    %esp,(%ecx)
     625:	00 00                	add    %al,(%eax)
     627:	00 60 92             	add    %ah,-0x6e(%eax)
     62a:	04 08                	add    $0x8,%al
     62c:	4c                   	dec    %esp
     62d:	94                   	xchg   %eax,%esp
     62e:	04 08                	add    $0x8,%al
     630:	8c 0b                	mov    %cs,(%ebx)
     632:	00 00                	add    %al,(%eax)
     634:	0f 07                	sysret 
     636:	00 00                	add    %al,(%eax)
     638:	16                   	push   %ss
     639:	64 01 00             	add    %eax,%fs:(%eax)
     63c:	00 01                	add    %al,(%ecx)
     63e:	5e                   	pop    %esi
     63f:	2c 00                	sub    $0x0,%al
     641:	00 00                	add    %al,(%eax)
     643:	02 91 00 16 a2 01    	add    0x1a21600(%ecx),%dl
     649:	00 00                	add    %al,(%eax)
     64b:	01 5e 0f             	add    %ebx,0xf(%esi)
     64e:	07                   	pop    %es
     64f:	00 00                	add    %al,(%eax)
     651:	02 91 04 17 bd 01    	add    0x1bd1704(%ecx),%dl
     657:	00 00                	add    %al,(%eax)
     659:	01 60 21             	add    %esp,0x21(%eax)
     65c:	00 00                	add    %al,(%eax)
     65e:	00 00                	add    %al,(%eax)
     660:	0c 00                	or     $0x0,%al
     662:	00 18                	add    %bl,(%eax)
     664:	37                   	aaa    
     665:	00 00                	add    %al,(%eax)
     667:	00 01                	add    %al,(%ecx)
     669:	61                   	popa   
     66a:	33 00                	xor    (%eax),%eax
     66c:	00 00                	add    %al,(%eax)
     66e:	02 91 5c 17 00 00    	add    0x175c(%ecx),%dl
     674:	00 00                	add    %al,(%eax)
     676:	01 62 21             	add    %esp,0x21(%edx)
     679:	00 00                	add    %al,(%eax)
     67b:	00 67 0c             	add    %ah,0xc(%edi)
     67e:	00 00                	add    %al,(%eax)
     680:	17                   	pop    %ss
     681:	85 00                	test   %eax,(%eax)
     683:	00 00                	add    %al,(%eax)
     685:	01 63 73             	add    %esp,0x73(%ebx)
     688:	00 00                	add    %al,(%eax)
     68a:	00 a7 0c 00 00 17    	add    %ah,0x1700000c(%edi)
     690:	3e 00 00             	add    %al,%ds:(%eax)
     693:	00 01                	add    %al,(%ecx)
     695:	65 33 00             	xor    %gs:(%eax),%eax
     698:	00 00                	add    %al,(%eax)
     69a:	1b 0d 00 00 17 cc    	sbb    0xcc170000,%ecx
     6a0:	00 00                	add    %al,(%eax)
     6a2:	00 01                	add    %al,(%ecx)
     6a4:	66                   	data16
     6a5:	73 00                	jae    6a7 <_init-0x8047d55>
     6a7:	00 00                	add    %al,(%eax)
     6a9:	68 0d 00 00 17       	push   $0x1700000d
     6ae:	b1 01                	mov    $0x1,%cl
     6b0:	00 00                	add    %al,(%eax)
     6b2:	01 67 73             	add    %esp,0x73(%edi)
     6b5:	00 00                	add    %al,(%eax)
     6b7:	00 bc 0d 00 00 17 11 	add    %bh,0x11170000(%ebp,%ecx,1)
     6be:	00 00                	add    %al,(%eax)
     6c0:	00 01                	add    %al,(%ecx)
     6c2:	68 73 00 00 00       	push   $0x73
     6c7:	10 0e                	adc    %cl,(%esi)
     6c9:	00 00                	add    %al,(%eax)
     6cb:	11 ef                	adc    %ebp,%edi
     6cd:	00 00                	add    %al,(%eax)
     6cf:	00 67 93             	add    %ah,-0x6d(%edi)
     6d2:	04 08                	add    $0x8,%al
     6d4:	60                   	pusha  
     6d5:	04 00                	add    $0x0,%al
     6d7:	00 01                	add    %al,(%ecx)
     6d9:	85 0f                	test   %ecx,(%edi)
     6db:	01 01                	add    %eax,(%ecx)
     6dd:	00 00                	add    %al,(%eax)
     6df:	50                   	push   %eax
     6e0:	0e                   	push   %cs
     6e1:	00 00                	add    %al,(%eax)
     6e3:	12 78 04             	adc    0x4(%eax),%bh
     6e6:	00 00                	add    %al,(%eax)
     6e8:	0d 0c 01 00 00       	or     $0x10c,%eax
     6ed:	64                   	fs
     6ee:	0e                   	push   %cs
     6ef:	00 00                	add    %al,(%eax)
     6f1:	0d 17 01 00 00       	or     $0x117,%eax
     6f6:	a0 0e 00 00 0d       	mov    0xd00000e,%al
     6fb:	22 01                	and    (%ecx),%al
     6fd:	00 00                	add    %al,(%eax)
     6ff:	dc 0e                	fmull  (%esi)
     701:	00 00                	add    %al,(%eax)
     703:	0d 2d 01 00 00       	or     $0x12d,%eax
     708:	18 0f                	sbb    %cl,(%edi)
     70a:	00 00                	add    %al,(%eax)
     70c:	00 00                	add    %al,(%eax)
     70e:	00 07                	add    %al,(%edi)
     710:	04 15                	add    $0x15,%al
     712:	07                   	pop    %es
     713:	00 00                	add    %al,(%eax)
     715:	07                   	pop    %es
     716:	04 45                	add    $0x45,%al
     718:	00 00                	add    %al,(%eax)
     71a:	00 19                	add    %bl,(%ecx)
     71c:	01 fd                	add    %edi,%ebp
     71e:	00 00                	add    %al,(%eax)
     720:	00 01                	add    %al,(%ecx)
     722:	9b                   	fwait
     723:	01 2c 00             	add    %ebp,(%eax,%eax,1)
     726:	00 00                	add    %al,(%eax)
     728:	50                   	push   %eax
     729:	94                   	xchg   %eax,%esp
     72a:	04 08                	add    $0x8,%al
     72c:	6d                   	insl   (%dx),%es:(%edi)
     72d:	94                   	xchg   %eax,%esp
     72e:	04 08                	add    $0x8,%al
     730:	42                   	inc    %edx
     731:	0f 00 00             	sldt   (%eax)
     734:	16                   	push   %ss
     735:	64 01 00             	add    %eax,%fs:(%eax)
     738:	00 01                	add    %al,(%ecx)
     73a:	9b                   	fwait
     73b:	2c 00                	sub    $0x0,%al
     73d:	00 00                	add    %al,(%eax)
     73f:	02 91 00 16 a2 01    	add    0x1a21600(%ecx),%dl
     745:	00 00                	add    %al,(%eax)
     747:	01 9b 0f 07 00 00    	add    %ebx,0x70f(%ebx)
     74d:	02 91 04 17 8c 00    	add    0x8c1704(%ecx),%dl
     753:	00 00                	add    %al,(%eax)
     755:	01 9d 2c 00 00 00    	add    %ebx,0x2c(%ebp)
     75b:	7a 0f                	jp     76c <_init-0x8047c90>
     75d:	00 00                	add    %al,(%eax)
     75f:	00 00                	add    %al,(%eax)
     761:	62 02                	bound  %eax,(%edx)
     763:	00 00                	add    %al,(%eax)
     765:	02 00                	add    (%eax),%al
     767:	5a                   	pop    %edx
     768:	01 00                	add    %eax,(%eax)
     76a:	00 04 01             	add    %al,(%ecx,%eax,1)
     76d:	2b 00                	sub    (%eax),%eax
     76f:	00 00                	add    %al,(%eax)
     771:	01 43 02             	add    %eax,0x2(%ebx)
     774:	00 00                	add    %al,(%eax)
     776:	70 94                	jo     70c <_init-0x8047cf0>
     778:	04 08                	add    $0x8,%al
     77a:	a4                   	movsb  %ds:(%esi),%es:(%edi)
     77b:	96                   	xchg   %eax,%esi
     77c:	04 08                	add    $0x8,%al
     77e:	0b 03                	or     (%ebx),%eax
     780:	00 00                	add    %al,(%eax)
     782:	02 04 07             	add    (%edi,%eax,1),%al
     785:	78 00                	js     787 <_init-0x8047c75>
     787:	00 00                	add    %al,(%eax)
     789:	03 04 05 69 6e 74 00 	add    0x746e69(,%eax,1),%eax
     790:	02 04 05 6e 01 00 00 	add    0x16e(,%eax,1),%al
     797:	02 08                	add    (%eax),%cl
     799:	05 69 01 00 00       	add    $0x169,%eax
     79e:	02 01                	add    (%ecx),%al
     7a0:	08 93 00 00 00 02    	or     %dl,0x2000000(%ebx)
     7a6:	02 07                	add    (%edi),%al
     7a8:	ae                   	scas   %es:(%edi),%al
     7a9:	00 00                	add    %al,(%eax)
     7ab:	00 02                	add    %al,(%edx)
     7ad:	04 07                	add    $0x7,%al
     7af:	73 00                	jae    7b1 <_init-0x8047c4b>
     7b1:	00 00                	add    %al,(%eax)
     7b3:	02 01                	add    (%ecx),%al
     7b5:	06                   	push   %es
     7b6:	95                   	xchg   %eax,%ebp
     7b7:	00 00                	add    %al,(%eax)
     7b9:	00 02                	add    %al,(%edx)
     7bb:	02 05 77 01 00 00    	add    0x177,%al
     7c1:	02 08                	add    (%eax),%cl
     7c3:	07                   	pop    %es
     7c4:	6e                   	outsb  %ds:(%esi),(%dx)
     7c5:	00 00                	add    %al,(%eax)
     7c7:	00 02                	add    %al,(%edx)
     7c9:	01 06                	add    %eax,(%esi)
     7cb:	9c                   	pushf  
     7cc:	00 00                	add    %al,(%eax)
     7ce:	00 04 0b             	add    %al,(%ebx,%ecx,1)
     7d1:	00 00                	add    %al,(%eax)
     7d3:	00 02                	add    %al,(%edx)
     7d5:	04 28                	add    $0x28,%al
     7d7:	00 00                	add    %al,(%eax)
     7d9:	00 04 02             	add    %al,(%edx,%eax,1)
     7dc:	01 00                	add    %eax,(%eax)
     7de:	00 02                	add    %al,(%edx)
     7e0:	05 21 00 00 00       	add    $0x21,%eax
     7e5:	04 55                	add    $0x55,%al
     7e7:	01 00                	add    %eax,(%eax)
     7e9:	00 02                	add    %al,(%edx)
     7eb:	07                   	pop    %es
     7ec:	3d 00 00 00 04       	cmp    $0x4000000,%eax
     7f1:	9c                   	pushf  
     7f2:	01 00                	add    %eax,(%eax)
     7f4:	00 02                	add    %al,(%edx)
     7f6:	0b 60 00             	or     0x0(%eax),%esp
     7f9:	00 00                	add    %al,(%eax)
     7fb:	05 a7 01 00 00       	add    $0x1a7,%eax
     800:	14 03                	adc    $0x3,%al
     802:	0a ed                	or     %ch,%ch
     804:	00 00                	add    %al,(%eax)
     806:	00 06                	add    %al,(%esi)
     808:	f4                   	hlt    
     809:	00 00                	add    %al,(%eax)
     80b:	00 03                	add    %al,(%ebx)
     80d:	0c 6e                	or     $0x6e,%al
     80f:	00 00                	add    %al,(%eax)
     811:	00 02                	add    %al,(%edx)
     813:	23 00                	and    (%eax),%eax
     815:	06                   	push   %es
     816:	a1 00 00 00 03       	mov    0x3000000,%eax
     81b:	0d ed 00 00 00       	or     $0xed,%eax
     820:	02 23                	add    (%ebx),%ah
     822:	04 06                	add    $0x6,%al
     824:	4b                   	dec    %ebx
     825:	01 00                	add    %eax,(%eax)
     827:	00 03                	add    %al,(%ebx)
     829:	0e                   	push   %cs
     82a:	f3 00 00             	repz add %al,(%eax)
     82d:	00 02                	add    %al,(%edx)
     82f:	23 08                	and    (%eax),%ecx
     831:	06                   	push   %es
     832:	5a                   	pop    %edx
     833:	01 00                	add    %eax,(%eax)
     835:	00 03                	add    %al,(%ebx)
     837:	0f 6e 00             	movd   (%eax),%mm0
     83a:	00 00                	add    %al,(%eax)
     83c:	02 23                	add    (%ebx),%ah
     83e:	0c 06                	or     $0x6,%al
     840:	c1 00 00             	roll   $0x0,(%eax)
     843:	00 03                	add    %al,(%ebx)
     845:	10 84 00 00 00 02 23 	adc    %al,0x23020000(%eax,%eax,1)
     84c:	10 00                	adc    %al,(%eax)
     84e:	07                   	pop    %es
     84f:	04 8f                	add    $0x8f,%al
     851:	00 00                	add    %al,(%eax)
     853:	00 07                	add    %al,(%edi)
     855:	04 79                	add    $0x79,%al
     857:	00 00                	add    %al,(%eax)
     859:	00 04 65 00 00 00 03 	add    %al,0x3000000(,%eiz,2)
     860:	12 9a 00 00 00 08    	adc    0x8000000(%edx),%bl
     866:	01 ff                	add    %edi,%edi
     868:	01 00                	add    %eax,(%eax)
     86a:	00 01                	add    %al,(%ecx)
     86c:	0c 01                	or     $0x1,%al
     86e:	6e                   	outsb  %ds:(%esi),(%dx)
     86f:	00 00                	add    %al,(%eax)
     871:	00 70 94             	add    %dh,-0x6c(%eax)
     874:	04 08                	add    $0x8,%al
     876:	21 95 04 08 99 0f    	and    %edx,0xf990804(%ebp)
     87c:	00 00                	add    %al,(%eax)
     87e:	79 01                	jns    881 <_init-0x8047b7b>
     880:	00 00                	add    %al,(%eax)
     882:	09 6a 02             	or     %ebp,0x2(%edx)
     885:	00 00                	add    %al,(%eax)
     887:	01 0c 6e             	add    %ecx,(%esi,%ebp,2)
     88a:	00 00                	add    %al,(%eax)
     88c:	00 02                	add    %al,(%edx)
     88e:	91                   	xchg   %eax,%ecx
     88f:	00 09                	add    %cl,(%ecx)
     891:	8b 02                	mov    (%edx),%eax
     893:	00 00                	add    %al,(%eax)
     895:	01 0c 79             	add    %ecx,(%ecx,%edi,2)
     898:	00 00                	add    %al,(%eax)
     89a:	00 02                	add    %al,(%edx)
     89c:	91                   	xchg   %eax,%ecx
     89d:	04 09                	add    $0x9,%al
     89f:	9d                   	popf   
     8a0:	02 00                	add    (%eax),%al
     8a2:	00 01                	add    %al,(%ecx)
     8a4:	0d 79 01 00 00       	or     $0x179,%eax
     8a9:	02 91 08 0a bd 01    	add    0x1bd0a08(%ecx),%dl
     8af:	00 00                	add    %al,(%eax)
     8b1:	01 0f                	add    %ecx,(%edi)
     8b3:	6e                   	outsb  %ds:(%esi),(%dx)
     8b4:	00 00                	add    %al,(%eax)
     8b6:	00 e9                	add    %ch,%cl
     8b8:	0f 00 00             	sldt   (%eax)
     8bb:	0a 1a                	or     (%edx),%bl
     8bd:	02 00                	add    (%eax),%al
     8bf:	00 01                	add    %al,(%ecx)
     8c1:	10 79 00             	adc    %bh,0x0(%ecx)
     8c4:	00 00                	add    %al,(%eax)
     8c6:	2c 10                	sub    $0x10,%al
     8c8:	00 00                	add    %al,(%eax)
     8ca:	0a a8 02 00 00 01    	or     0x1000002(%eax),%ch
     8d0:	11 6e 00             	adc    %ebp,0x0(%esi)
     8d3:	00 00                	add    %al,(%eax)
     8d5:	70 10                	jo     8e7 <_init-0x8047b15>
     8d7:	00 00                	add    %al,(%eax)
     8d9:	00 07                	add    %al,(%edi)
     8db:	04 f9                	add    $0xf9,%al
     8dd:	00 00                	add    %al,(%eax)
     8df:	00 08                	add    %cl,(%eax)
     8e1:	01 32                	add    %esi,(%edx)
     8e3:	02 00                	add    (%eax),%al
     8e5:	00 01                	add    %al,(%ecx)
     8e7:	3f                   	aas    
     8e8:	01 6e 00             	add    %ebp,0x0(%esi)
     8eb:	00 00                	add    %al,(%eax)
     8ed:	30 95 04 08 86 95    	xor    %dl,-0x6a79f7fc(%ebp)
     8f3:	04 08                	add    $0x8,%al
     8f5:	a7                   	cmpsl  %es:(%edi),%ds:(%esi)
     8f6:	10 00                	adc    %al,(%eax)
     8f8:	00 ba 01 00 00 09    	add    %bh,0x9000001(%edx)
     8fe:	9d                   	popf   
     8ff:	02 00                	add    (%eax),%al
     901:	00 01                	add    %al,(%ecx)
     903:	3f                   	aas    
     904:	79 01                	jns    907 <_init-0x8047af5>
     906:	00 00                	add    %al,(%eax)
     908:	02 91 00 0a bd 01    	add    0x1bd0a00(%ecx),%dl
     90e:	00 00                	add    %al,(%eax)
     910:	01 41 6e             	add    %eax,0x6e(%ecx)
     913:	00 00                	add    %al,(%eax)
     915:	00 eb                	add    %ch,%bl
     917:	10 00                	adc    %al,(%eax)
     919:	00 00                	add    %al,(%eax)
     91b:	08 01                	or     %al,(%ecx)
     91d:	22 02                	and    (%edx),%al
     91f:	00 00                	add    %al,(%eax)
     921:	01 5b 01             	add    %ebx,0x1(%ebx)
     924:	6e                   	outsb  %ds:(%esi),(%dx)
     925:	00 00                	add    %al,(%eax)
     927:	00 90 95 04 08 1a    	add    %dl,0x1a080495(%eax)
     92d:	96                   	xchg   %eax,%esi
     92e:	04 08                	add    $0x8,%al
     930:	16                   	push   %ss
     931:	11 00                	adc    %eax,(%eax)
     933:	00 11                	add    %dl,(%ecx)
     935:	02 00                	add    (%eax),%al
     937:	00 09                	add    %cl,(%ecx)
     939:	9d                   	popf   
     93a:	02 00                	add    (%eax),%al
     93c:	00 01                	add    %al,(%ecx)
     93e:	5b                   	pop    %ebx
     93f:	79 01                	jns    942 <_init-0x8047aba>
     941:	00 00                	add    %al,(%eax)
     943:	02 91 00 09 f4 01    	add    0x1f40900(%ecx),%dl
     949:	00 00                	add    %al,(%eax)
     94b:	01 5b 8f             	add    %ebx,-0x71(%ebx)
     94e:	00 00                	add    %al,(%eax)
     950:	00 02                	add    %al,(%edx)
     952:	91                   	xchg   %eax,%ecx
     953:	04 09                	add    $0x9,%al
     955:	10 02                	adc    %al,(%edx)
     957:	00 00                	add    %al,(%eax)
     959:	01 5c 79 00          	add    %ebx,0x0(%ecx,%edi,2)
     95d:	00 00                	add    %al,(%eax)
     95f:	02 91 0c 0a bd 01    	add    0x1bd0a0c(%ecx),%dl
     965:	00 00                	add    %al,(%eax)
     967:	01 5e 6e             	add    %ebx,0x6e(%esi)
     96a:	00 00                	add    %al,(%eax)
     96c:	00 66 11             	add    %ah,0x11(%esi)
     96f:	00 00                	add    %al,(%eax)
     971:	00 0b                	add    %cl,(%ebx)
     973:	01 7a 02             	add    %edi,0x2(%edx)
     976:	00 00                	add    %al,(%eax)
     978:	01 84 01 8f 00 00 00 	add    %eax,0x8f(%ecx,%eax,1)
     97f:	20 96 04 08 a4 96    	and    %dl,-0x695bf7fc(%esi)
     985:	04 08                	add    $0x8,%al
     987:	91                   	xchg   %eax,%ecx
     988:	11 00                	adc    %eax,(%eax)
     98a:	00 09                	add    %cl,(%ecx)
     98c:	9d                   	popf   
     98d:	02 00                	add    (%eax),%al
     98f:	00 01                	add    %al,(%ecx)
     991:	84 79 01             	test   %bh,0x1(%ecx)
     994:	00 00                	add    %al,(%eax)
     996:	02 91 00 09 10 02    	add    0x2100900(%ecx),%dl
     99c:	00 00                	add    %al,(%eax)
     99e:	01 84 79 00 00 00 02 	add    %eax,0x2000000(%ecx,%edi,2)
     9a5:	91                   	xchg   %eax,%ecx
     9a6:	04 0a                	add    $0xa,%al
     9a8:	d8 00                	fadds  (%eax)
     9aa:	00 00                	add    %al,(%eax)
     9ac:	01 86 8f 00 00 00    	add    %eax,0x8f(%esi)
     9b2:	ed                   	in     (%dx),%eax
     9b3:	11 00                	adc    %eax,(%eax)
     9b5:	00 0a                	add    %cl,(%edx)
     9b7:	a8 02                	test   $0x2,%al
     9b9:	00 00                	add    %al,(%eax)
     9bb:	01 87 6e 00 00 00    	add    %eax,0x6e(%edi)
     9c1:	49                   	dec    %ecx
     9c2:	12 00                	adc    (%eax),%al
     9c4:	00 00                	add    %al,(%eax)
     9c6:	00 2a                	add    %ch,(%edx)
     9c8:	06                   	push   %es
     9c9:	00 00                	add    %al,(%eax)
     9cb:	02 00                	add    (%eax),%al
     9cd:	04 02                	add    $0x2,%al
     9cf:	00 00                	add    %al,(%eax)
     9d1:	04 01                	add    $0x1,%al
     9d3:	2b 00                	sub    (%eax),%eax
     9d5:	00 00                	add    %al,(%eax)
     9d7:	01 82 04 00 00 b0    	add    %eax,-0x4ffffffc(%edx)
     9dd:	96                   	xchg   %eax,%esi
     9de:	04 08                	add    $0x8,%al
     9e0:	ca 97 04             	lret   $0x497
     9e3:	08 4f 04             	or     %cl,0x4(%edi)
     9e6:	00 00                	add    %al,(%eax)
     9e8:	02 cd                	add    %ch,%cl
     9ea:	02 00                	add    (%eax),%al
     9ec:	00 03                	add    %al,(%ebx)
     9ee:	d3 2c 00             	shrl   %cl,(%eax,%eax,1)
     9f1:	00 00                	add    %al,(%eax)
     9f3:	03 04 07             	add    (%edi,%eax,1),%eax
     9f6:	78 00                	js     9f8 <_init-0x8047a04>
     9f8:	00 00                	add    %al,(%eax)
     9fa:	03 01                	add    (%ecx),%eax
     9fc:	08 93 00 00 00 03    	or     %dl,0x3000000(%ebx)
     a02:	02 07                	add    (%edi),%al
     a04:	ae                   	scas   %es:(%edi),%al
     a05:	00 00                	add    %al,(%eax)
     a07:	00 03                	add    %al,(%ebx)
     a09:	04 07                	add    $0x7,%al
     a0b:	73 00                	jae    a0d <_init-0x80479ef>
     a0d:	00 00                	add    %al,(%eax)
     a0f:	03 01                	add    (%ecx),%eax
     a11:	06                   	push   %es
     a12:	95                   	xchg   %eax,%ebp
     a13:	00 00                	add    %al,(%eax)
     a15:	00 03                	add    %al,(%ebx)
     a17:	02 05 77 01 00 00    	add    0x177,%al
     a1d:	04 04                	add    $0x4,%al
     a1f:	05 69 6e 74 00       	add    $0x746e69,%eax
     a24:	03 08                	add    (%eax),%ecx
     a26:	05 69 01 00 00       	add    $0x169,%eax
     a2b:	03 08                	add    (%eax),%ecx
     a2d:	07                   	pop    %es
     a2e:	6e                   	outsb  %ds:(%esi),(%dx)
     a2f:	00 00                	add    %al,(%eax)
     a31:	00 02                	add    %al,(%edx)
     a33:	2a 03                	sub    (%ebx),%al
     a35:	00 00                	add    %al,(%eax)
     a37:	04 38                	add    $0x38,%al
     a39:	5d                   	pop    %ebp
     a3a:	00 00                	add    %al,(%eax)
     a3c:	00 02                	add    %al,(%edx)
     a3e:	b1 02                	mov    $0x2,%cl
     a40:	00 00                	add    %al,(%eax)
     a42:	04 8d                	add    $0x8d,%al
     a44:	81 00 00 00 03 04    	addl   $0x4030000,(%eax)
     a4a:	05 6e 01 00 00       	add    $0x16e,%eax
     a4f:	02 3b                	add    (%ebx),%bh
     a51:	04 00                	add    $0x0,%al
     a53:	00 04 8e             	add    %al,(%esi,%ecx,4)
     a56:	6b 00 00             	imul   $0x0,(%eax),%eax
     a59:	00 05 04 06 04 9b    	add    %al,0x9b040604
     a5f:	00 00                	add    %al,(%eax)
     a61:	00 03                	add    %al,(%ebx)
     a63:	01 06                	add    %eax,(%esi)
     a65:	9c                   	pushf  
     a66:	00 00                	add    %al,(%eax)
     a68:	00 02                	add    %al,(%edx)
     a6a:	ed                   	in     (%dx),%eax
     a6b:	03 00                	add    (%eax),%eax
     a6d:	00 05 31 ad 00 00    	add    %al,0xad31
     a73:	00 07                	add    %al,(%edi)
     a75:	e9 03 00 00 94       	jmp    94000a7d <_end+0x8bfb59d5>
     a7a:	06                   	push   %es
     a7b:	0f 01                	(bad)  
     a7d:	6e                   	outsb  %ds:(%esi),(%dx)
     a7e:	02 00                	add    (%eax),%al
     a80:	00 08                	add    %cl,(%eax)
     a82:	96                   	xchg   %eax,%esi
     a83:	02 00                	add    (%eax),%al
     a85:	00 06                	add    %al,(%esi)
     a87:	10 01                	adc    %al,(%ecx)
     a89:	56                   	push   %esi
     a8a:	00 00                	add    %al,(%eax)
     a8c:	00 02                	add    %al,(%edx)
     a8e:	23 00                	and    (%eax),%eax
     a90:	08 b9 02 00 00 06    	or     %bh,0x6000002(%ecx)
     a96:	15 01 95 00 00       	adc    $0x9501,%eax
     a9b:	00 02                	add    %al,(%edx)
     a9d:	23 04 08             	and    (%eax,%ecx,1),%eax
     aa0:	f3 02 00             	repz add (%eax),%al
     aa3:	00 06                	add    %al,(%esi)
     aa5:	16                   	push   %ss
     aa6:	01 95 00 00 00 02    	add    %edx,0x2000000(%ebp)
     aac:	23 08                	and    (%eax),%ecx
     aae:	08 45 04             	or     %al,0x4(%ebp)
     ab1:	00 00                	add    %al,(%eax)
     ab3:	06                   	push   %es
     ab4:	17                   	pop    %ss
     ab5:	01 95 00 00 00 02    	add    %edx,0x2000000(%ebp)
     abb:	23 0c 08             	and    (%eax,%ecx,1),%ecx
     abe:	d9 04 00             	flds   (%eax,%eax,1)
     ac1:	00 06                	add    %al,(%esi)
     ac3:	18 01                	sbb    %al,(%ecx)
     ac5:	95                   	xchg   %eax,%ebp
     ac6:	00 00                	add    %al,(%eax)
     ac8:	00 02                	add    %al,(%edx)
     aca:	23 10                	and    (%eax),%edx
     acc:	08 69 03             	or     %ch,0x3(%ecx)
     acf:	00 00                	add    %al,(%eax)
     ad1:	06                   	push   %es
     ad2:	19 01                	sbb    %eax,(%ecx)
     ad4:	95                   	xchg   %eax,%ebp
     ad5:	00 00                	add    %al,(%eax)
     ad7:	00 02                	add    %al,(%edx)
     ad9:	23 14 08             	and    (%eax,%ecx,1),%edx
     adc:	d0 03                	rolb   (%ebx)
     ade:	00 00                	add    %al,(%eax)
     ae0:	06                   	push   %es
     ae1:	1a 01                	sbb    (%ecx),%al
     ae3:	95                   	xchg   %eax,%ebp
     ae4:	00 00                	add    %al,(%eax)
     ae6:	00 02                	add    %al,(%edx)
     ae8:	23 18                	and    (%eax),%ebx
     aea:	08 de                	or     %bl,%dh
     aec:	02 00                	add    (%eax),%al
     aee:	00 06                	add    %al,(%esi)
     af0:	1b 01                	sbb    (%ecx),%eax
     af2:	95                   	xchg   %eax,%ebp
     af3:	00 00                	add    %al,(%eax)
     af5:	00 02                	add    %al,(%edx)
     af7:	23 1c 08             	and    (%eax,%ecx,1),%ebx
     afa:	12 03                	adc    (%ebx),%al
     afc:	00 00                	add    %al,(%eax)
     afe:	06                   	push   %es
     aff:	1c 01                	sbb    $0x1,%al
     b01:	95                   	xchg   %eax,%ebp
     b02:	00 00                	add    %al,(%eax)
     b04:	00 02                	add    %al,(%edx)
     b06:	23 20                	and    (%eax),%esp
     b08:	08 86 03 00 00 06    	or     %al,0x6000003(%esi)
     b0e:	1e                   	push   %ds
     b0f:	01 95 00 00 00 02    	add    %edx,0x2000000(%ebp)
     b15:	23 24 08             	and    (%eax,%ecx,1),%esp
     b18:	c9                   	leave  
     b19:	04 00                	add    $0x0,%al
     b1b:	00 06                	add    %al,(%esi)
     b1d:	1f                   	pop    %ds
     b1e:	01 95 00 00 00 02    	add    %edx,0x2000000(%ebp)
     b24:	23 28                	and    (%eax),%ebp
     b26:	08 53 04             	or     %dl,0x4(%ebx)
     b29:	00 00                	add    %al,(%eax)
     b2b:	06                   	push   %es
     b2c:	20 01                	and    %al,(%ecx)
     b2e:	95                   	xchg   %eax,%ebp
     b2f:	00 00                	add    %al,(%eax)
     b31:	00 02                	add    %al,(%edx)
     b33:	23 2c 08             	and    (%eax,%ecx,1),%ebp
     b36:	06                   	push   %es
     b37:	04 00                	add    $0x0,%al
     b39:	00 06                	add    %al,(%esi)
     b3b:	22 01                	and    (%ecx),%al
     b3d:	c1 02 00             	roll   $0x0,(%edx)
     b40:	00 02                	add    %al,(%edx)
     b42:	23 30                	and    (%eax),%esi
     b44:	08 c6                	or     %al,%dh
     b46:	02 00                	add    (%eax),%al
     b48:	00 06                	add    %al,(%esi)
     b4a:	24 01                	and    $0x1,%al
     b4c:	c7 02 00 00 02 23    	movl   $0x23020000,(%edx)
     b52:	34 08                	xor    $0x8,%al
     b54:	eb 02                	jmp    b58 <_init-0x80478a4>
     b56:	00 00                	add    %al,(%eax)
     b58:	06                   	push   %es
     b59:	26 01 56 00          	add    %edx,%es:0x0(%esi)
     b5d:	00 00                	add    %al,(%eax)
     b5f:	02 23                	add    (%ebx),%ah
     b61:	38 08                	cmp    %cl,(%eax)
     b63:	9a 03 00 00 06 2a 01 	lcall  $0x12a,$0x6000003
     b6a:	56                   	push   %esi
     b6b:	00 00                	add    %al,(%eax)
     b6d:	00 02                	add    %al,(%edx)
     b6f:	23 3c 08             	and    (%eax,%ecx,1),%edi
     b72:	33 03                	xor    (%ebx),%eax
     b74:	00 00                	add    %al,(%eax)
     b76:	06                   	push   %es
     b77:	2c 01                	sub    $0x1,%al
     b79:	76 00                	jbe    b7b <_init-0x8047881>
     b7b:	00 00                	add    %al,(%eax)
     b7d:	02 23                	add    (%ebx),%ah
     b7f:	40                   	inc    %eax
     b80:	08 1e                	or     %bl,(%esi)
     b82:	03 00                	add    (%eax),%eax
     b84:	00 06                	add    %al,(%esi)
     b86:	30 01                	xor    %al,(%ecx)
     b88:	3a 00                	cmp    (%eax),%al
     b8a:	00 00                	add    %al,(%eax)
     b8c:	02 23                	add    (%ebx),%ah
     b8e:	44                   	inc    %esp
     b8f:	08 1f                	or     %bl,(%edi)
     b91:	04 00                	add    $0x0,%al
     b93:	00 06                	add    %al,(%esi)
     b95:	31 01                	xor    %eax,(%ecx)
     b97:	48                   	dec    %eax
     b98:	00 00                	add    %al,(%eax)
     b9a:	00 02                	add    %al,(%edx)
     b9c:	23 46 08             	and    0x8(%esi),%eax
     b9f:	d4 02                	aam    $0x2
     ba1:	00 00                	add    %al,(%eax)
     ba3:	06                   	push   %es
     ba4:	32 01                	xor    (%ecx),%al
     ba6:	cd 02                	int    $0x2
     ba8:	00 00                	add    %al,(%eax)
     baa:	02 23                	add    (%ebx),%ah
     bac:	47                   	inc    %edi
     bad:	08 94 03 00 00 06 36 	or     %dl,0x36060000(%ebx,%eax,1)
     bb4:	01 dd                	add    %ebx,%ebp
     bb6:	02 00                	add    (%eax),%al
     bb8:	00 02                	add    %al,(%edx)
     bba:	23 48 08             	and    0x8(%eax),%ecx
     bbd:	37                   	aaa    
     bbe:	03 00                	add    (%eax),%eax
     bc0:	00 06                	add    %al,(%esi)
     bc2:	3f                   	aas    
     bc3:	01 88 00 00 00 02    	add    %ecx,0x2000000(%eax)
     bc9:	23 4c 08 74          	and    0x74(%eax,%ecx,1),%ecx
     bcd:	04 00                	add    $0x0,%al
     bcf:	00 06                	add    %al,(%esi)
     bd1:	48                   	dec    %eax
     bd2:	01 93 00 00 00 02    	add    %edx,0x2000000(%ebx)
     bd8:	23 54 08 7b          	and    0x7b(%eax,%ecx,1),%edx
     bdc:	04 00                	add    $0x0,%al
     bde:	00 06                	add    %al,(%esi)
     be0:	49                   	dec    %ecx
     be1:	01 93 00 00 00 02    	add    %edx,0x2000000(%ebx)
     be7:	23 58 08             	and    0x8(%eax),%ebx
     bea:	48                   	dec    %eax
     beb:	03 00                	add    (%eax),%eax
     bed:	00 06                	add    %al,(%esi)
     bef:	4a                   	dec    %edx
     bf0:	01 93 00 00 00 02    	add    %edx,0x2000000(%ebx)
     bf6:	23 5c 08 ab          	and    -0x55(%eax,%ecx,1),%ebx
     bfa:	04 00                	add    $0x0,%al
     bfc:	00 06                	add    %al,(%esi)
     bfe:	4b                   	dec    %ebx
     bff:	01 93 00 00 00 02    	add    %edx,0x2000000(%ebx)
     c05:	23 60 08             	and    0x8(%eax),%esp
     c08:	b2 04                	mov    $0x4,%dl
     c0a:	00 00                	add    %al,(%eax)
     c0c:	06                   	push   %es
     c0d:	4c                   	dec    %esp
     c0e:	01 21                	add    %esp,(%ecx)
     c10:	00 00                	add    %al,(%eax)
     c12:	00 02                	add    %al,(%edx)
     c14:	23 64 08 a2          	and    -0x5e(%eax,%ecx,1),%esp
     c18:	03 00                	add    (%eax),%eax
     c1a:	00 06                	add    %al,(%esi)
     c1c:	4e                   	dec    %esi
     c1d:	01 56 00             	add    %edx,0x0(%esi)
     c20:	00 00                	add    %al,(%eax)
     c22:	02 23                	add    (%ebx),%ah
     c24:	68 08 b9 04 00       	push   $0x4b908
     c29:	00 06                	add    %al,(%esi)
     c2b:	50                   	push   %eax
     c2c:	01 e3                	add    %esp,%ebx
     c2e:	02 00                	add    (%eax),%al
     c30:	00 02                	add    %al,(%edx)
     c32:	23 6c 00 02          	and    0x2(%eax,%eax,1),%ebp
     c36:	c1 03 00             	roll   $0x0,(%ebx)
     c39:	00 07                	add    %al,(%edi)
     c3b:	28 79 02             	sub    %bh,0x2(%ecx)
     c3e:	00 00                	add    %al,(%eax)
     c40:	09 04 00             	or     %eax,(%eax,%eax,1)
     c43:	03 00                	add    (%eax),%eax
     c45:	00 9b 00 00 00 0a    	add    %bl,0xa000000(%ebx)
     c4b:	de 03                	fiadd  (%ebx)
     c4d:	00 00                	add    %al,(%eax)
     c4f:	06                   	push   %es
     c50:	b4 0b                	mov    $0xb,%ah
     c52:	4f                   	dec    %edi
     c53:	03 00                	add    (%eax),%eax
     c55:	00 0c 06             	add    %cl,(%esi,%eax,1)
     c58:	ba c1 02 00 00       	mov    $0x2c1,%edx
     c5d:	0c 35                	or     $0x35,%al
     c5f:	04 00                	add    $0x0,%al
     c61:	00 06                	add    %al,(%esi)
     c63:	bb c1 02 00 00       	mov    $0x2c1,%ebx
     c68:	02 23                	add    (%ebx),%ah
     c6a:	00 0c 77             	add    %cl,(%edi,%esi,2)
     c6d:	03 00                	add    (%eax),%eax
     c6f:	00 06                	add    %al,(%esi)
     c71:	bc c7 02 00 00       	mov    $0x2c7,%esp
     c76:	02 23                	add    (%ebx),%ah
     c78:	04 0c                	add    $0xc,%al
     c7a:	01 04 00             	add    %eax,(%eax,%eax,1)
     c7d:	00 06                	add    %al,(%esi)
     c7f:	c0 56 00 00          	rclb   $0x0,0x0(%esi)
     c83:	00 02                	add    %al,(%edx)
     c85:	23 08                	and    (%eax),%ecx
     c87:	00 06                	add    %al,(%esi)
     c89:	04 8a                	add    $0x8a,%al
     c8b:	02 00                	add    (%eax),%al
     c8d:	00 06                	add    %al,(%esi)
     c8f:	04 ad                	add    $0xad,%al
     c91:	00 00                	add    %al,(%eax)
     c93:	00 0d 9b 00 00 00    	add    %cl,0x9b
     c99:	dd 02                	fldl   (%edx)
     c9b:	00 00                	add    %al,(%eax)
     c9d:	0e                   	push   %cs
     c9e:	2c 00                	sub    $0x0,%al
     ca0:	00 00                	add    %al,(%eax)
     ca2:	00 00                	add    %al,(%eax)
     ca4:	06                   	push   %es
     ca5:	04 83                	add    $0x83,%al
     ca7:	02 00                	add    (%eax),%al
     ca9:	00 0d 9b 00 00 00    	add    %cl,0x9b
     caf:	f3 02 00             	repz add (%eax),%al
     cb2:	00 0e                	add    %cl,(%esi)
     cb4:	2c 00                	sub    $0x0,%al
     cb6:	00 00                	add    %al,(%eax)
     cb8:	27                   	daa    
     cb9:	00 06                	add    %al,(%esi)
     cbb:	04 f9                	add    $0xf9,%al
     cbd:	02 00                	add    (%eax),%al
     cbf:	00 0f                	add    %cl,(%edi)
     cc1:	9b                   	fwait
     cc2:	00 00                	add    %al,(%eax)
     cc4:	00 02                	add    %al,(%edx)
     cc6:	c8 03 00 00          	enter  $0x3,$0x0
     cca:	05 50 6e 02 00       	add    $0x26e50,%eax
     ccf:	00 10                	add    %dl,(%eax)
     cd1:	01 66 04             	add    %esp,0x4(%esi)
     cd4:	00 00                	add    %al,(%eax)
     cd6:	02 60 01             	add    0x1(%eax),%ah
     cd9:	56                   	push   %esi
     cda:	00 00                	add    %al,(%eax)
     cdc:	00 03                	add    %al,(%ebx)
     cde:	01 34 03             	add    %esi,(%ebx,%eax,1)
     ce1:	00 00                	add    %al,(%eax)
     ce3:	11 60 03             	adc    %esp,0x3(%eax)
     ce6:	00 00                	add    %al,(%eax)
     ce8:	02 60 34             	add    0x34(%eax),%ah
     ceb:	03 00                	add    (%eax),%eax
     ced:	00 11                	add    %dl,(%ecx)
     cef:	6e                   	outsb  %ds:(%esi),(%dx)
     cf0:	04 00                	add    $0x0,%al
     cf2:	00 02                	add    %al,(%edx)
     cf4:	60                   	pusha  
     cf5:	f3 02 00             	repz add (%eax),%al
     cf8:	00 12                	add    %dl,(%edx)
     cfa:	00 06                	add    %al,(%esi)
     cfc:	04 a2                	add    $0xa2,%al
     cfe:	00 00                	add    %al,(%eax)
     d00:	00 10                	add    %dl,(%eax)
     d02:	01 65 04             	add    %esp,0x4(%ebp)
     d05:	00 00                	add    %al,(%eax)
     d07:	02 7d 01             	add    0x1(%ebp),%bh
     d0a:	56                   	push   %esi
     d0b:	00 00                	add    %al,(%eax)
     d0d:	00 03                	add    %al,(%ebx)
     d0f:	01 6f 03             	add    %ebp,0x3(%edi)
     d12:	00 00                	add    %al,(%eax)
     d14:	11 60 03             	adc    %esp,0x3(%eax)
     d17:	00 00                	add    %al,(%eax)
     d19:	02 7d 34             	add    0x34(%ebp),%bh
     d1c:	03 00                	add    (%eax),%eax
     d1e:	00 11                	add    %dl,(%ecx)
     d20:	6e                   	outsb  %ds:(%esi),(%dx)
     d21:	04 00                	add    $0x0,%al
     d23:	00 02                	add    %al,(%edx)
     d25:	7e f3                	jle    d1a <_init-0x80476e2>
     d27:	02 00                	add    (%eax),%al
     d29:	00 11                	add    %dl,(%ecx)
     d2b:	60                   	pusha  
     d2c:	04 00                	add    $0x0,%al
     d2e:	00 02                	add    %al,(%edx)
     d30:	7e 6e                	jle    da0 <_init-0x804765c>
     d32:	02 00                	add    (%eax),%al
     d34:	00 00                	add    %al,(%eax)
     d36:	13 f2                	adc    %edx,%esi
     d38:	03 00                	add    (%eax),%eax
     d3a:	00 01                	add    %al,(%ecx)
     d3c:	0e                   	push   %cs
     d3d:	01 01                	add    %eax,(%ecx)
     d3f:	9e                   	sahf   
     d40:	03 00                	add    (%eax),%eax
     d42:	00 11                	add    %dl,(%ecx)
     d44:	af                   	scas   %es:(%edi),%eax
     d45:	03 00                	add    (%eax),%eax
     d47:	00 01                	add    %al,(%ecx)
     d49:	0e                   	push   %cs
     d4a:	95                   	xchg   %eax,%ebp
     d4b:	00 00                	add    %al,(%eax)
     d4d:	00 11                	add    %dl,(%ecx)
     d4f:	2e                   	cs
     d50:	04 00                	add    $0x0,%al
     d52:	00 01                	add    %al,(%ecx)
     d54:	0e                   	push   %cs
     d55:	95                   	xchg   %eax,%ebp
     d56:	00 00                	add    %al,(%eax)
     d58:	00 11                	add    %dl,(%ecx)
     d5a:	3f                   	aas    
     d5b:	03 00                	add    (%eax),%eax
     d5d:	00 01                	add    %al,(%ecx)
     d5f:	0e                   	push   %cs
     d60:	9e                   	sahf   
     d61:	03 00                	add    (%eax),%eax
     d63:	00 00                	add    %al,(%eax)
     d65:	06                   	push   %es
     d66:	04 fe                	add    $0xfe,%al
     d68:	02 00                	add    (%eax),%al
     d6a:	00 14 01             	add    %dl,(%ecx,%eax,1)
     d6d:	16                   	push   %ss
     d6e:	04 00                	add    $0x0,%al
     d70:	00 01                	add    %al,(%ecx)
     d72:	15 01 b0 96 04       	adc    $0x496b001,%eax
     d77:	08 0a                	or     %cl,(%edx)
     d79:	97                   	xchg   %eax,%edi
     d7a:	04 08                	add    $0x8,%al
     d7c:	8a 12                	mov    (%edx),%dl
     d7e:	00 00                	add    %al,(%eax)
     d80:	58                   	pop    %eax
     d81:	04 00                	add    $0x0,%al
     d83:	00 15 2e 04 00 00    	add    %dl,0x42e
     d89:	01 15 95 00 00 00    	add    %edx,0x95
     d8f:	02 91 00 12 16 3f    	add    0x3f161200(%ecx),%dl
     d95:	03 00                	add    (%eax),%eax
     d97:	00 01                	add    %al,(%ecx)
     d99:	17                   	pop    %ss
     d9a:	fe 02                	incb   (%edx)
     d9c:	00 00                	add    %al,(%eax)
     d9e:	c2 12 00             	ret    $0x12
     da1:	00 17                	add    %dl,(%edi)
     da3:	6f                   	outsl  %ds:(%esi),(%dx)
     da4:	03 00                	add    (%eax),%eax
     da6:	00 bc 96 04 08 90 04 	add    %bh,0x4900804(%esi,%edx,4)
     dad:	00 00                	add    %al,(%eax)
     daf:	01 1a                	add    %ebx,(%edx)
     db1:	18 92 03 00 00 19    	sbb    %dl,0x19000003(%edx)
     db7:	87 03                	xchg   %eax,(%ebx)
     db9:	00 00                	add    %al,(%eax)
     dbb:	02 91 00 19 7c 03    	add    0x37c1900(%ecx),%dl
     dc1:	00 00                	add    %al,(%eax)
     dc3:	06                   	push   %es
     dc4:	03 83 9b 04 08 9f    	add    -0x60f7fb65(%ebx),%eax
     dca:	1a 09                	sbb    (%ecx),%cl
     dcc:	03 00                	add    (%eax),%eax
     dce:	00 bc 96 04 08 b0 04 	add    %bh,0x4b00804(%esi,%edx,4)
     dd5:	00 00                	add    %al,(%eax)
     dd7:	01 10                	add    %edx,(%eax)
     dd9:	2c 04                	sub    $0x4,%al
     ddb:	00 00                	add    %al,(%eax)
     ddd:	1b 1c 03             	sbb    (%ebx,%eax,1),%ebx
     de0:	00 00                	add    %al,(%eax)
     de2:	e2 12                	loop   df6 <_init-0x8047606>
     de4:	00 00                	add    %al,(%eax)
     de6:	19 27                	sbb    %esp,(%edi)
     de8:	03 00                	add    (%eax),%eax
     dea:	00 06                	add    %al,(%esi)
     dec:	03 88 9b 04 08 9f    	add    -0x60f7fb65(%eax),%ecx
     df2:	00 1c 3a             	add    %bl,(%edx,%edi,1)
     df5:	03 00                	add    (%eax),%eax
     df7:	00 e4                	add    %ah,%ah
     df9:	96                   	xchg   %eax,%esi
     dfa:	04 08                	add    $0x8,%al
     dfc:	04 97                	add    $0x97,%al
     dfe:	04 08                	add    $0x8,%al
     e00:	01 11                	add    %edx,(%ecx)
     e02:	1b 63 03             	sbb    0x3(%ebx),%esp
     e05:	00 00                	add    %al,(%eax)
     e07:	f9                   	stc    
     e08:	12 00                	adc    (%eax),%al
     e0a:	00 19                	add    %bl,(%ecx)
     e0c:	58                   	pop    %eax
     e0d:	03 00                	add    (%eax),%eax
     e0f:	00 02                	add    %al,(%edx)
     e11:	91                   	xchg   %eax,%ecx
     e12:	00 1b                	add    %bl,(%ebx)
     e14:	4d                   	dec    %ebp
     e15:	03 00                	add    (%eax),%eax
     e17:	00 19                	add    %bl,(%ecx)
     e19:	13 00                	adc    (%eax),%eax
     e1b:	00 00                	add    %al,(%eax)
     e1d:	00 00                	add    %al,(%eax)
     e1f:	14 01                	adc    $0x1,%al
     e21:	7d 03                	jge    e26 <_init-0x80475d6>
     e23:	00 00                	add    %al,(%eax)
     e25:	01 1e                	add    %ebx,(%esi)
     e27:	01 10                	add    %edx,(%eax)
     e29:	97                   	xchg   %eax,%edi
     e2a:	04 08                	add    $0x8,%al
     e2c:	6a 97                	push   $0xffffff97
     e2e:	04 08                	add    $0x8,%al
     e30:	30 13                	xor    %dl,(%ebx)
     e32:	00 00                	add    %al,(%eax)
     e34:	0c 05                	or     $0x5,%al
     e36:	00 00                	add    %al,(%eax)
     e38:	15 2e 04 00 00       	adc    $0x42e,%eax
     e3d:	01 1e                	add    %ebx,(%esi)
     e3f:	95                   	xchg   %eax,%ebp
     e40:	00 00                	add    %al,(%eax)
     e42:	00 02                	add    %al,(%edx)
     e44:	91                   	xchg   %eax,%ecx
     e45:	00 12                	add    %dl,(%edx)
     e47:	16                   	push   %ss
     e48:	3f                   	aas    
     e49:	03 00                	add    (%eax),%eax
     e4b:	00 01                	add    %al,(%ecx)
     e4d:	20 fe                	and    %bh,%dh
     e4f:	02 00                	add    (%eax),%al
     e51:	00 68 13             	add    %ch,0x13(%eax)
     e54:	00 00                	add    %al,(%eax)
     e56:	17                   	pop    %ss
     e57:	6f                   	outsl  %ds:(%esi),(%dx)
     e58:	03 00                	add    (%eax),%eax
     e5a:	00 1c 97             	add    %bl,(%edi,%edx,4)
     e5d:	04 08                	add    $0x8,%al
     e5f:	d0 04 00             	rolb   (%eax,%eax,1)
     e62:	00 01                	add    %al,(%ecx)
     e64:	23 18                	and    (%eax),%ebx
     e66:	92                   	xchg   %eax,%edx
     e67:	03 00                	add    (%eax),%eax
     e69:	00 19                	add    %bl,(%ecx)
     e6b:	87 03                	xchg   %eax,(%ebx)
     e6d:	00 00                	add    %al,(%eax)
     e6f:	02 91 00 19 7c 03    	add    0x37c1900(%ecx),%dl
     e75:	00 00                	add    %al,(%eax)
     e77:	06                   	push   %es
     e78:	03 8d 9b 04 08 9f    	add    -0x60f7fb65(%ebp),%ecx
     e7e:	1a 09                	sbb    (%ecx),%cl
     e80:	03 00                	add    (%eax),%eax
     e82:	00 1c 97             	add    %bl,(%edi,%edx,4)
     e85:	04 08                	add    $0x8,%al
     e87:	f0 04 00             	lock add $0x0,%al
     e8a:	00 01                	add    %al,(%ecx)
     e8c:	10 e0                	adc    %ah,%al
     e8e:	04 00                	add    $0x0,%al
     e90:	00 1b                	add    %bl,(%ebx)
     e92:	1c 03                	sbb    $0x3,%al
     e94:	00 00                	add    %al,(%eax)
     e96:	88 13                	mov    %dl,(%ebx)
     e98:	00 00                	add    %al,(%eax)
     e9a:	19 27                	sbb    %esp,(%edi)
     e9c:	03 00                	add    (%eax),%eax
     e9e:	00 06                	add    %al,(%esi)
     ea0:	03 88 9b 04 08 9f    	add    -0x60f7fb65(%eax),%ecx
     ea6:	00 1c 3a             	add    %bl,(%edx,%edi,1)
     ea9:	03 00                	add    (%eax),%eax
     eab:	00 44 97 04          	add    %al,0x4(%edi,%edx,4)
     eaf:	08 64 97 04          	or     %ah,0x4(%edi,%edx,4)
     eb3:	08 01                	or     %al,(%ecx)
     eb5:	11 1b                	adc    %ebx,(%ebx)
     eb7:	63 03                	arpl   %ax,(%ebx)
     eb9:	00 00                	add    %al,(%eax)
     ebb:	9f                   	lahf   
     ebc:	13 00                	adc    (%eax),%eax
     ebe:	00 19                	add    %bl,(%ecx)
     ec0:	58                   	pop    %eax
     ec1:	03 00                	add    (%eax),%eax
     ec3:	00 02                	add    %al,(%edx)
     ec5:	91                   	xchg   %eax,%ecx
     ec6:	00 1b                	add    %bl,(%ebx)
     ec8:	4d                   	dec    %ebp
     ec9:	03 00                	add    (%eax),%eax
     ecb:	00 bf 13 00 00 00    	add    %bh,0x13(%edi)
     ed1:	00 00                	add    %al,(%eax)
     ed3:	14 01                	adc    $0x1,%al
     ed5:	0f 04                	(bad)  
     ed7:	00 00                	add    %al,(%eax)
     ed9:	01 27                	add    %esp,(%edi)
     edb:	01 70 97             	add    %esi,-0x69(%eax)
     ede:	04 08                	add    $0x8,%al
     ee0:	ca 97 04             	lret   $0x497
     ee3:	08 d6                	or     %dl,%dh
     ee5:	13 00                	adc    (%eax),%eax
     ee7:	00 c0                	add    %al,%al
     ee9:	05 00 00 15 2e       	add    $0x2e150000,%eax
     eee:	04 00                	add    $0x0,%al
     ef0:	00 01                	add    %al,(%ecx)
     ef2:	27                   	daa    
     ef3:	95                   	xchg   %eax,%ebp
     ef4:	00 00                	add    %al,(%eax)
     ef6:	00 02                	add    %al,(%edx)
     ef8:	91                   	xchg   %eax,%ecx
     ef9:	00 12                	add    %dl,(%edx)
     efb:	16                   	push   %ss
     efc:	3f                   	aas    
     efd:	03 00                	add    (%eax),%eax
     eff:	00 01                	add    %al,(%ecx)
     f01:	29 fe                	sub    %edi,%esi
     f03:	02 00                	add    (%eax),%al
     f05:	00 0e                	add    %cl,(%esi)
     f07:	14 00                	adc    $0x0,%al
     f09:	00 17                	add    %dl,(%edi)
     f0b:	6f                   	outsl  %ds:(%esi),(%dx)
     f0c:	03 00                	add    (%eax),%eax
     f0e:	00 7c 97 04          	add    %bh,0x4(%edi,%edx,4)
     f12:	08 10                	or     %dl,(%eax)
     f14:	05 00 00 01 2c       	add    $0x2c010000,%eax
     f19:	18 92 03 00 00 19    	sbb    %dl,0x19000003(%edx)
     f1f:	87 03                	xchg   %eax,(%ebx)
     f21:	00 00                	add    %al,(%eax)
     f23:	02 91 00 19 7c 03    	add    0x37c1900(%ecx),%dl
     f29:	00 00                	add    %al,(%eax)
     f2b:	06                   	push   %es
     f2c:	03 92 9b 04 08 9f    	add    -0x60f7fb65(%edx),%edx
     f32:	1a 09                	sbb    (%ecx),%cl
     f34:	03 00                	add    (%eax),%eax
     f36:	00 7c 97 04          	add    %bh,0x4(%edi,%edx,4)
     f3a:	08 30                	or     %dh,(%eax)
     f3c:	05 00 00 01 10       	add    $0x10010000,%eax
     f41:	94                   	xchg   %eax,%esp
     f42:	05 00 00 1b 1c       	add    $0x1c1b0000,%eax
     f47:	03 00                	add    (%eax),%eax
     f49:	00 2e                	add    %ch,(%esi)
     f4b:	14 00                	adc    $0x0,%al
     f4d:	00 19                	add    %bl,(%ecx)
     f4f:	27                   	daa    
     f50:	03 00                	add    (%eax),%eax
     f52:	00 06                	add    %al,(%esi)
     f54:	03 88 9b 04 08 9f    	add    -0x60f7fb65(%eax),%ecx
     f5a:	00 1c 3a             	add    %bl,(%edx,%edi,1)
     f5d:	03 00                	add    (%eax),%eax
     f5f:	00 a4 97 04 08 c4 97 	add    %ah,-0x683bf7fc(%edi,%edx,4)
     f66:	04 08                	add    $0x8,%al
     f68:	01 11                	add    %edx,(%ecx)
     f6a:	1b 63 03             	sbb    0x3(%ebx),%esp
     f6d:	00 00                	add    %al,(%eax)
     f6f:	45                   	inc    %ebp
     f70:	14 00                	adc    $0x0,%al
     f72:	00 19                	add    %bl,(%ecx)
     f74:	58                   	pop    %eax
     f75:	03 00                	add    (%eax),%eax
     f77:	00 02                	add    %al,(%edx)
     f79:	91                   	xchg   %eax,%ecx
     f7a:	00 1b                	add    %bl,(%ebx)
     f7c:	4d                   	dec    %ebp
     f7d:	03 00                	add    (%eax),%eax
     f7f:	00 65 14             	add    %ah,0x14(%ebp)
     f82:	00 00                	add    %al,(%eax)
     f84:	00 00                	add    %al,(%eax)
     f86:	00 1d 5a 03 00 00    	add    %bl,0x35a
     f8c:	05 a5 c7 02 00       	add    $0x2c7a5,%eax
     f91:	00 01                	add    %al,(%ecx)
     f93:	01 1d a8 03 00 00    	add    %ebx,0x3a8
     f99:	05 a6 c7 02 00       	add    $0x2c7a6,%eax
     f9e:	00 01                	add    %al,(%ecx)
     fa0:	01 1d c2 04 00 00    	add    %ebx,0x4c2
     fa6:	05 a7 c7 02 00       	add    $0x2c7a7,%eax
     fab:	00 01                	add    %al,(%ecx)
     fad:	01 1d b6 03 00 00    	add    %ebx,0x3b6
     fb3:	01 0c 34             	add    %ecx,(%esp,%esi,1)
     fb6:	03 00                	add    (%eax),%eax
     fb8:	00 01                	add    %al,(%ecx)
     fba:	01 1d 5a 03 00 00    	add    %ebx,0x35a
     fc0:	05 a5 c7 02 00       	add    $0x2c7a5,%eax
     fc5:	00 01                	add    %al,(%ecx)
     fc7:	01 1d a8 03 00 00    	add    %ebx,0x3a8
     fcd:	05 a6 c7 02 00       	add    $0x2c7a6,%eax
     fd2:	00 01                	add    %al,(%ecx)
     fd4:	01 1d c2 04 00 00    	add    %ebx,0x4c2
     fda:	05 a7 c7 02 00       	add    $0x2c7a7,%eax
     fdf:	00 01                	add    %al,(%ecx)
     fe1:	01 1e                	add    %ebx,(%esi)
     fe3:	b6 03                	mov    $0x3,%dh
     fe5:	00 00                	add    %al,(%eax)
     fe7:	01 0c 34             	add    %ecx,(%esp,%esi,1)
     fea:	03 00                	add    (%eax),%eax
     fec:	00 01                	add    %al,(%ecx)
     fee:	05 03 a4 b0 04       	add    $0x4b0a403,%eax
     ff3:	08 00                	or     %al,(%eax)
     ff5:	22 01                	and    (%ecx),%al
     ff7:	00 00                	add    %al,(%eax)
     ff9:	02 00                	add    (%eax),%al
     ffb:	8d 03                	lea    (%ebx),%eax
     ffd:	00 00                	add    %al,(%eax)
     fff:	04 01                	add    $0x1,%al
    1001:	2b 00                	sub    (%eax),%eax
    1003:	00 00                	add    %al,(%eax)
    1005:	01 e8                	add    %ebp,%eax
    1007:	04 00                	add    $0x0,%al
    1009:	00 d0                	add    %dl,%al
    100b:	97                   	xchg   %eax,%edi
    100c:	04 08                	add    $0x8,%al
    100e:	82                   	(bad)  
    100f:	98                   	cwtl   
    1010:	04 08                	add    $0x8,%al
    1012:	be 05 00 00 02       	mov    $0x2000005,%esi
    1017:	01 08                	add    %ecx,(%eax)
    1019:	93                   	xchg   %eax,%ebx
    101a:	00 00                	add    %al,(%eax)
    101c:	00 02                	add    %al,(%edx)
    101e:	02 07                	add    (%edi),%al
    1020:	ae                   	scas   %es:(%edi),%al
    1021:	00 00                	add    %al,(%eax)
    1023:	00 02                	add    %al,(%edx)
    1025:	04 07                	add    $0x7,%al
    1027:	78 00                	js     1029 <_init-0x80473d3>
    1029:	00 00                	add    %al,(%eax)
    102b:	02 04 07             	add    (%edi,%eax,1),%al
    102e:	73 00                	jae    1030 <_init-0x80473cc>
    1030:	00 00                	add    %al,(%eax)
    1032:	02 01                	add    (%ecx),%al
    1034:	06                   	push   %es
    1035:	95                   	xchg   %eax,%ebp
    1036:	00 00                	add    %al,(%eax)
    1038:	00 02                	add    %al,(%edx)
    103a:	02 05 77 01 00 00    	add    0x177,%al
    1040:	03 04 05 69 6e 74 00 	add    0x746e69(,%eax,1),%eax
    1047:	02 08                	add    (%eax),%cl
    1049:	05 69 01 00 00       	add    $0x169,%eax
    104e:	02 08                	add    (%eax),%cl
    1050:	07                   	pop    %es
    1051:	6e                   	outsb  %ds:(%esi),(%dx)
    1052:	00 00                	add    %al,(%eax)
    1054:	00 02                	add    %al,(%edx)
    1056:	04 05                	add    $0x5,%al
    1058:	6e                   	outsb  %ds:(%esi),(%dx)
    1059:	01 00                	add    %eax,(%eax)
    105b:	00 04 04             	add    %al,(%esp,%eax,1)
    105e:	6d                   	insl   (%dx),%es:(%edi)
    105f:	00 00                	add    %al,(%eax)
    1061:	00 02                	add    %al,(%edx)
    1063:	01 06                	add    %eax,(%esi)
    1065:	9c                   	pushf  
    1066:	00 00                	add    %al,(%eax)
    1068:	00 05 0b 00 00 00    	add    %al,0xb
    106e:	02 04 4b             	add    (%ebx,%ecx,2),%al
    1071:	00 00                	add    %al,(%eax)
    1073:	00 05 02 01 00 00    	add    %al,0x102
    1079:	02 05 2f 00 00 00    	add    0x2f,%al
    107f:	06                   	push   %es
    1080:	01 22                	add    %esp,(%edx)
    1082:	05 00 00 01 14       	add    $0x14010000,%eax
    1087:	01 74 00 00          	add    %esi,0x0(%eax,%eax,1)
    108b:	00 d0                	add    %dl,%al
    108d:	97                   	xchg   %eax,%edi
    108e:	04 08                	add    $0x8,%al
    1090:	82                   	(bad)  
    1091:	98                   	cwtl   
    1092:	04 08                	add    $0x8,%al
    1094:	7c 14                	jl     10aa <_init-0x8047352>
    1096:	00 00                	add    %al,(%eax)
    1098:	ff 00                	incl   (%eax)
    109a:	00 00                	add    %al,(%eax)
    109c:	07                   	pop    %es
    109d:	64 01 00             	add    %eax,%fs:(%eax)
    10a0:	00 01                	add    %al,(%ecx)
    10a2:	14 4b                	adc    $0x4b,%al
    10a4:	00 00                	add    %al,(%eax)
    10a6:	00 02                	add    %al,(%edx)
    10a8:	91                   	xchg   %eax,%ecx
    10a9:	00 07                	add    %al,(%edi)
    10ab:	a2 01 00 00 01       	mov    %al,0x1000001
    10b0:	14 ff                	adc    $0xff,%al
    10b2:	00 00                	add    %al,(%eax)
    10b4:	00 02                	add    %al,(%edx)
    10b6:	91                   	xchg   %eax,%ecx
    10b7:	04 07                	add    $0x7,%al
    10b9:	19 05 00 00 01 14    	sbb    %eax,0x14010000
    10bf:	05 01 00 00 02       	add    $0x2000001,%eax
    10c4:	91                   	xchg   %eax,%ecx
    10c5:	08 08                	or     %cl,(%eax)
    10c7:	bd 01 00 00 01       	mov    $0x1000001,%ebp
    10cc:	16                   	push   %ss
    10cd:	74 00                	je     10cf <_init-0x804732d>
    10cf:	00 00                	add    %al,(%eax)
    10d1:	b4 14                	mov    $0x14,%ah
    10d3:	00 00                	add    %al,(%eax)
    10d5:	08 10                	or     %dl,(%eax)
    10d7:	05 00 00 01 17       	add    $0x17010000,%eax
    10dc:	74 00                	je     10de <_init-0x804731e>
    10de:	00 00                	add    %al,(%eax)
    10e0:	20 15 00 00 08 32    	and    %dl,0x32080000
    10e6:	05 00 00 01 18       	add    $0x18010000,%eax
    10eb:	74 00                	je     10ed <_init-0x804730f>
    10ed:	00 00                	add    %al,(%eax)
    10ef:	57                   	push   %edi
    10f0:	15 00 00 00 04       	adc    $0x4000000,%eax
    10f5:	04 67                	add    $0x67,%al
    10f7:	00 00                	add    %al,(%eax)
    10f9:	00 04 04             	add    %al,(%esp,%eax,1)
    10fc:	7f 00                	jg     10fe <_init-0x80472fe>
    10fe:	00 00                	add    %al,(%eax)
    1100:	09 3b                	or     %edi,(%ebx)
    1102:	05 00 00 03 3b       	add    $0x3b030000,%eax
    1107:	67 00 00             	add    %al,(%bx,%si)
    110a:	00 01                	add    %al,(%ecx)
    110c:	01 09                	add    %ecx,(%ecx)
    110e:	3b 05 00 00 03 3b    	cmp    0x3b030000,%eax
    1114:	67 00 00             	add    %al,(%bx,%si)
    1117:	00 01                	add    %al,(%ecx)
    1119:	01 00                	add    %eax,(%eax)
    111b:	4f                   	dec    %edi
    111c:	01 00                	add    %eax,(%eax)
    111e:	00 02                	add    %al,(%edx)
    1120:	00 13                	add    %dl,(%ebx)
    1122:	04 00                	add    $0x0,%al
    1124:	00 04 01             	add    %al,(%ecx,%eax,1)
    1127:	2b 00                	sub    (%eax),%eax
    1129:	00 00                	add    %al,(%eax)
    112b:	01 b5 05 00 00 90    	add    %esi,-0x6ffffffb(%ebp)
    1131:	98                   	cwtl   
    1132:	04 08                	add    $0x8,%al
    1134:	52                   	push   %edx
    1135:	99                   	cltd   
    1136:	04 08                	add    $0x8,%al
    1138:	85 06                	test   %eax,(%esi)
    113a:	00 00                	add    %al,(%eax)
    113c:	02 04 07             	add    (%edi,%eax,1),%al
    113f:	78 00                	js     1141 <_init-0x80472bb>
    1141:	00 00                	add    %al,(%eax)
    1143:	03 04 05 69 6e 74 00 	add    0x746e69(,%eax,1),%eax
    114a:	02 04 05 6e 01 00 00 	add    0x16e(,%eax,1),%al
    1151:	02 08                	add    (%eax),%cl
    1153:	05 69 01 00 00       	add    $0x169,%eax
    1158:	02 01                	add    (%ecx),%al
    115a:	08 93 00 00 00 02    	or     %dl,0x2000000(%ebx)
    1160:	02 07                	add    (%edi),%al
    1162:	ae                   	scas   %es:(%edi),%al
    1163:	00 00                	add    %al,(%eax)
    1165:	00 02                	add    %al,(%edx)
    1167:	04 07                	add    $0x7,%al
    1169:	73 00                	jae    116b <_init-0x8047291>
    116b:	00 00                	add    %al,(%eax)
    116d:	02 01                	add    (%ecx),%al
    116f:	06                   	push   %es
    1170:	95                   	xchg   %eax,%ebp
    1171:	00 00                	add    %al,(%eax)
    1173:	00 02                	add    %al,(%edx)
    1175:	02 05 77 01 00 00    	add    0x177,%al
    117b:	02 08                	add    (%eax),%cl
    117d:	07                   	pop    %es
    117e:	6e                   	outsb  %ds:(%esi),(%dx)
    117f:	00 00                	add    %al,(%eax)
    1181:	00 04 97             	add    %al,(%edi,%edx,4)
    1184:	05 00 00 02 95       	add    $0x95020000,%eax
    1189:	2f                   	das    
    118a:	00 00                	add    %al,(%eax)
    118c:	00 04 a7             	add    %al,(%edi,%eiz,4)
    118f:	05 00 00 02 97       	add    $0x97020000,%eax
    1194:	2f                   	das    
    1195:	00 00                	add    %al,(%eax)
    1197:	00 02                	add    %al,(%edx)
    1199:	01 06                	add    %eax,(%esi)
    119b:	9c                   	pushf  
    119c:	00 00                	add    %al,(%eax)
    119e:	00 05 75 05 00 00    	add    %al,0x575
    11a4:	08 03                	or     %al,(%ebx)
    11a6:	4b                   	dec    %ebx
    11a7:	ad                   	lods   %ds:(%esi),%eax
    11a8:	00 00                	add    %al,(%eax)
    11aa:	00 06                	add    %al,(%esi)
    11ac:	a0 05 00 00 03       	mov    0x3000005,%al
    11b1:	4d                   	dec    %ebp
    11b2:	67 00 00             	add    %al,(%bx,%si)
    11b5:	00 02                	add    %al,(%edx)
    11b7:	23 00                	and    (%eax),%eax
    11b9:	06                   	push   %es
    11ba:	8f 05 00 00 03 4e    	popl   0x4e030000
    11c0:	72 00                	jb     11c2 <_init-0x804723a>
    11c2:	00 00                	add    %al,(%eax)
    11c4:	02 23                	add    (%ebx),%ah
    11c6:	04 00                	add    $0x0,%al
    11c8:	04 0b                	add    $0xb,%al
    11ca:	00 00                	add    %al,(%eax)
    11cc:	00 04 04             	add    %al,(%esp,%eax,1)
    11cf:	28 00                	sub    %al,(%eax)
    11d1:	00 00                	add    %al,(%eax)
    11d3:	04 9c                	add    $0x9c,%al
    11d5:	01 00                	add    %eax,(%eax)
    11d7:	00 04 0b             	add    %al,(%ebx,%ecx,1)
    11da:	60                   	pusha  
    11db:	00 00                	add    %al,(%eax)
    11dd:	00 07                	add    %al,(%edi)
    11df:	01 7d 05             	add    %edi,0x5(%ebp)
    11e2:	00 00                	add    %al,(%eax)
    11e4:	01 0c 01             	add    %ecx,(%ecx,%eax,1)
    11e7:	b8 00 00 00 90       	mov    $0x90000000,%eax
    11ec:	98                   	cwtl   
    11ed:	04 08                	add    $0x8,%al
    11ef:	c5 98 04 08 9d 15    	lds    0x159d0804(%eax),%ebx
    11f5:	00 00                	add    %al,(%eax)
    11f7:	0d 01 00 00 08       	or     $0x8000001,%eax
    11fc:	42                   	inc    %edx
    11fd:	05 00 00 01 0e       	add    $0xe010000,%eax
    1202:	84 00                	test   %al,(%eax)
    1204:	00 00                	add    %al,(%eax)
    1206:	02 91 68 09 61 05    	add    0x5610968(%ecx),%dl
    120c:	00 00                	add    %al,(%eax)
    120e:	01 0f                	add    %ecx,(%edi)
    1210:	b8 00 00 00 d5       	mov    $0xd5000000,%eax
    1215:	15 00 00 09 db       	adc    $0xdb090000,%eax
    121a:	05 00 00 01 10       	add    $0x10010000,%eax
    121f:	ad                   	lods   %ds:(%esi),%eax
    1220:	00 00                	add    %al,(%eax)
    1222:	00 01                	add    %al,(%ecx)
    1224:	16                   	push   %ss
    1225:	00 00                	add    %al,(%eax)
    1227:	00 0a                	add    %cl,(%edx)
    1229:	01 4b 05             	add    %ecx,0x5(%ebx)
    122c:	00 00                	add    %al,(%eax)
    122e:	01 1f                	add    %ebx,(%edi)
    1230:	01 b8 00 00 00 d0    	add    %edi,-0x30000000(%eax)
    1236:	98                   	cwtl   
    1237:	04 08                	add    $0x8,%al
    1239:	52                   	push   %edx
    123a:	99                   	cltd   
    123b:	04 08                	add    $0x8,%al
    123d:	2b 16                	sub    (%esi),%edx
    123f:	00 00                	add    %al,(%eax)
    1241:	0b 6b 05             	or     0x5(%ebx),%ebp
    1244:	00 00                	add    %al,(%eax)
    1246:	01 1f                	add    %ebx,(%edi)
    1248:	b8 00 00 00 02       	mov    $0x2000000,%eax
    124d:	91                   	xchg   %eax,%ecx
    124e:	00 0b                	add    %cl,(%ebx)
    1250:	59                   	pop    %ecx
    1251:	05 00 00 01 1f       	add    $0x1f010000,%eax
    1256:	b8 00 00 00 02       	mov    $0x2000000,%eax
    125b:	91                   	xchg   %eax,%ecx
    125c:	08 09                	or     %cl,(%ecx)
    125e:	d8 00                	fadds  (%eax)
    1260:	00 00                	add    %al,(%eax)
    1262:	01 21                	add    %esp,(%ecx)
    1264:	b8 00 00 00 c3       	mov    $0xc3000000,%eax
    1269:	16                   	push   %ss
    126a:	00 00                	add    %al,(%eax)
	...

Disassembly of section .debug_abbrev:

00000000 <.debug_abbrev>:
   0:	01 11                	add    %edx,(%ecx)
   2:	01 25 0e 13 0b 03    	add    %esp,0x30b130e
   8:	0e                   	push   %cs
   9:	11 01                	adc    %eax,(%ecx)
   b:	12 01                	adc    (%ecx),%al
   d:	10 06                	adc    %al,(%esi)
   f:	00 00                	add    %al,(%eax)
  11:	02 16                	add    (%esi),%dl
  13:	00 03                	add    %al,(%ebx)
  15:	0e                   	push   %cs
  16:	3a 0b                	cmp    (%ebx),%cl
  18:	3b 0b                	cmp    (%ebx),%ecx
  1a:	49                   	dec    %ecx
  1b:	13 00                	adc    (%eax),%eax
  1d:	00 03                	add    %al,(%ebx)
  1f:	24 00                	and    $0x0,%al
  21:	0b 0b                	or     (%ebx),%ecx
  23:	3e 0b 03             	or     %ds:(%ebx),%eax
  26:	08 00                	or     %al,(%eax)
  28:	00 04 24             	add    %al,(%esp)
  2b:	00 0b                	add    %cl,(%ebx)
  2d:	0b 3e                	or     (%esi),%edi
  2f:	0b 03                	or     (%ebx),%eax
  31:	0e                   	push   %cs
  32:	00 00                	add    %al,(%eax)
  34:	05 13 01 03 0e       	add    $0xe030113,%eax
  39:	0b 0b                	or     (%ebx),%ecx
  3b:	3a 0b                	cmp    (%ebx),%cl
  3d:	3b 0b                	cmp    (%ebx),%ecx
  3f:	01 13                	add    %edx,(%ebx)
  41:	00 00                	add    %al,(%eax)
  43:	06                   	push   %es
  44:	0d 00 03 0e 3a       	or     $0x3a0e0300,%eax
  49:	0b 3b                	or     (%ebx),%edi
  4b:	0b 49 13             	or     0x13(%ecx),%ecx
  4e:	38 0a                	cmp    %cl,(%edx)
  50:	00 00                	add    %al,(%eax)
  52:	07                   	pop    %es
  53:	0f 00 0b             	str    (%ebx)
  56:	0b 49 13             	or     0x13(%ecx),%ecx
  59:	00 00                	add    %al,(%eax)
  5b:	08 2e                	or     %ch,(%esi)
  5d:	01 3f                	add    %edi,(%edi)
  5f:	0c 03                	or     $0x3,%al
  61:	0e                   	push   %cs
  62:	3a 0b                	cmp    (%ebx),%cl
  64:	3b 0b                	cmp    (%ebx),%ecx
  66:	27                   	daa    
  67:	0c 49                	or     $0x49,%al
  69:	13 20                	adc    (%eax),%esp
  6b:	0b 01                	or     (%ecx),%eax
  6d:	13 00                	adc    (%eax),%eax
  6f:	00 09                	add    %cl,(%ecx)
  71:	05 00 03 0e 3a       	add    $0x3a0e0300,%eax
  76:	0b 3b                	or     (%ebx),%edi
  78:	0b 49 13             	or     0x13(%ecx),%ecx
  7b:	00 00                	add    %al,(%eax)
  7d:	0a 34 00             	or     (%eax,%eax,1),%dh
  80:	03 0e                	add    (%esi),%ecx
  82:	3a 0b                	cmp    (%ebx),%cl
  84:	3b 0b                	cmp    (%ebx),%ecx
  86:	49                   	dec    %ecx
  87:	13 00                	adc    (%eax),%eax
  89:	00 0b                	add    %cl,(%ebx)
  8b:	2e 01 31             	add    %esi,%cs:(%ecx)
  8e:	13 11                	adc    (%ecx),%edx
  90:	01 12                	add    %edx,(%edx)
  92:	01 40 06             	add    %eax,0x6(%eax)
  95:	01 13                	add    %edx,(%ebx)
  97:	00 00                	add    %al,(%eax)
  99:	0c 05                	or     $0x5,%al
  9b:	00 31                	add    %dh,(%ecx)
  9d:	13 02                	adc    (%edx),%eax
  9f:	0a 00                	or     (%eax),%al
  a1:	00 0d 34 00 31 13    	add    %cl,0x13310034
  a7:	02 06                	add    (%esi),%al
  a9:	00 00                	add    %al,(%eax)
  ab:	0e                   	push   %cs
  ac:	1d 01 31 13 11       	sbb    $0x11133101,%eax
  b1:	01 12                	add    %edx,(%edx)
  b3:	01 58 0b             	add    %ebx,0xb(%eax)
  b6:	59                   	pop    %ecx
  b7:	0b 00                	or     (%eax),%eax
  b9:	00 0f                	add    %cl,(%edi)
  bb:	05 00 31 13 02       	add    $0x2133100,%eax
  c0:	06                   	push   %es
  c1:	00 00                	add    %al,(%eax)
  c3:	10 0b                	adc    %cl,(%ebx)
  c5:	01 11                	add    %edx,(%ecx)
  c7:	01 12                	add    %edx,(%edx)
  c9:	01 00                	add    %eax,(%eax)
  cb:	00 11                	add    %dl,(%ecx)
  cd:	1d 01 31 13 52       	sbb    $0x52133101,%eax
  d2:	01 55 06             	add    %edx,0x6(%ebp)
  d5:	58                   	pop    %eax
  d6:	0b 59 0b             	or     0xb(%ecx),%ebx
  d9:	00 00                	add    %al,(%eax)
  db:	12 0b                	adc    (%ebx),%cl
  dd:	01 55 06             	add    %edx,0x6(%ebp)
  e0:	00 00                	add    %al,(%eax)
  e2:	13 34 00             	adc    (%eax,%eax,1),%esi
  e5:	31 13                	xor    %edx,(%ebx)
  e7:	02 0a                	add    (%edx),%cl
  e9:	00 00                	add    %al,(%eax)
  eb:	14 1d                	adc    $0x1d,%al
  ed:	01 31                	add    %esi,(%ecx)
  ef:	13 52 01             	adc    0x1(%edx),%edx
  f2:	55                   	push   %ebp
  f3:	06                   	push   %es
  f4:	58                   	pop    %eax
  f5:	0b 59 0b             	or     0xb(%ecx),%ebx
  f8:	01 13                	add    %edx,(%ebx)
  fa:	00 00                	add    %al,(%eax)
  fc:	15 2e 01 3f 0c       	adc    $0xc3f012e,%eax
 101:	03 0e                	add    (%esi),%ecx
 103:	3a 0b                	cmp    (%ebx),%cl
 105:	3b 0b                	cmp    (%ebx),%ecx
 107:	27                   	daa    
 108:	0c 49                	or     $0x49,%al
 10a:	13 11                	adc    (%ecx),%edx
 10c:	01 12                	add    %edx,(%edx)
 10e:	01 40 06             	add    %eax,0x6(%eax)
 111:	01 13                	add    %edx,(%ebx)
 113:	00 00                	add    %al,(%eax)
 115:	16                   	push   %ss
 116:	05 00 03 0e 3a       	add    $0x3a0e0300,%eax
 11b:	0b 3b                	or     (%ebx),%edi
 11d:	0b 49 13             	or     0x13(%ecx),%ecx
 120:	02 0a                	add    (%edx),%cl
 122:	00 00                	add    %al,(%eax)
 124:	17                   	pop    %ss
 125:	34 00                	xor    $0x0,%al
 127:	03 0e                	add    (%esi),%ecx
 129:	3a 0b                	cmp    (%ebx),%cl
 12b:	3b 0b                	cmp    (%ebx),%ecx
 12d:	49                   	dec    %ecx
 12e:	13 02                	adc    (%edx),%eax
 130:	06                   	push   %es
 131:	00 00                	add    %al,(%eax)
 133:	18 34 00             	sbb    %dh,(%eax,%eax,1)
 136:	03 0e                	add    (%esi),%ecx
 138:	3a 0b                	cmp    (%ebx),%cl
 13a:	3b 0b                	cmp    (%ebx),%ecx
 13c:	49                   	dec    %ecx
 13d:	13 02                	adc    (%edx),%eax
 13f:	0a 00                	or     (%eax),%al
 141:	00 19                	add    %bl,(%ecx)
 143:	2e 01 3f             	add    %edi,%cs:(%edi)
 146:	0c 03                	or     $0x3,%al
 148:	0e                   	push   %cs
 149:	3a 0b                	cmp    (%ebx),%cl
 14b:	3b 0b                	cmp    (%ebx),%ecx
 14d:	27                   	daa    
 14e:	0c 49                	or     $0x49,%al
 150:	13 11                	adc    (%ecx),%edx
 152:	01 12                	add    %edx,(%edx)
 154:	01 40 06             	add    %eax,0x6(%eax)
 157:	00 00                	add    %al,(%eax)
 159:	00 01                	add    %al,(%ecx)
 15b:	11 01                	adc    %eax,(%ecx)
 15d:	25 0e 13 0b 03       	and    $0x30b130e,%eax
 162:	0e                   	push   %cs
 163:	11 01                	adc    %eax,(%ecx)
 165:	12 01                	adc    (%ecx),%al
 167:	10 06                	adc    %al,(%esi)
 169:	00 00                	add    %al,(%eax)
 16b:	02 24 00             	add    (%eax,%eax,1),%ah
 16e:	0b 0b                	or     (%ebx),%ecx
 170:	3e 0b 03             	or     %ds:(%ebx),%eax
 173:	0e                   	push   %cs
 174:	00 00                	add    %al,(%eax)
 176:	03 24 00             	add    (%eax,%eax,1),%esp
 179:	0b 0b                	or     (%ebx),%ecx
 17b:	3e 0b 03             	or     %ds:(%ebx),%eax
 17e:	08 00                	or     %al,(%eax)
 180:	00 04 16             	add    %al,(%esi,%edx,1)
 183:	00 03                	add    %al,(%ebx)
 185:	0e                   	push   %cs
 186:	3a 0b                	cmp    (%ebx),%cl
 188:	3b 0b                	cmp    (%ebx),%ecx
 18a:	49                   	dec    %ecx
 18b:	13 00                	adc    (%eax),%eax
 18d:	00 05 13 01 03 0e    	add    %al,0xe030113
 193:	0b 0b                	or     (%ebx),%ecx
 195:	3a 0b                	cmp    (%ebx),%cl
 197:	3b 0b                	cmp    (%ebx),%ecx
 199:	01 13                	add    %edx,(%ebx)
 19b:	00 00                	add    %al,(%eax)
 19d:	06                   	push   %es
 19e:	0d 00 03 0e 3a       	or     $0x3a0e0300,%eax
 1a3:	0b 3b                	or     (%ebx),%edi
 1a5:	0b 49 13             	or     0x13(%ecx),%ecx
 1a8:	38 0a                	cmp    %cl,(%edx)
 1aa:	00 00                	add    %al,(%eax)
 1ac:	07                   	pop    %es
 1ad:	0f 00 0b             	str    (%ebx)
 1b0:	0b 49 13             	or     0x13(%ecx),%ecx
 1b3:	00 00                	add    %al,(%eax)
 1b5:	08 2e                	or     %ch,(%esi)
 1b7:	01 3f                	add    %edi,(%edi)
 1b9:	0c 03                	or     $0x3,%al
 1bb:	0e                   	push   %cs
 1bc:	3a 0b                	cmp    (%ebx),%cl
 1be:	3b 0b                	cmp    (%ebx),%ecx
 1c0:	27                   	daa    
 1c1:	0c 49                	or     $0x49,%al
 1c3:	13 11                	adc    (%ecx),%edx
 1c5:	01 12                	add    %edx,(%edx)
 1c7:	01 40 06             	add    %eax,0x6(%eax)
 1ca:	01 13                	add    %edx,(%ebx)
 1cc:	00 00                	add    %al,(%eax)
 1ce:	09 05 00 03 0e 3a    	or     %eax,0x3a0e0300
 1d4:	0b 3b                	or     (%ebx),%edi
 1d6:	0b 49 13             	or     0x13(%ecx),%ecx
 1d9:	02 0a                	add    (%edx),%cl
 1db:	00 00                	add    %al,(%eax)
 1dd:	0a 34 00             	or     (%eax,%eax,1),%dh
 1e0:	03 0e                	add    (%esi),%ecx
 1e2:	3a 0b                	cmp    (%ebx),%cl
 1e4:	3b 0b                	cmp    (%ebx),%ecx
 1e6:	49                   	dec    %ecx
 1e7:	13 02                	adc    (%edx),%eax
 1e9:	06                   	push   %es
 1ea:	00 00                	add    %al,(%eax)
 1ec:	0b 2e                	or     (%esi),%ebp
 1ee:	01 3f                	add    %edi,(%edi)
 1f0:	0c 03                	or     $0x3,%al
 1f2:	0e                   	push   %cs
 1f3:	3a 0b                	cmp    (%ebx),%cl
 1f5:	3b 0b                	cmp    (%ebx),%ecx
 1f7:	27                   	daa    
 1f8:	0c 49                	or     $0x49,%al
 1fa:	13 11                	adc    (%ecx),%edx
 1fc:	01 12                	add    %edx,(%edx)
 1fe:	01 40 06             	add    %eax,0x6(%eax)
 201:	00 00                	add    %al,(%eax)
 203:	00 01                	add    %al,(%ecx)
 205:	11 01                	adc    %eax,(%ecx)
 207:	25 0e 13 0b 03       	and    $0x30b130e,%eax
 20c:	0e                   	push   %cs
 20d:	11 01                	adc    %eax,(%ecx)
 20f:	12 01                	adc    (%ecx),%al
 211:	10 06                	adc    %al,(%esi)
 213:	00 00                	add    %al,(%eax)
 215:	02 16                	add    (%esi),%dl
 217:	00 03                	add    %al,(%ebx)
 219:	0e                   	push   %cs
 21a:	3a 0b                	cmp    (%ebx),%cl
 21c:	3b 0b                	cmp    (%ebx),%ecx
 21e:	49                   	dec    %ecx
 21f:	13 00                	adc    (%eax),%eax
 221:	00 03                	add    %al,(%ebx)
 223:	24 00                	and    $0x0,%al
 225:	0b 0b                	or     (%ebx),%ecx
 227:	3e 0b 03             	or     %ds:(%ebx),%eax
 22a:	0e                   	push   %cs
 22b:	00 00                	add    %al,(%eax)
 22d:	04 24                	add    $0x24,%al
 22f:	00 0b                	add    %cl,(%ebx)
 231:	0b 3e                	or     (%esi),%edi
 233:	0b 03                	or     (%ebx),%eax
 235:	08 00                	or     %al,(%eax)
 237:	00 05 0f 00 0b 0b    	add    %al,0xb0b000f
 23d:	00 00                	add    %al,(%eax)
 23f:	06                   	push   %es
 240:	0f 00 0b             	str    (%ebx)
 243:	0b 49 13             	or     0x13(%ecx),%ecx
 246:	00 00                	add    %al,(%eax)
 248:	07                   	pop    %es
 249:	13 01                	adc    (%ecx),%eax
 24b:	03 0e                	add    (%esi),%ecx
 24d:	0b 0b                	or     (%ebx),%ecx
 24f:	3a 0b                	cmp    (%ebx),%cl
 251:	3b 05 01 13 00 00    	cmp    0x1301,%eax
 257:	08 0d 00 03 0e 3a    	or     %cl,0x3a0e0300
 25d:	0b 3b                	or     (%ebx),%edi
 25f:	05 49 13 38 0a       	add    $0xa381349,%eax
 264:	00 00                	add    %al,(%eax)
 266:	09 0f                	or     %ecx,(%edi)
 268:	00 0b                	add    %cl,(%ebx)
 26a:	0b 03                	or     (%ebx),%eax
 26c:	0e                   	push   %cs
 26d:	49                   	dec    %ecx
 26e:	13 00                	adc    (%eax),%eax
 270:	00 0a                	add    %cl,(%edx)
 272:	16                   	push   %ss
 273:	00 03                	add    %al,(%ebx)
 275:	0e                   	push   %cs
 276:	3a 0b                	cmp    (%ebx),%cl
 278:	3b 0b                	cmp    (%ebx),%ecx
 27a:	00 00                	add    %al,(%eax)
 27c:	0b 13                	or     (%ebx),%edx
 27e:	01 03                	add    %eax,(%ebx)
 280:	0e                   	push   %cs
 281:	0b 0b                	or     (%ebx),%ecx
 283:	3a 0b                	cmp    (%ebx),%cl
 285:	3b 0b                	cmp    (%ebx),%ecx
 287:	01 13                	add    %edx,(%ebx)
 289:	00 00                	add    %al,(%eax)
 28b:	0c 0d                	or     $0xd,%al
 28d:	00 03                	add    %al,(%ebx)
 28f:	0e                   	push   %cs
 290:	3a 0b                	cmp    (%ebx),%cl
 292:	3b 0b                	cmp    (%ebx),%ecx
 294:	49                   	dec    %ecx
 295:	13 38                	adc    (%eax),%edi
 297:	0a 00                	or     (%eax),%al
 299:	00 0d 01 01 49 13    	add    %cl,0x13490101
 29f:	01 13                	add    %edx,(%ebx)
 2a1:	00 00                	add    %al,(%eax)
 2a3:	0e                   	push   %cs
 2a4:	21 00                	and    %eax,(%eax)
 2a6:	49                   	dec    %ecx
 2a7:	13 2f                	adc    (%edi),%ebp
 2a9:	0b 00                	or     (%eax),%eax
 2ab:	00 0f                	add    %cl,(%edi)
 2ad:	26 00 49 13          	add    %cl,%es:0x13(%ecx)
 2b1:	00 00                	add    %al,(%eax)
 2b3:	10 2e                	adc    %ch,(%esi)
 2b5:	01 3f                	add    %edi,(%edi)
 2b7:	0c 03                	or     $0x3,%al
 2b9:	0e                   	push   %cs
 2ba:	3a 0b                	cmp    (%ebx),%cl
 2bc:	3b 0b                	cmp    (%ebx),%ecx
 2be:	27                   	daa    
 2bf:	0c 49                	or     $0x49,%al
 2c1:	13 20                	adc    (%eax),%esp
 2c3:	0b 34 0c             	or     (%esp,%ecx,1),%esi
 2c6:	01 13                	add    %edx,(%ebx)
 2c8:	00 00                	add    %al,(%eax)
 2ca:	11 05 00 03 0e 3a    	adc    %eax,0x3a0e0300
 2d0:	0b 3b                	or     (%ebx),%edi
 2d2:	0b 49 13             	or     0x13(%ecx),%ecx
 2d5:	00 00                	add    %al,(%eax)
 2d7:	12 18                	adc    (%eax),%bl
 2d9:	00 00                	add    %al,(%eax)
 2db:	00 13                	add    %dl,(%ebx)
 2dd:	2e 01 03             	add    %eax,%cs:(%ebx)
 2e0:	0e                   	push   %cs
 2e1:	3a 0b                	cmp    (%ebx),%cl
 2e3:	3b 0b                	cmp    (%ebx),%ecx
 2e5:	27                   	daa    
 2e6:	0c 20                	or     $0x20,%al
 2e8:	0b 01                	or     (%ecx),%eax
 2ea:	13 00                	adc    (%eax),%eax
 2ec:	00 14 2e             	add    %dl,(%esi,%ebp,1)
 2ef:	01 3f                	add    %edi,(%edi)
 2f1:	0c 03                	or     $0x3,%al
 2f3:	0e                   	push   %cs
 2f4:	3a 0b                	cmp    (%ebx),%cl
 2f6:	3b 0b                	cmp    (%ebx),%ecx
 2f8:	27                   	daa    
 2f9:	0c 11                	or     $0x11,%al
 2fb:	01 12                	add    %edx,(%edx)
 2fd:	01 40 06             	add    %eax,0x6(%eax)
 300:	01 13                	add    %edx,(%ebx)
 302:	00 00                	add    %al,(%eax)
 304:	15 05 00 03 0e       	adc    $0xe030005,%eax
 309:	3a 0b                	cmp    (%ebx),%cl
 30b:	3b 0b                	cmp    (%ebx),%ecx
 30d:	49                   	dec    %ecx
 30e:	13 02                	adc    (%edx),%eax
 310:	0a 00                	or     (%eax),%al
 312:	00 16                	add    %dl,(%esi)
 314:	34 00                	xor    $0x0,%al
 316:	03 0e                	add    (%esi),%ecx
 318:	3a 0b                	cmp    (%ebx),%cl
 31a:	3b 0b                	cmp    (%ebx),%ecx
 31c:	49                   	dec    %ecx
 31d:	13 02                	adc    (%edx),%eax
 31f:	06                   	push   %es
 320:	00 00                	add    %al,(%eax)
 322:	17                   	pop    %ss
 323:	1d 01 31 13 52       	sbb    $0x52133101,%eax
 328:	01 55 06             	add    %edx,0x6(%ebp)
 32b:	58                   	pop    %eax
 32c:	0b 59 0b             	or     0xb(%ecx),%ebx
 32f:	00 00                	add    %al,(%eax)
 331:	18 05 00 31 13 00    	sbb    %al,0x133100
 337:	00 19                	add    %bl,(%ecx)
 339:	05 00 31 13 02       	add    $0x2133100,%eax
 33e:	0a 00                	or     (%eax),%al
 340:	00 1a                	add    %bl,(%edx)
 342:	1d 01 31 13 52       	sbb    $0x52133101,%eax
 347:	01 55 06             	add    %edx,0x6(%ebp)
 34a:	58                   	pop    %eax
 34b:	0b 59 0b             	or     0xb(%ecx),%ebx
 34e:	01 13                	add    %edx,(%ebx)
 350:	00 00                	add    %al,(%eax)
 352:	1b 05 00 31 13 02    	sbb    0x2133100,%eax
 358:	06                   	push   %es
 359:	00 00                	add    %al,(%eax)
 35b:	1c 1d                	sbb    $0x1d,%al
 35d:	01 31                	add    %esi,(%ecx)
 35f:	13 11                	adc    (%ecx),%edx
 361:	01 12                	add    %edx,(%edx)
 363:	01 58 0b             	add    %ebx,0xb(%eax)
 366:	59                   	pop    %ecx
 367:	0b 00                	or     (%eax),%eax
 369:	00 1d 34 00 03 0e    	add    %bl,0xe030034
 36f:	3a 0b                	cmp    (%ebx),%cl
 371:	3b 0b                	cmp    (%ebx),%ecx
 373:	49                   	dec    %ecx
 374:	13 3f                	adc    (%edi),%edi
 376:	0c 3c                	or     $0x3c,%al
 378:	0c 00                	or     $0x0,%al
 37a:	00 1e                	add    %bl,(%esi)
 37c:	34 00                	xor    $0x0,%al
 37e:	03 0e                	add    (%esi),%ecx
 380:	3a 0b                	cmp    (%ebx),%cl
 382:	3b 0b                	cmp    (%ebx),%ecx
 384:	49                   	dec    %ecx
 385:	13 3f                	adc    (%edi),%edi
 387:	0c 02                	or     $0x2,%al
 389:	0a 00                	or     (%eax),%al
 38b:	00 00                	add    %al,(%eax)
 38d:	01 11                	add    %edx,(%ecx)
 38f:	01 25 0e 13 0b 03    	add    %esp,0x30b130e
 395:	0e                   	push   %cs
 396:	11 01                	adc    %eax,(%ecx)
 398:	12 01                	adc    (%ecx),%al
 39a:	10 06                	adc    %al,(%esi)
 39c:	00 00                	add    %al,(%eax)
 39e:	02 24 00             	add    (%eax,%eax,1),%ah
 3a1:	0b 0b                	or     (%ebx),%ecx
 3a3:	3e 0b 03             	or     %ds:(%ebx),%eax
 3a6:	0e                   	push   %cs
 3a7:	00 00                	add    %al,(%eax)
 3a9:	03 24 00             	add    (%eax,%eax,1),%esp
 3ac:	0b 0b                	or     (%ebx),%ecx
 3ae:	3e 0b 03             	or     %ds:(%ebx),%eax
 3b1:	08 00                	or     %al,(%eax)
 3b3:	00 04 0f             	add    %al,(%edi,%ecx,1)
 3b6:	00 0b                	add    %cl,(%ebx)
 3b8:	0b 49 13             	or     0x13(%ecx),%ecx
 3bb:	00 00                	add    %al,(%eax)
 3bd:	05 16 00 03 0e       	add    $0xe030016,%eax
 3c2:	3a 0b                	cmp    (%ebx),%cl
 3c4:	3b 0b                	cmp    (%ebx),%ecx
 3c6:	49                   	dec    %ecx
 3c7:	13 00                	adc    (%eax),%eax
 3c9:	00 06                	add    %al,(%esi)
 3cb:	2e 01 3f             	add    %edi,%cs:(%edi)
 3ce:	0c 03                	or     $0x3,%al
 3d0:	0e                   	push   %cs
 3d1:	3a 0b                	cmp    (%ebx),%cl
 3d3:	3b 0b                	cmp    (%ebx),%ecx
 3d5:	27                   	daa    
 3d6:	0c 49                	or     $0x49,%al
 3d8:	13 11                	adc    (%ecx),%edx
 3da:	01 12                	add    %edx,(%edx)
 3dc:	01 40 06             	add    %eax,0x6(%eax)
 3df:	01 13                	add    %edx,(%ebx)
 3e1:	00 00                	add    %al,(%eax)
 3e3:	07                   	pop    %es
 3e4:	05 00 03 0e 3a       	add    $0x3a0e0300,%eax
 3e9:	0b 3b                	or     (%ebx),%edi
 3eb:	0b 49 13             	or     0x13(%ecx),%ecx
 3ee:	02 0a                	add    (%edx),%cl
 3f0:	00 00                	add    %al,(%eax)
 3f2:	08 34 00             	or     %dh,(%eax,%eax,1)
 3f5:	03 0e                	add    (%esi),%ecx
 3f7:	3a 0b                	cmp    (%ebx),%cl
 3f9:	3b 0b                	cmp    (%ebx),%ecx
 3fb:	49                   	dec    %ecx
 3fc:	13 02                	adc    (%edx),%eax
 3fe:	06                   	push   %es
 3ff:	00 00                	add    %al,(%eax)
 401:	09 34 00             	or     %esi,(%eax,%eax,1)
 404:	03 0e                	add    (%esi),%ecx
 406:	3a 0b                	cmp    (%ebx),%cl
 408:	3b 0b                	cmp    (%ebx),%ecx
 40a:	49                   	dec    %ecx
 40b:	13 3f                	adc    (%edi),%edi
 40d:	0c 3c                	or     $0x3c,%al
 40f:	0c 00                	or     $0x0,%al
 411:	00 00                	add    %al,(%eax)
 413:	01 11                	add    %edx,(%ecx)
 415:	01 25 0e 13 0b 03    	add    %esp,0x30b130e
 41b:	0e                   	push   %cs
 41c:	11 01                	adc    %eax,(%ecx)
 41e:	12 01                	adc    (%ecx),%al
 420:	10 06                	adc    %al,(%esi)
 422:	00 00                	add    %al,(%eax)
 424:	02 24 00             	add    (%eax,%eax,1),%ah
 427:	0b 0b                	or     (%ebx),%ecx
 429:	3e 0b 03             	or     %ds:(%ebx),%eax
 42c:	0e                   	push   %cs
 42d:	00 00                	add    %al,(%eax)
 42f:	03 24 00             	add    (%eax,%eax,1),%esp
 432:	0b 0b                	or     (%ebx),%ecx
 434:	3e 0b 03             	or     %ds:(%ebx),%eax
 437:	08 00                	or     %al,(%eax)
 439:	00 04 16             	add    %al,(%esi,%edx,1)
 43c:	00 03                	add    %al,(%ebx)
 43e:	0e                   	push   %cs
 43f:	3a 0b                	cmp    (%ebx),%cl
 441:	3b 0b                	cmp    (%ebx),%ecx
 443:	49                   	dec    %ecx
 444:	13 00                	adc    (%eax),%eax
 446:	00 05 13 01 03 0e    	add    %al,0xe030113
 44c:	0b 0b                	or     (%ebx),%ecx
 44e:	3a 0b                	cmp    (%ebx),%cl
 450:	3b 0b                	cmp    (%ebx),%ecx
 452:	01 13                	add    %edx,(%ebx)
 454:	00 00                	add    %al,(%eax)
 456:	06                   	push   %es
 457:	0d 00 03 0e 3a       	or     $0x3a0e0300,%eax
 45c:	0b 3b                	or     (%ebx),%edi
 45e:	0b 49 13             	or     0x13(%ecx),%ecx
 461:	38 0a                	cmp    %cl,(%edx)
 463:	00 00                	add    %al,(%eax)
 465:	07                   	pop    %es
 466:	2e 01 3f             	add    %edi,%cs:(%edi)
 469:	0c 03                	or     $0x3,%al
 46b:	0e                   	push   %cs
 46c:	3a 0b                	cmp    (%ebx),%cl
 46e:	3b 0b                	cmp    (%ebx),%ecx
 470:	27                   	daa    
 471:	0c 49                	or     $0x49,%al
 473:	13 11                	adc    (%ecx),%edx
 475:	01 12                	add    %edx,(%edx)
 477:	01 40 06             	add    %eax,0x6(%eax)
 47a:	01 13                	add    %edx,(%ebx)
 47c:	00 00                	add    %al,(%eax)
 47e:	08 34 00             	or     %dh,(%eax,%eax,1)
 481:	03 0e                	add    (%esi),%ecx
 483:	3a 0b                	cmp    (%ebx),%cl
 485:	3b 0b                	cmp    (%ebx),%ecx
 487:	49                   	dec    %ecx
 488:	13 02                	adc    (%edx),%eax
 48a:	0a 00                	or     (%eax),%al
 48c:	00 09                	add    %cl,(%ecx)
 48e:	34 00                	xor    $0x0,%al
 490:	03 0e                	add    (%esi),%ecx
 492:	3a 0b                	cmp    (%ebx),%cl
 494:	3b 0b                	cmp    (%ebx),%ecx
 496:	49                   	dec    %ecx
 497:	13 02                	adc    (%edx),%eax
 499:	06                   	push   %es
 49a:	00 00                	add    %al,(%eax)
 49c:	0a 2e                	or     (%esi),%ch
 49e:	01 3f                	add    %edi,(%edi)
 4a0:	0c 03                	or     $0x3,%al
 4a2:	0e                   	push   %cs
 4a3:	3a 0b                	cmp    (%ebx),%cl
 4a5:	3b 0b                	cmp    (%ebx),%ecx
 4a7:	27                   	daa    
 4a8:	0c 49                	or     $0x49,%al
 4aa:	13 11                	adc    (%ecx),%edx
 4ac:	01 12                	add    %edx,(%edx)
 4ae:	01 40 06             	add    %eax,0x6(%eax)
 4b1:	00 00                	add    %al,(%eax)
 4b3:	0b 05 00 03 0e 3a    	or     0x3a0e0300,%eax
 4b9:	0b 3b                	or     (%ebx),%edi
 4bb:	0b 49 13             	or     0x13(%ecx),%ecx
 4be:	02 0a                	add    (%edx),%cl
 4c0:	00 00                	add    %al,(%eax)
	...

Disassembly of section .debug_line:

00000000 <.debug_line>:
   0:	07                   	pop    %es
   1:	03 00                	add    (%eax),%eax
   3:	00 02                	add    %al,(%edx)
   5:	00 74 00 00          	add    %dh,0x0(%eax,%eax,1)
   9:	00 01                	add    %al,(%ecx)
   b:	01 fb                	add    %edi,%ebx
   d:	0e                   	push   %cs
   e:	0d 00 01 01 01       	or     $0x1010100,%eax
  13:	01 00                	add    %eax,(%eax)
  15:	00 00                	add    %al,(%eax)
  17:	01 00                	add    %eax,(%eax)
  19:	00 01                	add    %al,(%ecx)
  1b:	2f                   	das    
  1c:	73 70                	jae    8e <_init-0x804836e>
  1e:	61                   	popa   
  1f:	63 65 2f             	arpl   %sp,0x2f(%ebp)
  22:	62 65 74             	bound  %esp,0x74(%ebp)
  25:	61                   	popa   
  26:	73 61                	jae    89 <_init-0x8048373>
  28:	6d                   	insl   (%dx),%es:(%edi)
  29:	2f                   	das    
  2a:	66 69 62 6f 6e 61    	imul   $0x616e,0x6f(%edx),%sp
  30:	63 63 69             	arpl   %sp,0x69(%ebx)
  33:	2f                   	das    
  34:	2f                   	das    
  35:	73 72                	jae    a9 <_init-0x8048353>
  37:	63 00                	arpl   %ax,(%eax)
  39:	2f                   	das    
  3a:	73 70                	jae    ac <_init-0x8048350>
  3c:	61                   	popa   
  3d:	63 65 2f             	arpl   %sp,0x2f(%ebp)
  40:	62 65 74             	bound  %esp,0x74(%ebp)
  43:	61                   	popa   
  44:	73 61                	jae    a7 <_init-0x8048355>
  46:	6d                   	insl   (%dx),%es:(%edi)
  47:	2f                   	das    
  48:	66 69 62 6f 6e 61    	imul   $0x616e,0x6f(%edx),%sp
  4e:	63 63 69             	arpl   %sp,0x69(%ebx)
  51:	2f                   	das    
  52:	69 6e 63 6c 75 64 65 	imul   $0x6564756c,0x63(%esi),%ebp
  59:	00 00                	add    %al,(%eax)
  5b:	74 65                	je     c2 <_init-0x804833a>
  5d:	73 74                	jae    d3 <_init-0x8048329>
  5f:	2e 63 00             	arpl   %ax,%cs:(%eax)
  62:	01 00                	add    %eax,(%eax)
  64:	00 6c 74 79          	add    %ch,0x79(%esp,%esi,2)
  68:	70 65                	jo     cf <_init-0x804832d>
  6a:	73 2e                	jae    9a <_init-0x8048362>
  6c:	68 00 02 00 00       	push   $0x200
  71:	6c                   	insb   (%dx),%es:(%edi)
  72:	63 61 63             	arpl   %sp,0x63(%ecx)
  75:	68 65 2e 68 00       	push   $0x682e65
  7a:	02 00                	add    (%eax),%al
  7c:	00 00                	add    %al,(%eax)
  7e:	00 05 02 90 85 04    	add    %al,0x4859002
  84:	08 03                	or     %al,(%ebx)
  86:	0d 01 ba 08 3f       	or     $0x3f08ba01,%eax
  8b:	9a 78 70 94 08 a8 40 	lcall  $0x40a8,$0x8947078
  92:	d2 6a 02             	shrb   %cl,0x2(%edx)
  95:	d4 01                	aam    $0x1
  97:	17                   	pop    %ss
  98:	08 1b                	or     %bl,(%ebx)
  9a:	f4                   	hlt    
  9b:	2c 02                	sub    $0x2,%al
  9d:	22 14 2c             	and    (%esp,%ebp,1),%dl
  a0:	02 23                	add    (%ebx),%ah
  a2:	0e                   	push   %cs
  a3:	78 30                	js     d5 <_init-0x8048327>
  a5:	2c 08                	sub    $0x8,%al
  a7:	ee                   	out    %al,(%dx)
  a8:	78 30                	js     da <_init-0x8048322>
  aa:	2c 02                	sub    $0x2,%al
  ac:	57                   	push   %edi
  ad:	0e                   	push   %cs
  ae:	42                   	inc    %edx
  af:	03 7a 2e             	add    0x2e(%edx),%edi
  b2:	5e                   	pop    %esi
  b3:	3a 08                	cmp    (%eax),%cl
  b5:	46                   	inc    %esi
  b6:	42                   	inc    %edx
  b7:	03 7a 2e             	add    0x2e(%edx),%edi
  ba:	5e                   	pop    %esi
  bb:	3a 08                	cmp    (%eax),%cl
  bd:	46                   	inc    %esi
  be:	42                   	inc    %edx
  bf:	03 7a 2e             	add    0x2e(%edx),%edi
  c2:	5e                   	pop    %esi
  c3:	3a 08                	cmp    (%eax),%cl
  c5:	46                   	inc    %esi
  c6:	6c                   	insb   (%dx),%es:(%edi)
  c7:	03 7a 2e             	add    0x2e(%edx),%edi
  ca:	5e                   	pop    %esi
  cb:	03 7a 66             	add    0x66(%edx),%edi
  ce:	08 42 03             	or     %al,0x3(%edx)
  d1:	7a 2e                	jp     101 <_init-0x80482fb>
  d3:	5e                   	pop    %esi
  d4:	03 7a 3c             	add    0x3c(%edx),%edi
  d7:	03 0d 66 08 23 6b    	add    0x6b230866,%ecx
  dd:	45                   	inc    %ebp
  de:	95                   	xchg   %eax,%ebp
  df:	6c                   	insb   (%dx),%es:(%edi)
  e0:	a2 03 0d 08 66       	mov    %al,0x66080d03
  e5:	52                   	push   %edx
  e6:	03 71 08             	add    0x8(%ecx),%esi
  e9:	20 67 f1             	and    %ah,-0xf(%edi)
  ec:	c9                   	leave  
  ed:	c9                   	leave  
  ee:	08 eb                	or     %ch,%bl
  f0:	03 69 3c             	add    0x3c(%ecx),%ebp
  f3:	03 17                	add    (%edi),%edx
  f5:	74 03                	je     fa <_init-0x8048302>
  f7:	67 3c 5e             	addr16 cmp $0x5e,%al
  fa:	a2 03 0d 08 3c       	mov    %al,0x3c080d03
  ff:	84 03                	test   %al,(%ebx)
 101:	69 3c 03 17 2e 03 67 	imul   $0x67032e17,(%ebx,%eax,1),%edi
 108:	3c 3e                	cmp    $0x3e,%al
 10a:	2c 34                	sub    $0x34,%al
 10c:	cc                   	int3   
 10d:	03 0d 08 3c a0 2f    	add    0x2fa03c08,%ecx
 113:	3b 2f                	cmp    (%edi),%ebp
 115:	03 76 08             	add    0x8(%esi),%esi
 118:	d6                   	(bad)  
 119:	08 13                	or     %dl,(%ebx)
 11b:	08 fa                	or     %bh,%dl
 11d:	03 69 3c             	add    0x3c(%ecx),%ebp
 120:	2c 3e                	sub    $0x3e,%al
 122:	56                   	push   %esi
 123:	34 cc                	xor    $0xcc,%al
 125:	03 0d 08 2e 03 73    	add    0x73032e08,%ecx
 12b:	3c 03                	cmp    $0x3,%al
 12d:	0d 2e 03 73 4a       	or     $0x4a73032e,%eax
 132:	03 0d 2e 68 03 67    	add    0x6703682e,%ecx
 138:	3c 03                	cmp    $0x3,%al
 13a:	19 3c 03             	sbb    %edi,(%ebx,%eax,1)
 13d:	67 3c 6c             	addr16 cmp $0x6c,%al
 140:	cc                   	int3   
 141:	03 0d 08 66 a0 4b    	add    0x4ba06608,%ecx
 147:	03 76 08             	add    0x8(%esi),%esi
 14a:	ba 08 13 08 fa       	mov    $0xfa081308,%edx
 14f:	03 67 3c             	add    0x3c(%edi),%esp
 152:	03 19                	add    (%ecx),%ebx
 154:	3c 03                	cmp    $0x3,%al
 156:	69 3c d4 34 cc 03 0d 	imul   $0xd03cc34,(%esp,%edx,8),%edi
 15d:	08 2e                	or     %ch,(%esi)
 15f:	03 73 2e             	add    0x2e(%ebx),%esi
 162:	03 0d 3c 68 03 67    	add    0x6703683c,%ecx
 168:	3c 03                	cmp    $0x3,%al
 16a:	19 3c 03             	sbb    %edi,(%ebx,%eax,1)
 16d:	67 3c 6c             	addr16 cmp $0x6c,%al
 170:	da 03                	fiaddl (%ebx)
 172:	0d 08 66 a0 67       	or     $0x67a06608,%eax
 177:	03 68 02             	add    0x2(%eax),%ebp
 17a:	2e 01 03             	add    %eax,%cs:(%ebx)
 17d:	0e                   	push   %cs
 17e:	f2 67 f1             	repnz addr16 icebp 
 181:	bb c9 08 f9 02       	mov    $0x2f908c9,%ebx
 186:	22 13                	and    (%ebx),%dl
 188:	73 4b                	jae    1d5 <_init-0x8048227>
 18a:	3b 67 03             	cmp    0x3(%edi),%esp
 18d:	76 02                	jbe    191 <_init-0x804826b>
 18f:	22 01                	and    (%ecx),%al
 191:	67 f1                	addr16 icebp 
 193:	bb c9 08 f9 03       	mov    $0x3f908c9,%ebx
 198:	69 3c 03 17 d6 03 67 	imul   $0x6703d617,(%ebx,%eax,1),%edi
 19f:	3c 5e                	cmp    $0x5e,%al
 1a1:	da 03                	fiaddl (%ebx)
 1a3:	0d 08 2e 03 73       	or     $0x73032e08,%eax
 1a8:	3c 03                	cmp    $0x3,%al
 1aa:	0d 3c 03 73 2e       	or     $0x2e73033c,%eax
 1af:	03 0d 3c 68 03 67    	add    0x6703683c,%ecx
 1b5:	66 03 19             	add    (%ecx),%bx
 1b8:	3c 03                	cmp    $0x3,%al
 1ba:	67 3c 6c             	addr16 cmp $0x6c,%al
 1bd:	cc                   	int3   
 1be:	03 0d 08 66 a1 3b    	add    0x3ba16608,%ecx
 1c4:	67 03 76 02          	add    0x2(%bp),%esi
 1c8:	2c 01                	sub    $0x1,%al
 1ca:	67 f1                	addr16 icebp 
 1cc:	bb c9 08 f9 03       	mov    $0x3f908c9,%ebx
 1d1:	69 3c 03 17 d6 03 67 	imul   $0x6703d617,(%ebx,%eax,1),%edi
 1d8:	3c 5e                	cmp    $0x5e,%al
 1da:	cc                   	int3   
 1db:	03 0d 08 2e 03 73    	add    0x73032e08,%ecx
 1e1:	3c 03                	cmp    $0x3,%al
 1e3:	0d 3c 03 73 2e       	or     $0x2e73033c,%eax
 1e8:	03 0d 3c 68 03 67    	add    0x6703683c,%ecx
 1ee:	66 96                	xchg   %ax,%si
 1f0:	cc                   	int3   
 1f1:	03 0d 08 2e 03 73    	add    0x73032e08,%ecx
 1f7:	3c 03                	cmp    $0x3,%al
 1f9:	0d 3c 03 73 2e       	or     $0x2e73033c,%eax
 1fe:	03 0d 3c 68 bb 73    	add    0x73bb683c,%ecx
 204:	3d 3b 3d 03 76       	cmp    $0x76033d3b,%eax
 209:	02 22                	add    (%edx),%ah
 20b:	01 bb 3b 59 08 e5    	add    %edi,-0x1af7a6c5(%ebx)
 211:	08 b3 02 22 13 d5    	or     %dh,-0x2aecddfe(%ebx)
 217:	9f                   	lahf   
 218:	03 68 08             	add    0x8(%eax),%ebp
 21b:	58                   	pop    %eax
 21c:	03 0e                	add    (%esi),%ecx
 21e:	08 90 ad 3b 59 08    	or     %dl,0x8593bad(%eax)
 224:	e5 08                	in     $0x8,%eax
 226:	a5                   	movsl  %ds:(%esi),%es:(%edi)
 227:	02 22                	add    (%edx),%ah
 229:	13 d5                	adc    %ebp,%edx
 22b:	08 21                	or     %ah,(%ecx)
 22d:	03 76 08             	add    0x8(%esi),%esi
 230:	74 ad                	je     1df <_init-0x804821d>
 232:	3b 59 08             	cmp    0x8(%ecx),%ebx
 235:	e5 08                	in     $0x8,%eax
 237:	a5                   	movsl  %ds:(%esi),%es:(%edi)
 238:	02 22                	add    (%edx),%ah
 23a:	13 d5                	adc    %ebp,%edx
 23c:	08 21                	or     %ah,(%ecx)
 23e:	03 76 08             	add    0x8(%esi),%esi
 241:	74 67                	je     2aa <_init-0x8048152>
 243:	f1                   	icebp  
 244:	bb c9 08 a5 02       	mov    $0x2a508c9,%ebx
 249:	22 13                	and    (%ebx),%dl
 24b:	73 4b                	jae    298 <_init-0x8048164>
 24d:	3b 67 03             	cmp    0x3(%edi),%esp
 250:	76 02                	jbe    254 <_init-0x80481a8>
 252:	22 01                	and    (%ecx),%al
 254:	ad                   	lods   %ds:(%esi),%eax
 255:	3b 59 08             	cmp    0x8(%ecx),%ebx
 258:	e5 08                	in     $0x8,%eax
 25a:	a5                   	movsl  %ds:(%esi),%es:(%edi)
 25b:	02 22                	add    (%edx),%ah
 25d:	13 d5                	adc    %ebp,%edx
 25f:	08 21                	or     %ah,(%ecx)
 261:	03 78 08             	add    0x8(%eax),%edi
 264:	74 03                	je     269 <_init-0x8048193>
 266:	70 02                	jo     26a <_init-0x8048192>
 268:	3a 01                	cmp    (%ecx),%al
 26a:	03 22                	add    (%edx),%esp
 26c:	02 22                	add    (%edx),%ah
 26e:	01 03                	add    %eax,(%ebx)
 270:	09 4a 03             	or     %ecx,0x3(%edx)
 273:	77 2e                	ja     2a3 <_init-0x8048159>
 275:	4a                   	dec    %edx
 276:	44                   	inc    %esp
 277:	02 23                	add    (%ebx),%ah
 279:	16                   	push   %ss
 27a:	3d 2d 3d bd 38       	cmp    $0x38bd3d2d,%eax
 27f:	03 0a                	add    (%edx),%ecx
 281:	58                   	pop    %eax
 282:	08 3f                	or     %bh,(%edi)
 284:	90                   	nop
 285:	03 0b                	add    (%ebx),%ecx
 287:	3c 03                	cmp    $0x3,%al
 289:	77 9e                	ja     229 <_init-0x80481d3>
 28b:	03 09                	add    (%ecx),%ecx
 28d:	74 03                	je     292 <_init-0x804816a>
 28f:	76 d6                	jbe    267 <_init-0x8048195>
 291:	03 0a                	add    (%edx),%ecx
 293:	2e                   	cs
 294:	94                   	xchg   %eax,%esp
 295:	00 02                	add    %al,(%edx)
 297:	04 03                	add    $0x3,%al
 299:	03 77 90             	add    -0x70(%edi),%esi
 29c:	00 02                	add    %al,(%edx)
 29e:	04 03                	add    $0x3,%al
 2a0:	03 0f                	add    (%edi),%ecx
 2a2:	2e 00 02             	add    %al,%cs:(%edx)
 2a5:	04 03                	add    $0x3,%al
 2a7:	03 72 3c             	add    0x3c(%edx),%esi
 2aa:	00 02                	add    %al,(%edx)
 2ac:	04 03                	add    $0x3,%al
 2ae:	03 0e                	add    (%esi),%ecx
 2b0:	d6                   	(bad)  
 2b1:	30 57 4c             	xor    %dl,0x4c(%edi)
 2b4:	73 67                	jae    31d <_init-0x80480df>
 2b6:	cb                   	lret   
 2b7:	91                   	xchg   %eax,%ecx
 2b8:	bb 91 bb 03 0a       	mov    $0xa03bb91,%ebx
 2bd:	e4 95                	in     $0x95,%al
 2bf:	03 53 08             	add    0x8(%ebx),%edx
 2c2:	9e                   	sahf   
 2c3:	03 39                	add    (%ecx),%edi
 2c5:	2e 03 56 9e          	add    %cs:-0x62(%esi),%edx
 2c9:	03 2a                	add    (%edx),%ebp
 2cb:	08 20                	or     %ah,(%eax)
 2cd:	03 57 3c             	add    0x3c(%edi),%edx
 2d0:	03 29                	add    (%ecx),%ebp
 2d2:	58                   	pop    %eax
 2d3:	03 6b 66             	add    0x66(%ebx),%ebp
 2d6:	03 4b 74             	add    0x74(%ebx),%ecx
 2d9:	03 35 2e 59 03 49    	add    0x4903592e,%esi
 2df:	3c 08                	cmp    $0x8,%al
 2e1:	75 2d                	jne    310 <_init-0x80480ec>
 2e3:	cc                   	int3   
 2e4:	3d 2d 3d bd 38       	cmp    $0x38bd3d2d,%eax
 2e9:	03 36                	add    (%esi),%esi
 2eb:	58                   	pop    %eax
 2ec:	91                   	xchg   %eax,%ecx
 2ed:	59                   	pop    %ecx
 2ee:	08 93 08 a1 08 e5    	or     %dl,-0x1af75ef8(%ebx)
 2f4:	08 44 03 47          	or     %al,0x47(%ebx,%eax,1)
 2f8:	3c 03                	cmp    $0x3,%al
 2fa:	39 2e                	cmp    %ebp,(%esi)
 2fc:	03 67 82             	add    -0x7e(%edi),%esp
 2ff:	03 1c 08             	add    (%eax,%ecx,1),%ebx
 302:	74 92                	je     296 <_init-0x8048166>
 304:	08 22                	or     %ah,(%edx)
 306:	02 02                	add    (%edx),%al
 308:	00 01                	add    %al,(%ecx)
 30a:	01 40 01             	add    %eax,0x1(%eax)
 30d:	00 00                	add    %al,(%eax)
 30f:	02 00                	add    (%eax),%al
 311:	76 00                	jbe    313 <_init-0x80480e9>
 313:	00 00                	add    %al,(%eax)
 315:	01 01                	add    %eax,(%ecx)
 317:	fb                   	sti    
 318:	0e                   	push   %cs
 319:	0d 00 01 01 01       	or     $0x1010100,%eax
 31e:	01 00                	add    %eax,(%eax)
 320:	00 00                	add    %al,(%eax)
 322:	01 00                	add    %eax,(%eax)
 324:	00 01                	add    %al,(%ecx)
 326:	2f                   	das    
 327:	73 70                	jae    399 <_init-0x8048063>
 329:	61                   	popa   
 32a:	63 65 2f             	arpl   %sp,0x2f(%ebp)
 32d:	62 65 74             	bound  %esp,0x74(%ebp)
 330:	61                   	popa   
 331:	73 61                	jae    394 <_init-0x8048068>
 333:	6d                   	insl   (%dx),%es:(%edi)
 334:	2f                   	das    
 335:	66 69 62 6f 6e 61    	imul   $0x616e,0x6f(%edx),%sp
 33b:	63 63 69             	arpl   %sp,0x69(%ebx)
 33e:	2f                   	das    
 33f:	2f                   	das    
 340:	73 72                	jae    3b4 <_init-0x8048048>
 342:	63 00                	arpl   %ax,(%eax)
 344:	2f                   	das    
 345:	73 70                	jae    3b7 <_init-0x8048045>
 347:	61                   	popa   
 348:	63 65 2f             	arpl   %sp,0x2f(%ebp)
 34b:	62 65 74             	bound  %esp,0x74(%ebp)
 34e:	61                   	popa   
 34f:	73 61                	jae    3b2 <_init-0x804804a>
 351:	6d                   	insl   (%dx),%es:(%edi)
 352:	2f                   	das    
 353:	66 69 62 6f 6e 61    	imul   $0x616e,0x6f(%edx),%sp
 359:	63 63 69             	arpl   %sp,0x69(%ebx)
 35c:	2f                   	das    
 35d:	69 6e 63 6c 75 64 65 	imul   $0x6564756c,0x63(%esi),%ebp
 364:	00 00                	add    %al,(%eax)
 366:	6c                   	insb   (%dx),%es:(%edi)
 367:	63 61 63             	arpl   %sp,0x63(%ecx)
 36a:	68 65 2e 63 00       	push   $0x632e65
 36f:	01 00                	add    %eax,(%eax)
 371:	00 6c 74 79          	add    %ch,0x79(%esp,%esi,2)
 375:	70 65                	jo     3dc <_init-0x8048020>
 377:	73 2e                	jae    3a7 <_init-0x8048055>
 379:	68 00 02 00 00       	push   $0x200
 37e:	6c                   	insb   (%dx),%es:(%edi)
 37f:	63 61 63             	arpl   %sp,0x63(%ecx)
 382:	68 65 2e 68 00       	push   $0x682e65
 387:	02 00                	add    (%eax),%al
 389:	00 00                	add    %al,(%eax)
 38b:	00 05 02 70 94 04    	add    %al,0x4947002
 391:	08 03                	or     %al,(%ebx)
 393:	0d 01 6d 03 79       	or     $0x79036d01,%eax
 398:	4a                   	dec    %edx
 399:	eb 31                	jmp    3cc <_init-0x8048030>
 39b:	03 25 58 03 58 f2    	add    0xf2580358,%esp
 3a1:	4b                   	dec    %ebx
 3a2:	30 56 35             	xor    %dl,0x35(%esi)
 3a5:	76 08                	jbe    3af <_init-0x804804d>
 3a7:	18 76 08             	sbb    %dh,0x8(%esi)
 3aa:	51                   	push   %ecx
 3ab:	30 2d 75 4e 75 e5    	xor    %ch,0xe5754e75
 3b1:	39 03                	cmp    %eax,(%ebx)
 3b3:	5c                   	pop    %esp
 3b4:	4a                   	dec    %edx
 3b5:	03 1a                	add    (%edx),%ebx
 3b7:	74 83                	je     33c <_init-0x80480c0>
 3b9:	03 16                	add    (%esi),%edx
 3bb:	08 3c 25 53 66 40 03 	or     %bh,0x3406653(,%eiz,1)
 3c2:	15 4a 03 70 c8       	adc    $0xc870034a,%eax
 3c7:	00 02                	add    %al,(%edx)
 3c9:	04 01                	add    $0x1,%al
 3cb:	06                   	push   %es
 3cc:	74 06                	je     3d4 <_init-0x8048028>
 3ce:	7b 83                	jnp    353 <_init-0x80480a9>
 3d0:	03 70 ac             	add    -0x54(%eax),%esi
 3d3:	03 11                	add    (%ecx),%edx
 3d5:	2e 67 75 03          	addr16 jne,pn 3dc <_init-0x8048020>
 3d9:	09 f2                	or     %esi,%edx
 3db:	08 88 03 7a 4a 50    	or     %cl,0x504a7a03(%eax)
 3e1:	2f                   	das    
 3e2:	03 1e                	add    (%esi),%ebx
 3e4:	58                   	pop    %eax
 3e5:	03 61 f2             	add    -0xe(%ecx),%esp
 3e8:	00 02                	add    %al,(%edx)
 3ea:	04 01                	add    $0x1,%al
 3ec:	06                   	push   %es
 3ed:	4a                   	dec    %edx
 3ee:	00 02                	add    %al,(%edx)
 3f0:	04 01                	add    $0x1,%al
 3f2:	06                   	push   %es
 3f3:	2f                   	das    
 3f4:	00 02                	add    %al,(%edx)
 3f6:	04 01                	add    $0x1,%al
 3f8:	57                   	push   %edi
 3f9:	34 7a                	xor    $0x7a,%al
 3fb:	34 9f                	xor    $0x9f,%al
 3fd:	67 03 67 3c          	add    0x3c(%bx),%esp
 401:	03 19                	add    (%ecx),%ebx
 403:	2e                   	cs
 404:	3f                   	aas    
 405:	47                   	inc    %edi
 406:	3f                   	aas    
 407:	00 02                	add    %al,(%edx)
 409:	04 01                	add    $0x1,%al
 40b:	06                   	push   %es
 40c:	2e                   	cs
 40d:	06                   	push   %es
 40e:	4c                   	dec    %esp
 40f:	00 02                	add    %al,(%edx)
 411:	04 01                	add    $0x1,%al
 413:	03 73 66             	add    0x66(%ebx),%esi
 416:	68 03 14 08 12       	push   $0x12081403
 41b:	82                   	(bad)  
 41c:	6b 00 02             	imul   $0x2,(%eax),%eax
 41f:	04 01                	add    $0x1,%al
 421:	88 00                	mov    %al,(%eax)
 423:	02 04 01             	add    (%ecx,%eax,1),%al
 426:	03 76 2e             	add    0x2e(%esi),%esi
 429:	00 02                	add    %al,(%edx)
 42b:	04 01                	add    $0x1,%al
 42d:	03 0a                	add    (%edx),%ecx
 42f:	d6                   	(bad)  
 430:	4b                   	dec    %ebx
 431:	08 32                	or     %dh,(%edx)
 433:	37                   	aaa    
 434:	03 76 4a             	add    0x4a(%esi),%esi
 437:	03 15 d6 03 76 d6    	add    0xd67603d6,%edx
 43d:	3d 03 09 c8 03       	cmp    $0x3c80903,%eax
 442:	77 3c                	ja     480 <_init-0x8047f7c>
 444:	03 09                	add    (%ecx),%ecx
 446:	3c 03                	cmp    $0x3,%al
 448:	76 9e                	jbe    3e8 <_init-0x8048014>
 44a:	02 04 00             	add    (%eax,%eax,1),%al
 44d:	01 01                	add    %eax,(%ecx)
 44f:	6b 01 00             	imul   $0x0,(%ecx),%eax
 452:	00 02                	add    %al,(%edx)
 454:	00 dc                	add    %bl,%ah
 456:	00 00                	add    %al,(%eax)
 458:	00 01                	add    %al,(%ecx)
 45a:	01 fb                	add    %edi,%ebx
 45c:	0e                   	push   %cs
 45d:	0d 00 01 01 01       	or     $0x1010100,%eax
 462:	01 00                	add    %eax,(%eax)
 464:	00 00                	add    %al,(%eax)
 466:	01 00                	add    %eax,(%eax)
 468:	00 01                	add    %al,(%ecx)
 46a:	2f                   	das    
 46b:	73 70                	jae    4dd <_init-0x8047f1f>
 46d:	61                   	popa   
 46e:	63 65 2f             	arpl   %sp,0x2f(%ebp)
 471:	62 65 74             	bound  %esp,0x74(%ebp)
 474:	61                   	popa   
 475:	73 61                	jae    4d8 <_init-0x8047f24>
 477:	6d                   	insl   (%dx),%es:(%edi)
 478:	2f                   	das    
 479:	66 69 62 6f 6e 61    	imul   $0x616e,0x6f(%edx),%sp
 47f:	63 63 69             	arpl   %sp,0x69(%ebx)
 482:	2f                   	das    
 483:	2f                   	das    
 484:	73 72                	jae    4f8 <_init-0x8047f04>
 486:	63 00                	arpl   %ax,(%eax)
 488:	2f                   	das    
 489:	75 73                	jne    4fe <_init-0x8047efe>
 48b:	72 2f                	jb     4bc <_init-0x8047f40>
 48d:	69 6e 63 6c 75 64 65 	imul   $0x6564756c,0x63(%esi),%ebp
 494:	2f                   	das    
 495:	62 69 74             	bound  %ebp,0x74(%ecx)
 498:	73 00                	jae    49a <_init-0x8047f62>
 49a:	2f                   	das    
 49b:	75 73                	jne    510 <_init-0x8047eec>
 49d:	72 2f                	jb     4ce <_init-0x8047f2e>
 49f:	6c                   	insb   (%dx),%es:(%edi)
 4a0:	69 62 2f 69 33 38 36 	imul   $0x36383369,0x2f(%edx),%esp
 4a7:	2d 6c 69 6e 75       	sub    $0x756e696c,%eax
 4ac:	78 2d                	js     4db <_init-0x8047f21>
 4ae:	67 6e                	outsb  %ds:(%si),(%dx)
 4b0:	75 2f                	jne    4e1 <_init-0x8047f1b>
 4b2:	67 63 63 2f          	arpl   %sp,0x2f(%bp,%di)
 4b6:	69 36 38 36 2d 6c    	imul   $0x6c2d3638,(%esi),%esi
 4bc:	69 6e 75 78 2d 67 6e 	imul   $0x6e672d78,0x75(%esi),%ebp
 4c3:	75 2f                	jne    4f4 <_init-0x8047f08>
 4c5:	34 2e                	xor    $0x2e,%al
 4c7:	35 2e 32 2f 69       	xor    $0x692f322e,%eax
 4cc:	6e                   	outsb  %ds:(%esi),(%dx)
 4cd:	63 6c 75 64          	arpl   %bp,0x64(%ebp,%esi,2)
 4d1:	65 00 2f             	add    %ch,%gs:(%edi)
 4d4:	75 73                	jne    549 <_init-0x8047eb3>
 4d6:	72 2f                	jb     507 <_init-0x8047ef5>
 4d8:	69 6e 63 6c 75 64 65 	imul   $0x6564756c,0x63(%esi),%ebp
 4df:	00 00                	add    %al,(%eax)
 4e1:	6c                   	insb   (%dx),%es:(%edi)
 4e2:	6d                   	insl   (%dx),%es:(%edi)
 4e3:	65                   	gs
 4e4:	73 73                	jae    559 <_init-0x8047ea3>
 4e6:	61                   	popa   
 4e7:	67 65 2e 63 00       	gs arpl %ax,%cs:%gs:(%bx,%si)
 4ec:	01 00                	add    %eax,(%eax)
 4ee:	00 73 74             	add    %dh,0x74(%ebx)
 4f1:	64 69 6f 32 2e 68 00 	imul   $0x200682e,%fs:0x32(%edi),%ebp
 4f8:	02 
 4f9:	00 00                	add    %al,(%eax)
 4fb:	73 74                	jae    571 <_init-0x8047e8b>
 4fd:	64                   	fs
 4fe:	64                   	fs
 4ff:	65                   	gs
 500:	66                   	data16
 501:	2e                   	cs
 502:	68 00 03 00 00       	push   $0x300
 507:	74 79                	je     582 <_init-0x8047e7a>
 509:	70 65                	jo     570 <_init-0x8047e8c>
 50b:	73 2e                	jae    53b <_init-0x8047ec1>
 50d:	68 00 02 00 00       	push   $0x200
 512:	73 74                	jae    588 <_init-0x8047e74>
 514:	64 69 6f 2e 68 00 04 	imul   $0x40068,%fs:0x2e(%edi),%ebp
 51b:	00 
 51c:	00 6c 69 62          	add    %ch,0x62(%ecx,%ebp,2)
 520:	69 6f 2e 68 00 04 00 	imul   $0x40068,0x2e(%edi),%ebp
 527:	00 73 74             	add    %dh,0x74(%ebx)
 52a:	64                   	fs
 52b:	61                   	popa   
 52c:	72 67                	jb     595 <_init-0x8047e67>
 52e:	2e                   	cs
 52f:	68 00 03 00 00       	push   $0x300
 534:	00 00                	add    %al,(%eax)
 536:	05 02 b0 96 04       	add    $0x496b002,%eax
 53b:	08 03                	or     %al,(%ebx)
 53d:	15 01 76 04 02       	adc    $0x2047601,%eax
 542:	03 ca                	add    %edx,%ecx
 544:	00 58 04             	add    %bl,0x4(%eax)
 547:	01 03                	add    %eax,(%ebx)
 549:	b7 7f                	mov    $0x7f,%bh
 54b:	82                   	(bad)  
 54c:	04 02                	add    $0x2,%al
 54e:	03 c9                	add    %ecx,%ecx
 550:	00 3c 04             	add    %bh,(%esp,%eax,1)
 553:	01 03                	add    %eax,(%ebx)
 555:	b6 7f                	mov    $0x7f,%dh
 557:	08 2e                	or     %ch,(%esi)
 559:	04 02                	add    $0x2,%al
 55b:	03 ca                	add    %edx,%ecx
 55d:	00 58 03             	add    %bl,0x3(%eax)
 560:	1e                   	push   %ds
 561:	58                   	pop    %eax
 562:	04 01                	add    $0x1,%al
 564:	03 9c 7f 08 e4 bd 76 	add    0x76bde408(%edi,%edi,2),%ebx
 56b:	04 02                	add    $0x2,%al
 56d:	03 c1                	add    %ecx,%eax
 56f:	00 58 04             	add    %bl,0x4(%eax)
 572:	01 03                	add    %eax,(%ebx)
 574:	40                   	inc    %eax
 575:	82                   	(bad)  
 576:	04 02                	add    $0x2,%al
 578:	03 c0                	add    %eax,%eax
 57a:	00 3c 04             	add    %bh,(%esp,%eax,1)
 57d:	01 03                	add    %eax,(%ebx)
 57f:	bf 7f 08 2e 04       	mov    $0x42e087f,%edi
 584:	02 03                	add    (%ebx),%al
 586:	c1 00 58             	roll   $0x58,(%eax)
 589:	03 1e                	add    (%esi),%ebx
 58b:	58                   	pop    %eax
 58c:	04 01                	add    $0x1,%al
 58e:	03 a5 7f 08 e4 bd    	add    -0x421bf781(%ebp),%esp
 594:	76 04                	jbe    59a <_init-0x8047e62>
 596:	02 03                	add    (%ebx),%al
 598:	38 58 04             	cmp    %bl,0x4(%eax)
 59b:	01 03                	add    %eax,(%ebx)
 59d:	49                   	dec    %ecx
 59e:	82                   	(bad)  
 59f:	04 02                	add    $0x2,%al
 5a1:	03 37                	add    (%edi),%esi
 5a3:	3c 04                	cmp    $0x4,%al
 5a5:	01 03                	add    %eax,(%ebx)
 5a7:	48                   	dec    %eax
 5a8:	08 2e                	or     %ch,(%esi)
 5aa:	04 02                	add    $0x2,%al
 5ac:	03 38                	add    (%eax),%edi
 5ae:	58                   	pop    %eax
 5af:	03 1e                	add    (%esi),%ebx
 5b1:	58                   	pop    %eax
 5b2:	04 01                	add    $0x1,%al
 5b4:	03 ae 7f 08 e4 02    	add    0x2e4087f(%esi),%ebp
 5ba:	06                   	push   %es
 5bb:	00 01                	add    %al,(%ecx)
 5bd:	01 c3                	add    %eax,%ebx
 5bf:	00 00                	add    %al,(%eax)
 5c1:	00 02                	add    %al,(%edx)
 5c3:	00 84 00 00 00 01 01 	add    %al,0x1010000(%eax,%eax,1)
 5ca:	fb                   	sti    
 5cb:	0e                   	push   %cs
 5cc:	0d 00 01 01 01       	or     $0x1010100,%eax
 5d1:	01 00                	add    %eax,(%eax)
 5d3:	00 00                	add    %al,(%eax)
 5d5:	01 00                	add    %eax,(%eax)
 5d7:	00 01                	add    %al,(%ecx)
 5d9:	2f                   	das    
 5da:	73 70                	jae    64c <_init-0x8047db0>
 5dc:	61                   	popa   
 5dd:	63 65 2f             	arpl   %sp,0x2f(%ebp)
 5e0:	62 65 74             	bound  %esp,0x74(%ebp)
 5e3:	61                   	popa   
 5e4:	73 61                	jae    647 <_init-0x8047db5>
 5e6:	6d                   	insl   (%dx),%es:(%edi)
 5e7:	2f                   	das    
 5e8:	66 69 62 6f 6e 61    	imul   $0x616e,0x6f(%edx),%sp
 5ee:	63 63 69             	arpl   %sp,0x69(%ebx)
 5f1:	2f                   	das    
 5f2:	2f                   	das    
 5f3:	73 72                	jae    667 <_init-0x8047d95>
 5f5:	63 00                	arpl   %ax,(%eax)
 5f7:	2f                   	das    
 5f8:	73 70                	jae    66a <_init-0x8047d92>
 5fa:	61                   	popa   
 5fb:	63 65 2f             	arpl   %sp,0x2f(%ebp)
 5fe:	62 65 74             	bound  %esp,0x74(%ebp)
 601:	61                   	popa   
 602:	73 61                	jae    665 <_init-0x8047d97>
 604:	6d                   	insl   (%dx),%es:(%edi)
 605:	2f                   	das    
 606:	66 69 62 6f 6e 61    	imul   $0x616e,0x6f(%edx),%sp
 60c:	63 63 69             	arpl   %sp,0x69(%ebx)
 60f:	2f                   	das    
 610:	69 6e 63 6c 75 64 65 	imul   $0x6564756c,0x63(%esi),%ebp
 617:	00 2f                	add    %ch,(%edi)
 619:	75 73                	jne    68e <_init-0x8047d6e>
 61b:	72 2f                	jb     64c <_init-0x8047db0>
 61d:	69 6e 63 6c 75 64 65 	imul   $0x6564756c,0x63(%esi),%ebp
 624:	00 00                	add    %al,(%eax)
 626:	6c                   	insb   (%dx),%es:(%edi)
 627:	63 6f 6e             	arpl   %bp,0x6e(%edi)
 62a:	66 69 67 2e 63 00    	imul   $0x63,0x2e(%edi),%sp
 630:	01 00                	add    %eax,(%eax)
 632:	00 6c 74 79          	add    %ch,0x79(%esp,%esi,2)
 636:	70 65                	jo     69d <_init-0x8047d5f>
 638:	73 2e                	jae    668 <_init-0x8047d94>
 63a:	68 00 02 00 00       	push   $0x200
 63f:	67                   	addr16
 640:	65                   	gs
 641:	74 6f                	je     6b2 <_init-0x8047d4a>
 643:	70 74                	jo     6b9 <_init-0x8047d43>
 645:	2e                   	cs
 646:	68 00 03 00 00       	push   $0x300
 64b:	00 00                	add    %al,(%eax)
 64d:	05 02 d0 97 04       	add    $0x497d002,%eax
 652:	08 03                	or     %al,(%ebx)
 654:	14 01                	adc    $0x1,%al
 656:	6d                   	insl   (%dx),%es:(%edi)
 657:	03 79 58             	add    0x58(%ecx),%edi
 65a:	41                   	inc    %ecx
 65b:	37                   	aaa    
 65c:	6b 00 02             	imul   $0x2,(%eax),%eax
 65f:	04 01                	add    $0x1,%al
 661:	06                   	push   %es
 662:	82                   	(bad)  
 663:	00 02                	add    %al,(%edx)
 665:	04 01                	add    $0x1,%al
 667:	06                   	push   %es
 668:	96                   	xchg   %eax,%esi
 669:	08 84 03 13 82 03 6d 	or     %al,0x6d038213(%ebx,%eax,1)
 670:	74 89                	je     5fb <_init-0x8047e01>
 672:	83 7d 59 3b          	cmpl   $0x3b,0x59(%ebp)
 676:	08 a0 60 3d 54 3d    	or     %ah,0x3d543d60(%eax)
 67c:	03 0d 58 87 02 0a    	add    0xa028758,%ecx
 682:	00 01                	add    %al,(%ecx)
 684:	01 d5                	add    %edx,%ebp
 686:	00 00                	add    %al,(%eax)
 688:	00 02                	add    %al,(%edx)
 68a:	00 90 00 00 00 01    	add    %dl,0x1000000(%eax)
 690:	01 fb                	add    %edi,%ebx
 692:	0e                   	push   %cs
 693:	0d 00 01 01 01       	or     $0x1010100,%eax
 698:	01 00                	add    %eax,(%eax)
 69a:	00 00                	add    %al,(%eax)
 69c:	01 00                	add    %eax,(%eax)
 69e:	00 01                	add    %al,(%ecx)
 6a0:	2f                   	das    
 6a1:	73 70                	jae    713 <_init-0x8047ce9>
 6a3:	61                   	popa   
 6a4:	63 65 2f             	arpl   %sp,0x2f(%ebp)
 6a7:	62 65 74             	bound  %esp,0x74(%ebp)
 6aa:	61                   	popa   
 6ab:	73 61                	jae    70e <_init-0x8047cee>
 6ad:	6d                   	insl   (%dx),%es:(%edi)
 6ae:	2f                   	das    
 6af:	66 69 62 6f 6e 61    	imul   $0x616e,0x6f(%edx),%sp
 6b5:	63 63 69             	arpl   %sp,0x69(%ebx)
 6b8:	2f                   	das    
 6b9:	2f                   	das    
 6ba:	73 72                	jae    72e <_init-0x8047cce>
 6bc:	63 00                	arpl   %ax,(%eax)
 6be:	2f                   	das    
 6bf:	75 73                	jne    734 <_init-0x8047cc8>
 6c1:	72 2f                	jb     6f2 <_init-0x8047d0a>
 6c3:	69 6e 63 6c 75 64 65 	imul   $0x6564756c,0x63(%esi),%ebp
 6ca:	2f                   	das    
 6cb:	62 69 74             	bound  %ebp,0x74(%ecx)
 6ce:	73 00                	jae    6d0 <_init-0x8047d2c>
 6d0:	2f                   	das    
 6d1:	73 70                	jae    743 <_init-0x8047cb9>
 6d3:	61                   	popa   
 6d4:	63 65 2f             	arpl   %sp,0x2f(%ebp)
 6d7:	62 65 74             	bound  %esp,0x74(%ebp)
 6da:	61                   	popa   
 6db:	73 61                	jae    73e <_init-0x8047cbe>
 6dd:	6d                   	insl   (%dx),%es:(%edi)
 6de:	2f                   	das    
 6df:	66 69 62 6f 6e 61    	imul   $0x616e,0x6f(%edx),%sp
 6e5:	63 63 69             	arpl   %sp,0x69(%ebx)
 6e8:	2f                   	das    
 6e9:	69 6e 63 6c 75 64 65 	imul   $0x6564756c,0x63(%esi),%ebp
 6f0:	00 00                	add    %al,(%eax)
 6f2:	6c                   	insb   (%dx),%es:(%edi)
 6f3:	74 69                	je     75e <_init-0x8047c9e>
 6f5:	6d                   	insl   (%dx),%es:(%edi)
 6f6:	65 2e 63 00          	gs arpl %ax,%cs:%gs:(%eax)
 6fa:	01 00                	add    %eax,(%eax)
 6fc:	00 74 79 70          	add    %dh,0x70(%ecx,%edi,2)
 700:	65                   	gs
 701:	73 2e                	jae    731 <_init-0x8047ccb>
 703:	68 00 02 00 00       	push   $0x200
 708:	74 69                	je     773 <_init-0x8047c89>
 70a:	6d                   	insl   (%dx),%es:(%edi)
 70b:	65                   	gs
 70c:	2e                   	cs
 70d:	68 00 02 00 00       	push   $0x200
 712:	6c                   	insb   (%dx),%es:(%edi)
 713:	74 79                	je     78e <_init-0x8047c6e>
 715:	70 65                	jo     77c <_init-0x8047c80>
 717:	73 2e                	jae    747 <_init-0x8047cb5>
 719:	68 00 03 00 00       	push   $0x300
 71e:	00 00                	add    %al,(%eax)
 720:	05 02 90 98 04       	add    $0x4989002,%eax
 725:	08 03                	or     %al,(%ebx)
 727:	0c 01                	or     $0x1,%al
 729:	6c                   	insb   (%dx),%es:(%edi)
 72a:	08 2a                	or     %ch,(%edx)
 72c:	32 2a                	xor    (%edx),%ch
 72e:	32 5c ea cb          	xor    -0x35(%edx,%ebp,8),%bl
 732:	08 90 41 50 50 03    	or     %dl,0x3505041(%eax)
 738:	7a 3c                	jp     776 <_init-0x8047c86>
 73a:	6c                   	insb   (%dx),%es:(%edi)
 73b:	03 7a 4a             	add    0x4a(%edx),%edi
 73e:	34 03                	xor    $0x3,%al
 740:	74 ba                	je     6fc <_init-0x8047d00>
 742:	2f                   	das    
 743:	03 0b                	add    (%ebx),%ecx
 745:	2e 03 75 4a          	add    %cs:0x4a(%ebp),%esi
 749:	03 0b                	add    (%ebx),%ecx
 74b:	2e 03 74 d6 4f       	add    %cs:0x4f(%esi,%edx,8),%esi
 750:	03 77 4a             	add    0x4a(%edi),%esi
 753:	03 10                	add    (%eax),%edx
 755:	4a                   	dec    %edx
 756:	03 79 e4             	add    -0x1c(%ecx),%edi
 759:	02 0f                	add    (%edi),%cl
 75b:	00 01                	add    %al,(%ecx)
 75d:	01                   	.byte 0x1

Disassembly of section .debug_frame:

00000000 <.debug_frame>:
   0:	10 00                	adc    %al,(%eax)
   2:	00 00                	add    %al,(%eax)
   4:	ff                   	(bad)  
   5:	ff                   	(bad)  
   6:	ff                   	(bad)  
   7:	ff 01                	incl   (%ecx)
   9:	00 01                	add    %al,(%ecx)
   b:	7c 08                	jl     15 <_init-0x80483e7>
   d:	0c 04                	or     $0x4,%al
   f:	04 88                	add    $0x88,%al
  11:	01 00                	add    %eax,(%eax)
  13:	00 28                	add    %ch,(%eax)
  15:	00 00                	add    %al,(%eax)
  17:	00 00                	add    %al,(%eax)
  19:	00 00                	add    %al,(%eax)
  1b:	00 90 85 04 08 e9    	add    %dl,-0x16f7fb7b(%eax)
  21:	02 00                	add    (%eax),%al
  23:	00 41 0e             	add    %al,0xe(%ecx)
  26:	08 42 85             	or     %al,-0x7b(%edx)
  29:	02 0d 05 67 83 05    	add    0x5836705,%cl
  2f:	86 04 87             	xchg   %al,(%edi,%eax,4)
  32:	03 03                	add    (%ebx),%eax
  34:	bb 02 c3 41 c6       	mov    $0xc641c302,%ebx
  39:	41                   	inc    %ecx
  3a:	c7 41 c5 0c 04 04 28 	movl   $0x2804040c,-0x3b(%ecx)
  41:	00 00                	add    %al,(%eax)
  43:	00 00                	add    %al,(%eax)
  45:	00 00                	add    %al,(%eax)
  47:	00 80 88 04 08 77    	add    %al,0x77080488(%eax)
  4d:	09 00                	or     %eax,(%eax)
  4f:	00 41 0e             	add    %al,0xe(%ecx)
  52:	08 42 85             	or     %al,-0x7b(%edx)
  55:	02 0d 05 56 87 03    	add    0x3875605,%cl
  5b:	86 04 83             	xchg   %al,(%ebx,%eax,4)
  5e:	05 74 0a 0d 04       	add    $0x40d0a74,%eax
  63:	c7 c6 c3 41 c5 0e    	mov    $0xec541c3,%esi
  69:	04 42                	add    $0x42,%al
  6b:	0b 24 00             	or     (%eax,%eax,1),%esp
  6e:	00 00                	add    %al,(%eax)
  70:	00 00                	add    %al,(%eax)
  72:	00 00                	add    %al,(%eax)
  74:	00 92 04 08 57 00    	add    %dl,0x570804(%edx)
  7a:	00 00                	add    %al,(%eax)
  7c:	41                   	inc    %ecx
  7d:	0e                   	push   %cs
  7e:	08 42 85             	or     %al,-0x7b(%edx)
  81:	02 0d 05 43 86 03    	add    0x3864305,%cl
  87:	47                   	inc    %edi
  88:	83 04 02 47          	addl   $0x47,(%edx,%eax,1)
  8c:	c3                   	ret    
  8d:	41                   	inc    %ecx
  8e:	c6 41 c5 0c          	movb   $0xc,-0x3b(%ecx)
  92:	04 04                	add    $0x4,%al
  94:	48                   	dec    %eax
  95:	00 00                	add    %al,(%eax)
  97:	00 00                	add    %al,(%eax)
  99:	00 00                	add    %al,(%eax)
  9b:	00 60 92             	add    %ah,-0x6e(%eax)
  9e:	04 08                	add    $0x8,%al
  a0:	ec                   	in     (%dx),%al
  a1:	01 00                	add    %eax,(%eax)
  a3:	00 41 0e             	add    %al,0xe(%ecx)
  a6:	08 42 85             	or     %al,-0x7b(%edx)
  a9:	02 0d 05 49 83 05    	add    0x5834905,%cl
  af:	86 04 87             	xchg   %al,(%edi,%eax,4)
  b2:	03 02                	add    (%edx),%eax
  b4:	ce                   	into   
  b5:	0a c3                	or     %bl,%al
  b7:	41                   	inc    %ecx
  b8:	c6 41 c7 41          	movb   $0x41,-0x39(%ecx)
  bc:	c5 0c 04             	lds    (%esp,%eax,1),%ecx
  bf:	04 43                	add    $0x43,%al
  c1:	0b 5b 0a             	or     0xa(%ebx),%ebx
  c4:	c3                   	ret    
  c5:	41                   	inc    %ecx
  c6:	c6 41 c7 41          	movb   $0x41,-0x39(%ecx)
  ca:	0c 04                	or     $0x4,%al
  cc:	04 c5                	add    $0xc5,%al
  ce:	42                   	inc    %edx
  cf:	0b 02                	or     (%edx),%eax
  d1:	d1 0a                	rorl   (%edx)
  d3:	c3                   	ret    
  d4:	41                   	inc    %ecx
  d5:	c6 41 c7 41          	movb   $0x41,-0x39(%ecx)
  d9:	0c 04                	or     $0x4,%al
  db:	04 c5                	add    $0xc5,%al
  dd:	44                   	inc    %esp
  de:	0b 00                	or     (%eax),%eax
  e0:	1c 00                	sbb    $0x0,%al
  e2:	00 00                	add    %al,(%eax)
  e4:	00 00                	add    %al,(%eax)
  e6:	00 00                	add    %al,(%eax)
  e8:	50                   	push   %eax
  e9:	94                   	xchg   %eax,%esp
  ea:	04 08                	add    $0x8,%al
  ec:	1d 00 00 00 41       	sbb    $0x41000000,%eax
  f1:	0e                   	push   %cs
  f2:	08 42 85             	or     %al,-0x7b(%edx)
  f5:	02 0d 05 59 c5 0c    	add    0xcc55905,%cl
  fb:	04 04                	add    $0x4,%al
  fd:	00 00                	add    %al,(%eax)
  ff:	00 10                	add    %dl,(%eax)
 101:	00 00                	add    %al,(%eax)
 103:	00 ff                	add    %bh,%bh
 105:	ff                   	(bad)  
 106:	ff                   	(bad)  
 107:	ff 01                	incl   (%ecx)
 109:	00 01                	add    %al,(%ecx)
 10b:	7c 08                	jl     115 <_init-0x80482e7>
 10d:	0c 04                	or     $0x4,%al
 10f:	04 88                	add    $0x88,%al
 111:	01 00                	add    %eax,(%eax)
 113:	00 2c 00             	add    %ch,(%eax,%eax,1)
 116:	00 00                	add    %al,(%eax)
 118:	00 01                	add    %al,(%ecx)
 11a:	00 00                	add    %al,(%eax)
 11c:	70 94                	jo     b2 <_init-0x804834a>
 11e:	04 08                	add    $0x8,%al
 120:	b1 00                	mov    $0x0,%cl
 122:	00 00                	add    %al,(%eax)
 124:	41                   	inc    %ecx
 125:	0e                   	push   %cs
 126:	08 42 85             	or     %al,-0x7b(%edx)
 129:	02 0d 05 4d 86 04    	add    0x4864d05,%cl
 12f:	46                   	inc    %esi
 130:	87 03                	xchg   %eax,(%ebx)
 132:	45                   	inc    %ebp
 133:	83 05 52 0a 0d 04 c7 	addl   $0xffffffc7,0x40d0a52
 13a:	c6 c3 41             	mov    $0x41,%bl
 13d:	c5 0e                	lds    (%esi),%ecx
 13f:	04 42                	add    $0x42,%al
 141:	0b 00                	or     (%eax),%eax
 143:	00 24 00             	add    %ah,(%eax,%eax,1)
 146:	00 00                	add    %al,(%eax)
 148:	00 01                	add    %al,(%ecx)
 14a:	00 00                	add    %al,(%eax)
 14c:	30 95 04 08 56 00    	xor    %dl,0x560804(%ebp)
 152:	00 00                	add    %al,(%eax)
 154:	41                   	inc    %ecx
 155:	0e                   	push   %cs
 156:	08 47 85             	or     %al,-0x7b(%edi)
 159:	02 0d 05 47 83 03    	add    0x3834705,%cl
 15f:	48                   	dec    %eax
 160:	0a c3                	or     %bl,%al
 162:	41                   	inc    %ecx
 163:	c5 0c 04             	lds    (%esp,%eax,1),%ecx
 166:	04 48                	add    $0x48,%al
 168:	0b 00                	or     (%eax),%eax
 16a:	00 00                	add    %al,(%eax)
 16c:	2c 00                	sub    $0x0,%al
 16e:	00 00                	add    %al,(%eax)
 170:	00 01                	add    %al,(%ecx)
 172:	00 00                	add    %al,(%eax)
 174:	90                   	nop
 175:	95                   	xchg   %eax,%ebp
 176:	04 08                	add    $0x8,%al
 178:	8a 00                	mov    (%eax),%al
 17a:	00 00                	add    %al,(%eax)
 17c:	41                   	inc    %ecx
 17d:	0e                   	push   %cs
 17e:	08 42 85             	or     %al,-0x7b(%edx)
 181:	02 0d 05 4f 83 05    	add    0x5834f05,%cl
 187:	47                   	inc    %edi
 188:	86 04 4a             	xchg   %al,(%edx,%ecx,2)
 18b:	87 03                	xchg   %eax,(%ebx)
 18d:	52                   	push   %edx
 18e:	0a 0d 04 c7 c6 c3    	or     0xc3c6c704,%cl
 194:	41                   	inc    %ecx
 195:	c5 0e                	lds    (%esi),%ecx
 197:	04 42                	add    $0x42,%al
 199:	0b 00                	or     (%eax),%eax
 19b:	00 34 00             	add    %dh,(%eax,%eax,1)
 19e:	00 00                	add    %al,(%eax)
 1a0:	00 01                	add    %al,(%ecx)
 1a2:	00 00                	add    %al,(%eax)
 1a4:	20 96 04 08 84 00    	and    %dl,0x840804(%esi)
 1aa:	00 00                	add    %al,(%eax)
 1ac:	41                   	inc    %ecx
 1ad:	0e                   	push   %cs
 1ae:	08 42 85             	or     %al,-0x7b(%edx)
 1b1:	02 0d 05 4b 83 04    	add    0x4834b05,%cl
 1b7:	86 03                	xchg   %al,(%ebx)
 1b9:	02 4e 0a             	add    0xa(%esi),%cl
 1bc:	c3                   	ret    
 1bd:	41                   	inc    %ecx
 1be:	c6 41 c5 0c          	movb   $0xc,-0x3b(%ecx)
 1c2:	04 04                	add    $0x4,%al
 1c4:	42                   	inc    %edx
 1c5:	0b 5d 0a             	or     0xa(%ebp),%ebx
 1c8:	c3                   	ret    
 1c9:	41                   	inc    %ecx
 1ca:	c6 41 0c 04          	movb   $0x4,0xc(%ecx)
 1ce:	04 c5                	add    $0xc5,%al
 1d0:	41                   	inc    %ecx
 1d1:	0b 00                	or     (%eax),%eax
 1d3:	00 10                	add    %dl,(%eax)
 1d5:	00 00                	add    %al,(%eax)
 1d7:	00 ff                	add    %bh,%bh
 1d9:	ff                   	(bad)  
 1da:	ff                   	(bad)  
 1db:	ff 01                	incl   (%ecx)
 1dd:	00 01                	add    %al,(%ecx)
 1df:	7c 08                	jl     1e9 <_init-0x8048213>
 1e1:	0c 04                	or     $0x4,%al
 1e3:	04 88                	add    $0x88,%al
 1e5:	01 00                	add    %eax,(%eax)
 1e7:	00 20                	add    %ah,(%eax)
 1e9:	00 00                	add    %al,(%eax)
 1eb:	00 d4                	add    %dl,%ah
 1ed:	01 00                	add    %eax,(%eax)
 1ef:	00 b0 96 04 08 5a    	add    %dh,0x5a080496(%eax)
 1f5:	00 00                	add    %al,(%eax)
 1f7:	00 41 0e             	add    %al,0xe(%ecx)
 1fa:	08 42 85             	or     %al,-0x7b(%edx)
 1fd:	02 0d 05 54 83 03    	add    0x3835405,%cl
 203:	02 41 c3             	add    -0x3d(%ecx),%al
 206:	41                   	inc    %ecx
 207:	c5 0c 04             	lds    (%esp,%eax,1),%ecx
 20a:	04 00                	add    $0x0,%al
 20c:	20 00                	and    %al,(%eax)
 20e:	00 00                	add    %al,(%eax)
 210:	d4 01                	aam    $0x1
 212:	00 00                	add    %al,(%eax)
 214:	10 97 04 08 5a 00    	adc    %dl,0x5a0804(%edi)
 21a:	00 00                	add    %al,(%eax)
 21c:	41                   	inc    %ecx
 21d:	0e                   	push   %cs
 21e:	08 42 85             	or     %al,-0x7b(%edx)
 221:	02 0d 05 54 83 03    	add    0x3835405,%cl
 227:	02 41 c3             	add    -0x3d(%ecx),%al
 22a:	41                   	inc    %ecx
 22b:	c5 0c 04             	lds    (%esp,%eax,1),%ecx
 22e:	04 00                	add    $0x0,%al
 230:	20 00                	and    %al,(%eax)
 232:	00 00                	add    %al,(%eax)
 234:	d4 01                	aam    $0x1
 236:	00 00                	add    %al,(%eax)
 238:	70 97                	jo     1d1 <_init-0x804822b>
 23a:	04 08                	add    $0x8,%al
 23c:	5a                   	pop    %edx
 23d:	00 00                	add    %al,(%eax)
 23f:	00 41 0e             	add    %al,0xe(%ecx)
 242:	08 42 85             	or     %al,-0x7b(%edx)
 245:	02 0d 05 54 83 03    	add    0x3835405,%cl
 24b:	02 41 c3             	add    -0x3d(%ecx),%al
 24e:	41                   	inc    %ecx
 24f:	c5 0c 04             	lds    (%esp,%eax,1),%ecx
 252:	04 00                	add    $0x0,%al
 254:	10 00                	adc    %al,(%eax)
 256:	00 00                	add    %al,(%eax)
 258:	ff                   	(bad)  
 259:	ff                   	(bad)  
 25a:	ff                   	(bad)  
 25b:	ff 01                	incl   (%ecx)
 25d:	00 01                	add    %al,(%ecx)
 25f:	7c 08                	jl     269 <_init-0x8048193>
 261:	0c 04                	or     $0x4,%al
 263:	04 88                	add    $0x88,%al
 265:	01 00                	add    %eax,(%eax)
 267:	00 28                	add    %ch,(%eax)
 269:	00 00                	add    %al,(%eax)
 26b:	00 54 02 00          	add    %dl,0x0(%edx,%eax,1)
 26f:	00 d0                	add    %dl,%al
 271:	97                   	xchg   %eax,%edi
 272:	04 08                	add    $0x8,%al
 274:	b2 00                	mov    $0x0,%dl
 276:	00 00                	add    %al,(%eax)
 278:	41                   	inc    %ecx
 279:	0e                   	push   %cs
 27a:	08 42 85             	or     %al,-0x7b(%edx)
 27d:	02 0d 05 48 83 05    	add    0x5834805,%cl
 283:	86 04 87             	xchg   %al,(%edi,%eax,4)
 286:	03 02                	add    (%edx),%eax
 288:	a3 c3 41 c6 41       	mov    %eax,0x41c641c3
 28d:	c7 41 c5 0c 04 04 00 	movl   $0x4040c,-0x3b(%ecx)
 294:	10 00                	adc    %al,(%eax)
 296:	00 00                	add    %al,(%eax)
 298:	ff                   	(bad)  
 299:	ff                   	(bad)  
 29a:	ff                   	(bad)  
 29b:	ff 01                	incl   (%ecx)
 29d:	00 01                	add    %al,(%ecx)
 29f:	7c 08                	jl     2a9 <_init-0x8048153>
 2a1:	0c 04                	or     $0x4,%al
 2a3:	04 88                	add    $0x88,%al
 2a5:	01 00                	add    %eax,(%eax)
 2a7:	00 1c 00             	add    %bl,(%eax,%eax,1)
 2aa:	00 00                	add    %al,(%eax)
 2ac:	94                   	xchg   %eax,%esp
 2ad:	02 00                	add    (%eax),%al
 2af:	00 90 98 04 08 35    	add    %dl,0x35080498(%eax)
 2b5:	00 00                	add    %al,(%eax)
 2b7:	00 41 0e             	add    %al,0xe(%ecx)
 2ba:	08 42 85             	or     %al,-0x7b(%edx)
 2bd:	02 0d 05 71 c5 0c    	add    0xcc57105,%cl
 2c3:	04 04                	add    $0x4,%al
 2c5:	00 00                	add    %al,(%eax)
 2c7:	00 44 00 00          	add    %al,0x0(%eax,%eax,1)
 2cb:	00 94 02 00 00 d0 98 	add    %dl,-0x67300000(%edx,%eax,1)
 2d2:	04 08                	add    $0x8,%al
 2d4:	82                   	(bad)  
 2d5:	00 00                	add    %al,(%eax)
 2d7:	00 41 0e             	add    %al,0xe(%ecx)
 2da:	08 42 85             	or     %al,-0x7b(%edx)
 2dd:	02 0d 05 4c 83 05    	add    0x5834c05,%cl
 2e3:	52                   	push   %edx
 2e4:	87 03                	xchg   %eax,(%ebx)
 2e6:	86 04 59             	xchg   %al,(%ecx,%ebx,2)
 2e9:	0a 0d 04 c7 c6 c3    	or     0xc3c6c704,%cl
 2ef:	41                   	inc    %ecx
 2f0:	c5 0e                	lds    (%esi),%ecx
 2f2:	04 45                	add    $0x45,%al
 2f4:	0b 53 0a             	or     0xa(%ebx),%edx
 2f7:	c3                   	ret    
 2f8:	c6 c7 0d             	mov    $0xd,%bh
 2fb:	04 41                	add    $0x41,%al
 2fd:	0e                   	push   %cs
 2fe:	04 c5                	add    $0xc5,%al
 300:	44                   	inc    %esp
 301:	0b 59 0a             	or     0xa(%ecx),%ebx
 304:	c3                   	ret    
 305:	c6 c7 0d             	mov    $0xd,%bh
 308:	04 41                	add    $0x41,%al
 30a:	0e                   	push   %cs
 30b:	04 c5                	add    $0xc5,%al
 30d:	41                   	inc    %ecx
 30e:	0b 00                	or     (%eax),%eax

Disassembly of section .debug_str:

00000000 <.debug_str>:
   0:	73 33                	jae    35 <_init-0x80483c7>
   2:	32 76 5f             	xor    0x5f(%esi),%dh
   5:	66                   	data16
   6:	6c                   	insb   (%dx),%es:(%edi)
   7:	61                   	popa   
   8:	67 73 00             	addr16 jae b <_init-0x80483f1>
   b:	73 33                	jae    40 <_init-0x80483bc>
   d:	32 5f 74             	xor    0x74(%edi),%bl
  10:	00 75 36             	add    %dh,0x36(%ebp)
  13:	34 76                	xor    $0x76,%al
  15:	5f                   	pop    %edi
  16:	74 69                	je     81 <_init-0x804837b>
  18:	6d                   	insl   (%dx),%es:(%edi)
  19:	65                   	gs
  1a:	5f                   	pop    %edi
  1b:	33 00                	xor    (%eax),%eax
  1d:	75 33                	jne    52 <_init-0x80483aa>
  1f:	32 76 5f             	xor    0x5f(%esi),%dh
  22:	63 61 63             	arpl   %sp,0x63(%ecx)
  25:	68 65 5f 73 7a       	push   $0x7a735f65
  2a:	00 47 4e             	add    %al,0x4e(%edi)
  2d:	55                   	push   %ebp
  2e:	20 43 20             	and    %al,0x20(%ebx)
  31:	34 2e                	xor    $0x2e,%al
  33:	35 2e 32 00 75       	xor    $0x7500322e,%eax
  38:	33 32                	xor    (%edx),%esi
  3a:	76 5f                	jbe    9b <_init-0x8048361>
  3c:	6e                   	outsb  %ds:(%esi),(%dx)
  3d:	00 75 33             	add    %dh,0x33(%ebp)
  40:	32 76 5f             	xor    0x5f(%esi),%dh
  43:	73 74                	jae    b9 <_init-0x8048343>
  45:	61                   	popa   
  46:	6d                   	insl   (%dx),%es:(%edi)
  47:	70 00                	jo     49 <_init-0x80483b3>
  49:	75 36                	jne    81 <_init-0x804837b>
  4b:	34 76                	xor    $0x76,%al
  4d:	5f                   	pop    %edi
  4e:	73 75                	jae    c5 <_init-0x8048337>
  50:	6d                   	insl   (%dx),%es:(%edi)
  51:	00 75 36             	add    %dh,0x36(%ebp)
  54:	34 66                	xor    $0x66,%al
  56:	5f                   	pop    %edi
  57:	66 69 62 6f 6e 61    	imul   $0x616e,0x6f(%edx),%sp
  5d:	63 63 69             	arpl   %sp,0x69(%ebx)
  60:	5f                   	pop    %edi
  61:	73 65                	jae    c8 <_init-0x8048334>
  63:	71 00                	jno    65 <_init-0x8048397>
  65:	6c                   	insb   (%dx),%es:(%edi)
  66:	63 61 63             	arpl   %sp,0x63(%ecx)
  69:	68 65 5f 74 00       	push   $0x745f65
  6e:	6c                   	insb   (%dx),%es:(%edi)
  6f:	6f                   	outsl  %ds:(%esi),(%dx)
  70:	6e                   	outsb  %ds:(%esi),(%dx)
  71:	67 20 6c 6f          	and    %ch,0x6f(%si)
  75:	6e                   	outsb  %ds:(%esi),(%dx)
  76:	67 20 75 6e          	and    %dh,0x6e(%di)
  7a:	73 69                	jae    e5 <_init-0x8048317>
  7c:	67 6e                	outsb  %ds:(%si),(%dx)
  7e:	65 64 20 69 6e       	gs and %ch,%fs:%gs:0x6e(%ecx)
  83:	74 00                	je     85 <_init-0x8048377>
  85:	75 36                	jne    bd <_init-0x804833f>
  87:	34 76                	xor    $0x76,%al
  89:	5f                   	pop    %edi
  8a:	72 00                	jb     8c <_init-0x8048370>
  8c:	72 65                	jb     f3 <_init-0x8048309>
  8e:	74 76                	je     106 <_init-0x80482f6>
  90:	61                   	popa   
  91:	6c                   	insb   (%dx),%es:(%edi)
  92:	00 75 6e             	add    %dh,0x6e(%ebp)
  95:	73 69                	jae    100 <_init-0x80482fc>
  97:	67 6e                	outsb  %ds:(%si),(%dx)
  99:	65 64 20 63 68       	gs and %ah,%fs:%gs:0x68(%ebx)
  9e:	61                   	popa   
  9f:	72 00                	jb     a1 <_init-0x804835b>
  a1:	75 36                	jne    d9 <_init-0x8048323>
  a3:	34 70                	xor    $0x70,%al
  a5:	5f                   	pop    %edi
  a6:	65                   	gs
  a7:	6c                   	insb   (%dx),%es:(%edi)
  a8:	65                   	gs
  a9:	6d                   	insl   (%dx),%es:(%edi)
  aa:	65 6e                	outsb  %gs:(%esi),(%dx)
  ac:	74 00                	je     ae <_init-0x804834e>
  ae:	73 68                	jae    118 <_init-0x80482e4>
  b0:	6f                   	outsl  %ds:(%esi),(%dx)
  b1:	72 74                	jb     127 <_init-0x80482d5>
  b3:	20 75 6e             	and    %dh,0x6e(%ebp)
  b6:	73 69                	jae    121 <_init-0x80482db>
  b8:	67 6e                	outsb  %ds:(%si),(%dx)
  ba:	65 64 20 69 6e       	gs and %ch,%fs:%gs:0x6e(%ecx)
  bf:	74 00                	je     c1 <_init-0x804833b>
  c1:	75 38                	jne    fb <_init-0x8048301>
  c3:	76 5f                	jbe    124 <_init-0x80482d8>
  c5:	66 69 6c 6c 65 64 00 	imul   $0x64,0x65(%esp,%ebp,2),%bp
  cc:	75 36                	jne    104 <_init-0x80482f8>
  ce:	34 76                	xor    $0x76,%al
  d0:	5f                   	pop    %edi
  d1:	74 69                	je     13c <_init-0x80482c0>
  d3:	6d                   	insl   (%dx),%es:(%edi)
  d4:	65                   	gs
  d5:	5f                   	pop    %edi
  d6:	31 00                	xor    %eax,(%eax)
  d8:	75 36                	jne    110 <_init-0x80482ec>
  da:	34 76                	xor    $0x76,%al
  dc:	5f                   	pop    %edi
  dd:	72 65                	jb     144 <_init-0x80482b8>
  df:	74 00                	je     e1 <_init-0x804831b>
  e1:	73 33                	jae    116 <_init-0x80482e6>
  e3:	32 66 5f             	xor    0x5f(%esi),%ah
  e6:	66 69 62 6f 6e 61    	imul   $0x616e,0x6f(%edx),%sp
  ec:	63 63 69             	arpl   %sp,0x69(%ebx)
  ef:	5f                   	pop    %edi
  f0:	61                   	popa   
  f1:	70 70                	jo     163 <_init-0x8048299>
  f3:	00 73 33             	add    %dh,0x33(%ebx)
  f6:	32 76 5f             	xor    0x5f(%esi),%dh
  f9:	63 6e 74             	arpl   %bp,0x74(%esi)
  fc:	00 6d 61             	add    %ch,0x61(%ebp)
  ff:	69 6e 00 75 33 32 5f 	imul   $0x5f323375,0x0(%esi),%ebp
 106:	74 00                	je     108 <_init-0x80482f4>
 108:	75 36                	jne    140 <_init-0x80482bc>
 10a:	34 66                	xor    $0x66,%al
 10c:	5f                   	pop    %edi
 10d:	66 69 62 6f 6e 61    	imul   $0x616e,0x6f(%edx),%sp
 113:	63 63 69             	arpl   %sp,0x69(%ebx)
 116:	5f                   	pop    %edi
 117:	72 65                	jb     17e <_init-0x804827e>
 119:	63 75 72             	arpl   %si,0x72(%ebp)
 11c:	73 69                	jae    187 <_init-0x8048275>
 11e:	76 65                	jbe    185 <_init-0x8048277>
 120:	00 75 36             	add    %dh,0x36(%ebp)
 123:	34 66                	xor    $0x66,%al
 125:	5f                   	pop    %edi
 126:	66 69 62 6f 6e 61    	imul   $0x616e,0x6f(%edx),%sp
 12c:	63 63 69             	arpl   %sp,0x69(%ebx)
 12f:	5f                   	pop    %edi
 130:	72 65                	jb     197 <_init-0x8048265>
 132:	63 75 72             	arpl   %si,0x72(%ebp)
 135:	73 69                	jae    1a0 <_init-0x804825c>
 137:	76 65                	jbe    19e <_init-0x804825e>
 139:	5f                   	pop    %edi
 13a:	63 61 63             	arpl   %sp,0x63(%ecx)
 13d:	68 65 64 00 75       	push   $0x75006465
 142:	36                   	ss
 143:	34 76                	xor    $0x76,%al
 145:	5f                   	pop    %edi
 146:	63 75 72             	arpl   %si,0x72(%ebp)
 149:	72 00                	jb     14b <_init-0x80482b1>
 14b:	75 33                	jne    180 <_init-0x804827c>
 14d:	32 70 5f             	xor    0x5f(%eax),%dh
 150:	68 61 73 68 00       	push   $0x687361
 155:	75 38                	jne    18f <_init-0x804826d>
 157:	5f                   	pop    %edi
 158:	74 00                	je     15a <_init-0x80482a2>
 15a:	73 33                	jae    18f <_init-0x804826d>
 15c:	32 76 5f             	xor    0x5f(%esi),%dh
 15f:	6c                   	insb   (%dx),%es:(%edi)
 160:	61                   	popa   
 161:	73 74                	jae    1d7 <_init-0x8048225>
 163:	00 61 72             	add    %ah,0x72(%ecx)
 166:	67 63 00             	arpl   %ax,(%bx,%si)
 169:	6c                   	insb   (%dx),%es:(%edi)
 16a:	6f                   	outsl  %ds:(%esi),(%dx)
 16b:	6e                   	outsb  %ds:(%esi),(%dx)
 16c:	67 20 6c 6f          	and    %ch,0x6f(%si)
 170:	6e                   	outsb  %ds:(%esi),(%dx)
 171:	67 20 69 6e          	and    %ch,0x6e(%bx,%di)
 175:	74 00                	je     177 <_init-0x8048285>
 177:	73 68                	jae    1e1 <_init-0x804821b>
 179:	6f                   	outsl  %ds:(%esi),(%dx)
 17a:	72 74                	jb     1f0 <_init-0x804820c>
 17c:	20 69 6e             	and    %ch,0x6e(%ecx)
 17f:	74 00                	je     181 <_init-0x804827b>
 181:	6c                   	insb   (%dx),%es:(%edi)
 182:	63 61 63             	arpl   %sp,0x63(%ecx)
 185:	68 65 5f 66 69       	push   $0x69665f65
 18a:	62 6f 6e             	bound  %ebp,0x6e(%edi)
 18d:	61                   	popa   
 18e:	63 63 69             	arpl   %sp,0x69(%ebx)
 191:	00 75 36             	add    %dh,0x36(%ebp)
 194:	34 76                	xor    $0x76,%al
 196:	5f                   	pop    %edi
 197:	70 72                	jo     20b <_init-0x80481f1>
 199:	65                   	gs
 19a:	76 00                	jbe    19c <_init-0x8048260>
 19c:	75 36                	jne    1d4 <_init-0x8048228>
 19e:	34 5f                	xor    $0x5f,%al
 1a0:	74 00                	je     1a2 <_init-0x804825a>
 1a2:	61                   	popa   
 1a3:	72 67                	jb     20c <_init-0x80481f0>
 1a5:	76 00                	jbe    1a7 <_init-0x8048255>
 1a7:	5f                   	pop    %edi
 1a8:	6c                   	insb   (%dx),%es:(%edi)
 1a9:	63 61 63             	arpl   %sp,0x63(%ecx)
 1ac:	68 65 5f 73 00       	push   $0x735f65
 1b1:	75 36                	jne    1e9 <_init-0x8048213>
 1b3:	34 76                	xor    $0x76,%al
 1b5:	5f                   	pop    %edi
 1b6:	74 69                	je     221 <_init-0x80481db>
 1b8:	6d                   	insl   (%dx),%es:(%edi)
 1b9:	65                   	gs
 1ba:	5f                   	pop    %edi
 1bb:	32 00                	xor    (%eax),%al
 1bd:	73 33                	jae    1f2 <_init-0x804820a>
 1bf:	32 76 5f             	xor    0x5f(%esi),%dh
 1c2:	72 65                	jb     229 <_init-0x80481d3>
 1c4:	74 00                	je     1c6 <_init-0x8048236>
 1c6:	75 33                	jne    1fb <_init-0x8048201>
 1c8:	32 76 5f             	xor    0x5f(%esi),%dh
 1cb:	69 64 78 00 2f 73 70 	imul   $0x6170732f,0x0(%eax,%edi,2),%esp
 1d2:	61 
 1d3:	63 65 2f             	arpl   %sp,0x2f(%ebp)
 1d6:	62 65 74             	bound  %esp,0x74(%ebp)
 1d9:	61                   	popa   
 1da:	73 61                	jae    23d <_init-0x80481bf>
 1dc:	6d                   	insl   (%dx),%es:(%edi)
 1dd:	2f                   	das    
 1de:	66 69 62 6f 6e 61    	imul   $0x616e,0x6f(%edx),%sp
 1e4:	63 63 69             	arpl   %sp,0x69(%ebx)
 1e7:	2f                   	das    
 1e8:	2f                   	das    
 1e9:	73 72                	jae    25d <_init-0x804819f>
 1eb:	63 2f                	arpl   %bp,(%edi)
 1ed:	74 65                	je     254 <_init-0x80481a8>
 1ef:	73 74                	jae    265 <_init-0x8048197>
 1f1:	2e 63 00             	arpl   %ax,%cs:(%eax)
 1f4:	75 36                	jne    22c <_init-0x80481d0>
 1f6:	34 76                	xor    $0x76,%al
 1f8:	5f                   	pop    %edi
 1f9:	76 61                	jbe    25c <_init-0x80481a0>
 1fb:	6c                   	insb   (%dx),%es:(%edi)
 1fc:	75 65                	jne    263 <_init-0x8048199>
 1fe:	00 73 33             	add    %dh,0x33(%ebx)
 201:	32 66 5f             	xor    0x5f(%esi),%ah
 204:	6c                   	insb   (%dx),%es:(%edi)
 205:	63 61 63             	arpl   %sp,0x63(%ecx)
 208:	68 65 5f 69 6e       	push   $0x6e695f65
 20d:	69 74 00 75 33 32 76 	imul   $0x5f763233,0x75(%eax,%eax,1),%esi
 214:	5f 
 215:	68 61 73 68 00       	push   $0x687361
 21a:	75 33                	jne    24f <_init-0x80481ad>
 21c:	32 76 5f             	xor    0x5f(%esi),%dh
 21f:	73 7a                	jae    29b <_init-0x8048161>
 221:	00 73 33             	add    %dh,0x33(%ebx)
 224:	32 66 5f             	xor    0x5f(%esi),%ah
 227:	6c                   	insb   (%dx),%es:(%edi)
 228:	63 61 63             	arpl   %sp,0x63(%ecx)
 22b:	68 65 5f 61 64       	push   $0x64615f65
 230:	64 00 73 33          	add    %dh,%fs:0x33(%ebx)
 234:	32 66 5f             	xor    0x5f(%esi),%ah
 237:	6c                   	insb   (%dx),%es:(%edi)
 238:	63 61 63             	arpl   %sp,0x63(%ecx)
 23b:	68 65 5f 66 72       	push   $0x72665f65
 240:	65 65 00 2f          	gs add %ch,%gs:(%edi)
 244:	73 70                	jae    2b6 <_init-0x8048146>
 246:	61                   	popa   
 247:	63 65 2f             	arpl   %sp,0x2f(%ebp)
 24a:	62 65 74             	bound  %esp,0x74(%ebp)
 24d:	61                   	popa   
 24e:	73 61                	jae    2b1 <_init-0x804814b>
 250:	6d                   	insl   (%dx),%es:(%edi)
 251:	2f                   	das    
 252:	66 69 62 6f 6e 61    	imul   $0x616e,0x6f(%edx),%sp
 258:	63 63 69             	arpl   %sp,0x69(%ebx)
 25b:	2f                   	das    
 25c:	2f                   	das    
 25d:	73 72                	jae    2d1 <_init-0x804812b>
 25f:	63 2f                	arpl   %bp,(%edi)
 261:	6c                   	insb   (%dx),%es:(%edi)
 262:	63 61 63             	arpl   %sp,0x63(%ecx)
 265:	68 65 2e 63 00       	push   $0x632e65
 26a:	73 33                	jae    29f <_init-0x804815d>
 26c:	32 76 5f             	xor    0x5f(%esi),%dh
 26f:	6c                   	insb   (%dx),%es:(%edi)
 270:	63 61 63             	arpl   %sp,0x63(%ecx)
 273:	68 65 5f 63 6e       	push   $0x6e635f65
 278:	74 00                	je     27a <_init-0x8048182>
 27a:	75 36                	jne    2b2 <_init-0x804814a>
 27c:	34 66                	xor    $0x66,%al
 27e:	5f                   	pop    %edi
 27f:	6c                   	insb   (%dx),%es:(%edi)
 280:	63 61 63             	arpl   %sp,0x63(%ecx)
 283:	68 65 5f 66 69       	push   $0x69665f65
 288:	6e                   	outsb  %ds:(%esi),(%dx)
 289:	64 00 75 33          	add    %dh,%fs:0x33(%ebp)
 28d:	32 76 5f             	xor    0x5f(%esi),%dh
 290:	6c                   	insb   (%dx),%es:(%edi)
 291:	63 61 63             	arpl   %sp,0x63(%ecx)
 294:	68 65 5f 66 6c       	push   $0x6c665f65
 299:	61                   	popa   
 29a:	67 73 00             	addr16 jae 29d <_init-0x804815f>
 29d:	6c                   	insb   (%dx),%es:(%edi)
 29e:	63 61 63             	arpl   %sp,0x63(%ecx)
 2a1:	68 65 5f 70 74       	push   $0x74705f65
 2a6:	72 00                	jb     2a8 <_init-0x8048154>
 2a8:	73 33                	jae    2dd <_init-0x804811f>
 2aa:	32 76 5f             	xor    0x5f(%esi),%dh
 2ad:	69 64 78 00 5f 5f 6f 	imul   $0x666f5f5f,0x0(%eax,%edi,2),%esp
 2b4:	66 
 2b5:	66 5f                	pop    %di
 2b7:	74 00                	je     2b9 <_init-0x8048143>
 2b9:	5f                   	pop    %edi
 2ba:	49                   	dec    %ecx
 2bb:	4f                   	dec    %edi
 2bc:	5f                   	pop    %edi
 2bd:	72 65                	jb     324 <_init-0x80480d8>
 2bf:	61                   	popa   
 2c0:	64                   	fs
 2c1:	5f                   	pop    %edi
 2c2:	70 74                	jo     338 <_init-0x80480c4>
 2c4:	72 00                	jb     2c6 <_init-0x8048136>
 2c6:	5f                   	pop    %edi
 2c7:	63 68 61             	arpl   %bp,0x61(%eax)
 2ca:	69 6e 00 73 69 7a 65 	imul   $0x657a6973,0x0(%esi),%ebp
 2d1:	5f                   	pop    %edi
 2d2:	74 00                	je     2d4 <_init-0x8048128>
 2d4:	5f                   	pop    %edi
 2d5:	73 68                	jae    33f <_init-0x80480bd>
 2d7:	6f                   	outsl  %ds:(%esi),(%dx)
 2d8:	72 74                	jb     34e <_init-0x80480ae>
 2da:	62 75 66             	bound  %esi,0x66(%ebp)
 2dd:	00 5f 49             	add    %bl,0x49(%edi)
 2e0:	4f                   	dec    %edi
 2e1:	5f                   	pop    %edi
 2e2:	62 75 66             	bound  %esi,0x66(%ebp)
 2e5:	5f                   	pop    %edi
 2e6:	62 61 73             	bound  %esp,0x73(%ecx)
 2e9:	65 00 5f 66          	add    %bl,%gs:0x66(%edi)
 2ed:	69 6c 65 6e 6f 00 5f 	imul   $0x495f006f,0x6e(%ebp,%eiz,2),%ebp
 2f4:	49 
 2f5:	4f                   	dec    %edi
 2f6:	5f                   	pop    %edi
 2f7:	72 65                	jb     35e <_init-0x804809e>
 2f9:	61                   	popa   
 2fa:	64                   	fs
 2fb:	5f                   	pop    %edi
 2fc:	65 6e                	outsb  %gs:(%esi),(%dx)
 2fe:	64 00 5f 5f          	add    %bl,%fs:0x5f(%edi)
 302:	62 75 69             	bound  %esi,0x69(%ebp)
 305:	6c                   	insb   (%dx),%es:(%edi)
 306:	74 69                	je     371 <_init-0x804808b>
 308:	6e                   	outsb  %ds:(%esi),(%dx)
 309:	5f                   	pop    %edi
 30a:	76 61                	jbe    36d <_init-0x804808f>
 30c:	5f                   	pop    %edi
 30d:	6c                   	insb   (%dx),%es:(%edi)
 30e:	69 73 74 00 5f 49 4f 	imul   $0x4f495f00,0x74(%ebx),%esi
 315:	5f                   	pop    %edi
 316:	62 75 66             	bound  %esi,0x66(%ebp)
 319:	5f                   	pop    %edi
 31a:	65 6e                	outsb  %gs:(%esi),(%dx)
 31c:	64 00 5f 63          	add    %bl,%fs:0x63(%edi)
 320:	75 72                	jne    394 <_init-0x8048068>
 322:	5f                   	pop    %edi
 323:	63 6f 6c             	arpl   %bp,0x6c(%edi)
 326:	75 6d                	jne    395 <_init-0x8048067>
 328:	6e                   	outsb  %ds:(%esi),(%dx)
 329:	00 5f 5f             	add    %bl,0x5f(%edi)
 32c:	71 75                	jno    3a3 <_init-0x8048059>
 32e:	61                   	popa   
 32f:	64                   	fs
 330:	5f                   	pop    %edi
 331:	74 00                	je     333 <_init-0x80480c9>
 333:	5f                   	pop    %edi
 334:	6f                   	outsl  %ds:(%esi),(%dx)
 335:	6c                   	insb   (%dx),%es:(%edi)
 336:	64                   	fs
 337:	5f                   	pop    %edi
 338:	6f                   	outsl  %ds:(%esi),(%dx)
 339:	66                   	data16
 33a:	66                   	data16
 33b:	73 65                	jae    3a2 <_init-0x804805a>
 33d:	74 00                	je     33f <_init-0x80480bd>
 33f:	61                   	popa   
 340:	72 67                	jb     3a9 <_init-0x8048053>
 342:	5f                   	pop    %edi
 343:	6c                   	insb   (%dx),%es:(%edi)
 344:	69 73 74 00 5f 5f 70 	imul   $0x705f5f00,0x74(%ebx),%esi
 34b:	61                   	popa   
 34c:	64 33 00             	xor    %fs:(%eax),%eax
 34f:	5f                   	pop    %edi
 350:	49                   	dec    %ecx
 351:	4f                   	dec    %edi
 352:	5f                   	pop    %edi
 353:	6d                   	insl   (%dx),%es:(%edi)
 354:	61                   	popa   
 355:	72 6b                	jb     3c2 <_init-0x804803a>
 357:	65                   	gs
 358:	72 00                	jb     35a <_init-0x80480a2>
 35a:	73 74                	jae    3d0 <_init-0x804802c>
 35c:	64 69 6e 00 5f 5f 73 	imul   $0x74735f5f,%fs:0x0(%esi),%ebp
 363:	74 
 364:	72 65                	jb     3cb <_init-0x8048031>
 366:	61                   	popa   
 367:	6d                   	insl   (%dx),%es:(%edi)
 368:	00 5f 49             	add    %bl,0x49(%edi)
 36b:	4f                   	dec    %edi
 36c:	5f                   	pop    %edi
 36d:	77 72                	ja     3e1 <_init-0x804801b>
 36f:	69 74 65 5f 70 74 72 	imul   $0x727470,0x5f(%ebp,%eiz,2),%esi
 376:	00 
 377:	5f                   	pop    %edi
 378:	73 62                	jae    3dc <_init-0x8048020>
 37a:	75 66                	jne    3e2 <_init-0x804801a>
 37c:	00 75 77             	add    %dh,0x77(%ebp)
 37f:	61                   	popa   
 380:	72 6e                	jb     3f0 <_init-0x804800c>
 382:	69 6e 67 00 5f 49 4f 	imul   $0x4f495f00,0x67(%esi),%ebp
 389:	5f                   	pop    %edi
 38a:	73 61                	jae    3ed <_init-0x804800f>
 38c:	76 65                	jbe    3f3 <_init-0x8048009>
 38e:	5f                   	pop    %edi
 38f:	62 61 73             	bound  %esp,0x73(%ecx)
 392:	65 00 5f 6c          	add    %bl,%gs:0x6c(%edi)
 396:	6f                   	outsl  %ds:(%esi),(%dx)
 397:	63 6b 00             	arpl   %bp,0x0(%ebx)
 39a:	5f                   	pop    %edi
 39b:	66                   	data16
 39c:	6c                   	insb   (%dx),%es:(%edi)
 39d:	61                   	popa   
 39e:	67 73 32             	addr16 jae 3d3 <_init-0x8048029>
 3a1:	00 5f 6d             	add    %bl,0x6d(%edi)
 3a4:	6f                   	outsl  %ds:(%esi),(%dx)
 3a5:	64 65 00 73 74       	fs add %dh,%fs:%gs:0x74(%ebx)
 3aa:	64 6f                	outsl  %fs:(%esi),(%dx)
 3ac:	75 74                	jne    422 <_init-0x8047fda>
 3ae:	00 70 72             	add    %dh,0x72(%eax)
 3b1:	65 66 69 78 00 6f 75 	imul   $0x756f,%gs:0x0(%eax),%di
 3b8:	74 5f                	je     419 <_init-0x8047fe3>
 3ba:	73 74                	jae    430 <_init-0x8047fcc>
 3bc:	72 65                	jb     423 <_init-0x8047fd9>
 3be:	61                   	popa   
 3bf:	6d                   	insl   (%dx),%es:(%edi)
 3c0:	00 5f 5f             	add    %bl,0x5f(%edi)
 3c3:	67 6e                	outsb  %ds:(%si),(%dx)
 3c5:	75 63                	jne    42a <_init-0x8047fd2>
 3c7:	5f                   	pop    %edi
 3c8:	76 61                	jbe    42b <_init-0x8047fd1>
 3ca:	5f                   	pop    %edi
 3cb:	6c                   	insb   (%dx),%es:(%edi)
 3cc:	69 73 74 00 5f 49 4f 	imul   $0x4f495f00,0x74(%ebx),%esi
 3d3:	5f                   	pop    %edi
 3d4:	77 72                	ja     448 <_init-0x8047fb4>
 3d6:	69 74 65 5f 65 6e 64 	imul   $0x646e65,0x5f(%ebp,%eiz,2),%esi
 3dd:	00 
 3de:	5f                   	pop    %edi
 3df:	49                   	dec    %ecx
 3e0:	4f                   	dec    %edi
 3e1:	5f                   	pop    %edi
 3e2:	6c                   	insb   (%dx),%es:(%edi)
 3e3:	6f                   	outsl  %ds:(%esi),(%dx)
 3e4:	63 6b 5f             	arpl   %bp,0x5f(%ebx)
 3e7:	74 00                	je     3e9 <_init-0x8048013>
 3e9:	5f                   	pop    %edi
 3ea:	49                   	dec    %ecx
 3eb:	4f                   	dec    %edi
 3ec:	5f                   	pop    %edi
 3ed:	46                   	inc    %esi
 3ee:	49                   	dec    %ecx
 3ef:	4c                   	dec    %esp
 3f0:	45                   	inc    %ebp
 3f1:	00 73 74             	add    %dh,0x74(%ebx)
 3f4:	72 65                	jb     45b <_init-0x8047fa1>
 3f6:	61                   	popa   
 3f7:	6d                   	insl   (%dx),%es:(%edi)
 3f8:	5f                   	pop    %edi
 3f9:	6d                   	insl   (%dx),%es:(%edi)
 3fa:	65                   	gs
 3fb:	73 73                	jae    470 <_init-0x8047f8c>
 3fd:	61                   	popa   
 3fe:	67 65 00 5f 70       	add    %bl,%gs:0x70(%bx)
 403:	6f                   	outsl  %ds:(%esi),(%dx)
 404:	73 00                	jae    406 <_init-0x8047ff6>
 406:	5f                   	pop    %edi
 407:	6d                   	insl   (%dx),%es:(%edi)
 408:	61                   	popa   
 409:	72 6b                	jb     476 <_init-0x8047f86>
 40b:	65                   	gs
 40c:	72 73                	jb     481 <_init-0x8047f7b>
 40e:	00 75 65             	add    %dh,0x65(%ebp)
 411:	72 72                	jb     485 <_init-0x8047f77>
 413:	6f                   	outsl  %ds:(%esi),(%dx)
 414:	72 00                	jb     416 <_init-0x8047fe6>
 416:	75 6d                	jne    485 <_init-0x8047f77>
 418:	65                   	gs
 419:	73 73                	jae    48e <_init-0x8047f6e>
 41b:	61                   	popa   
 41c:	67 65 00 5f 76       	add    %bl,%gs:0x76(%bx)
 421:	74 61                	je     484 <_init-0x8047f78>
 423:	62 6c 65 5f          	bound  %ebp,0x5f(%ebp,%eiz,2)
 427:	6f                   	outsl  %ds:(%esi),(%dx)
 428:	66                   	data16
 429:	66                   	data16
 42a:	73 65                	jae    491 <_init-0x8047f6b>
 42c:	74 00                	je     42e <_init-0x8047fce>
 42e:	66 6f                	outsw  %ds:(%esi),(%dx)
 430:	72 6d                	jb     49f <_init-0x8047f5d>
 432:	61                   	popa   
 433:	74 00                	je     435 <_init-0x8047fc7>
 435:	5f                   	pop    %edi
 436:	6e                   	outsb  %ds:(%esi),(%dx)
 437:	65                   	gs
 438:	78 74                	js     4ae <_init-0x8047f4e>
 43a:	00 5f 5f             	add    %bl,0x5f(%edi)
 43d:	6f                   	outsl  %ds:(%esi),(%dx)
 43e:	66                   	data16
 43f:	66                   	data16
 440:	36                   	ss
 441:	34 5f                	xor    $0x5f,%al
 443:	74 00                	je     445 <_init-0x8047fb7>
 445:	5f                   	pop    %edi
 446:	49                   	dec    %ecx
 447:	4f                   	dec    %edi
 448:	5f                   	pop    %edi
 449:	72 65                	jb     4b0 <_init-0x8047f4c>
 44b:	61                   	popa   
 44c:	64                   	fs
 44d:	5f                   	pop    %edi
 44e:	62 61 73             	bound  %esp,0x73(%ecx)
 451:	65 00 5f 49          	add    %bl,%gs:0x49(%edi)
 455:	4f                   	dec    %edi
 456:	5f                   	pop    %edi
 457:	73 61                	jae    4ba <_init-0x8047f42>
 459:	76 65                	jbe    4c0 <_init-0x8047f3c>
 45b:	5f                   	pop    %edi
 45c:	65 6e                	outsb  %gs:(%esi),(%dx)
 45e:	64 00 5f 5f          	add    %bl,%fs:0x5f(%edi)
 462:	61                   	popa   
 463:	70 00                	jo     465 <_init-0x8047f97>
 465:	76 66                	jbe    4cd <_init-0x8047f2f>
 467:	70 72                	jo     4db <_init-0x8047f21>
 469:	69 6e 74 66 00 5f 5f 	imul   $0x5f5f0066,0x74(%esi),%ebp
 470:	66 6d                	insw   (%dx),%es:(%edi)
 472:	74 00                	je     474 <_init-0x8047f88>
 474:	5f                   	pop    %edi
 475:	5f                   	pop    %edi
 476:	70 61                	jo     4d9 <_init-0x8047f23>
 478:	64 31 00             	xor    %eax,%fs:(%eax)
 47b:	5f                   	pop    %edi
 47c:	5f                   	pop    %edi
 47d:	70 61                	jo     4e0 <_init-0x8047f1c>
 47f:	64 32 00             	xor    %fs:(%eax),%al
 482:	2f                   	das    
 483:	73 70                	jae    4f5 <_init-0x8047f07>
 485:	61                   	popa   
 486:	63 65 2f             	arpl   %sp,0x2f(%ebp)
 489:	62 65 74             	bound  %esp,0x74(%ebp)
 48c:	61                   	popa   
 48d:	73 61                	jae    4f0 <_init-0x8047f0c>
 48f:	6d                   	insl   (%dx),%es:(%edi)
 490:	2f                   	das    
 491:	66 69 62 6f 6e 61    	imul   $0x616e,0x6f(%edx),%sp
 497:	63 63 69             	arpl   %sp,0x69(%ebx)
 49a:	2f                   	das    
 49b:	2f                   	das    
 49c:	73 72                	jae    510 <_init-0x8047eec>
 49e:	63 2f                	arpl   %bp,(%edi)
 4a0:	6c                   	insb   (%dx),%es:(%edi)
 4a1:	6d                   	insl   (%dx),%es:(%edi)
 4a2:	65                   	gs
 4a3:	73 73                	jae    518 <_init-0x8047ee4>
 4a5:	61                   	popa   
 4a6:	67 65 2e 63 00       	gs arpl %ax,%cs:%gs:(%bx,%si)
 4ab:	5f                   	pop    %edi
 4ac:	5f                   	pop    %edi
 4ad:	70 61                	jo     510 <_init-0x8047eec>
 4af:	64                   	fs
 4b0:	34 00                	xor    $0x0,%al
 4b2:	5f                   	pop    %edi
 4b3:	5f                   	pop    %edi
 4b4:	70 61                	jo     517 <_init-0x8047ee5>
 4b6:	64                   	fs
 4b7:	35 00 5f 75 6e       	xor    $0x6e755f00,%eax
 4bc:	75 73                	jne    531 <_init-0x8047ecb>
 4be:	65 64 32 00          	gs xor %fs:%gs:(%eax),%al
 4c2:	73 74                	jae    538 <_init-0x8047ec4>
 4c4:	64                   	fs
 4c5:	65                   	gs
 4c6:	72 72                	jb     53a <_init-0x8047ec2>
 4c8:	00 5f 49             	add    %bl,0x49(%edi)
 4cb:	4f                   	dec    %edi
 4cc:	5f                   	pop    %edi
 4cd:	62 61 63             	bound  %esp,0x63(%ecx)
 4d0:	6b 75 70 5f          	imul   $0x5f,0x70(%ebp),%esi
 4d4:	62 61 73             	bound  %esp,0x73(%ecx)
 4d7:	65 00 5f 49          	add    %bl,%gs:0x49(%edi)
 4db:	4f                   	dec    %edi
 4dc:	5f                   	pop    %edi
 4dd:	77 72                	ja     551 <_init-0x8047eab>
 4df:	69 74 65 5f 62 61 73 	imul   $0x65736162,0x5f(%ebp,%eiz,2),%esi
 4e6:	65 
 4e7:	00 2f                	add    %ch,(%edi)
 4e9:	73 70                	jae    55b <_init-0x8047ea1>
 4eb:	61                   	popa   
 4ec:	63 65 2f             	arpl   %sp,0x2f(%ebp)
 4ef:	62 65 74             	bound  %esp,0x74(%ebp)
 4f2:	61                   	popa   
 4f3:	73 61                	jae    556 <_init-0x8047ea6>
 4f5:	6d                   	insl   (%dx),%es:(%edi)
 4f6:	2f                   	das    
 4f7:	66 69 62 6f 6e 61    	imul   $0x616e,0x6f(%edx),%sp
 4fd:	63 63 69             	arpl   %sp,0x69(%ebx)
 500:	2f                   	das    
 501:	2f                   	das    
 502:	73 72                	jae    576 <_init-0x8047e86>
 504:	63 2f                	arpl   %bp,(%edi)
 506:	6c                   	insb   (%dx),%es:(%edi)
 507:	63 6f 6e             	arpl   %bp,0x6e(%edi)
 50a:	66 69 67 2e 63 00    	imul   $0x63,0x2e(%edi),%sp
 510:	75 33                	jne    545 <_init-0x8047eb7>
 512:	32 76 5f             	xor    0x5f(%esi),%dh
 515:	6e                   	outsb  %ds:(%esi),(%dx)
 516:	75 6d                	jne    585 <_init-0x8047e77>
 518:	00 75 33             	add    %dh,0x33(%ebp)
 51b:	32 70 5f             	xor    0x5f(%eax),%dh
 51e:	6e                   	outsb  %ds:(%esi),(%dx)
 51f:	75 6d                	jne    58e <_init-0x8047e6e>
 521:	00 73 33             	add    %dh,0x33(%ebx)
 524:	32 66 5f             	xor    0x5f(%esi),%ah
 527:	70 61                	jo     58a <_init-0x8047e72>
 529:	72 73                	jb     59e <_init-0x8047e5e>
 52b:	65                   	gs
 52c:	5f                   	pop    %edi
 52d:	61                   	popa   
 52e:	72 67                	jb     597 <_init-0x8047e65>
 530:	73 00                	jae    532 <_init-0x8047eca>
 532:	73 33                	jae    567 <_init-0x8047e95>
 534:	32 76 5f             	xor    0x5f(%esi),%dh
 537:	6f                   	outsl  %ds:(%esi),(%dx)
 538:	70 74                	jo     5ae <_init-0x8047e4e>
 53a:	00 6f 70             	add    %ch,0x70(%edi)
 53d:	74 61                	je     5a0 <_init-0x8047e5c>
 53f:	72 67                	jb     5a8 <_init-0x8047e54>
 541:	00 74 76 5f          	add    %dh,0x5f(%esi,%esi,2)
 545:	73 5f                	jae    5a6 <_init-0x8047e56>
 547:	6e                   	outsb  %ds:(%esi),(%dx)
 548:	6f                   	outsl  %ds:(%esi),(%dx)
 549:	77 00                	ja     54b <_init-0x8047eb1>
 54b:	75 36                	jne    583 <_init-0x8047e79>
 54d:	34 66                	xor    $0x66,%al
 54f:	5f                   	pop    %edi
 550:	67                   	addr16
 551:	65                   	gs
 552:	74 64                	je     5b8 <_init-0x8047e44>
 554:	65                   	gs
 555:	6c                   	insb   (%dx),%es:(%edi)
 556:	74 61                	je     5b9 <_init-0x8047e43>
 558:	00 75 36             	add    %dh,0x36(%ebp)
 55b:	34 76                	xor    $0x76,%al
 55d:	5f                   	pop    %edi
 55e:	74 6f                	je     5cf <_init-0x8047e2d>
 560:	00 75 36             	add    %dh,0x36(%ebp)
 563:	34 76                	xor    $0x76,%al
 565:	5f                   	pop    %edi
 566:	74 69                	je     5d1 <_init-0x8047e2b>
 568:	6d                   	insl   (%dx),%es:(%edi)
 569:	65 00 75 36          	add    %dh,%gs:0x36(%ebp)
 56d:	34 76                	xor    $0x76,%al
 56f:	5f                   	pop    %edi
 570:	66                   	data16
 571:	72 6f                	jb     5e2 <_init-0x8047e1a>
 573:	6d                   	insl   (%dx),%es:(%edi)
 574:	00 74 69 6d          	add    %dh,0x6d(%ecx,%ebp,2)
 578:	65                   	gs
 579:	76 61                	jbe    5dc <_init-0x8047e20>
 57b:	6c                   	insb   (%dx),%es:(%edi)
 57c:	00 75 36             	add    %dh,0x36(%ebp)
 57f:	34 66                	xor    $0x66,%al
 581:	5f                   	pop    %edi
 582:	67                   	addr16
 583:	65                   	gs
 584:	74 74                	je     5fa <_init-0x8047e02>
 586:	69 6d 65 5f 6d 73 65 	imul   $0x65736d5f,0x65(%ebp),%ebp
 58d:	63 00                	arpl   %ax,(%eax)
 58f:	74 76                	je     607 <_init-0x8047df5>
 591:	5f                   	pop    %edi
 592:	75 73                	jne    607 <_init-0x8047df5>
 594:	65 63 00             	arpl   %ax,%gs:(%eax)
 597:	5f                   	pop    %edi
 598:	5f                   	pop    %edi
 599:	74 69                	je     604 <_init-0x8047df8>
 59b:	6d                   	insl   (%dx),%es:(%edi)
 59c:	65                   	gs
 59d:	5f                   	pop    %edi
 59e:	74 00                	je     5a0 <_init-0x8047e5c>
 5a0:	74 76                	je     618 <_init-0x8047de4>
 5a2:	5f                   	pop    %edi
 5a3:	73 65                	jae    60a <_init-0x8047df2>
 5a5:	63 00                	arpl   %ax,(%eax)
 5a7:	5f                   	pop    %edi
 5a8:	5f                   	pop    %edi
 5a9:	73 75                	jae    620 <_init-0x8047ddc>
 5ab:	73 65                	jae    612 <_init-0x8047dea>
 5ad:	63 6f 6e             	arpl   %bp,0x6e(%edi)
 5b0:	64                   	fs
 5b1:	73 5f                	jae    612 <_init-0x8047dea>
 5b3:	74 00                	je     5b5 <_init-0x8047e47>
 5b5:	2f                   	das    
 5b6:	73 70                	jae    628 <_init-0x8047dd4>
 5b8:	61                   	popa   
 5b9:	63 65 2f             	arpl   %sp,0x2f(%ebp)
 5bc:	62 65 74             	bound  %esp,0x74(%ebp)
 5bf:	61                   	popa   
 5c0:	73 61                	jae    623 <_init-0x8047dd9>
 5c2:	6d                   	insl   (%dx),%es:(%edi)
 5c3:	2f                   	das    
 5c4:	66 69 62 6f 6e 61    	imul   $0x616e,0x6f(%edx),%sp
 5ca:	63 63 69             	arpl   %sp,0x69(%ebx)
 5cd:	2f                   	das    
 5ce:	2f                   	das    
 5cf:	73 72                	jae    643 <_init-0x8047db9>
 5d1:	63 2f                	arpl   %bp,(%edi)
 5d3:	6c                   	insb   (%dx),%es:(%edi)
 5d4:	74 69                	je     63f <_init-0x8047dbd>
 5d6:	6d                   	insl   (%dx),%es:(%edi)
 5d7:	65 2e 63 00          	gs arpl %ax,%cs:%gs:(%eax)
 5db:	73 33                	jae    610 <_init-0x8047dec>
 5dd:	32 76 5f             	xor    0x5f(%esi),%dh
 5e0:	73 74                	jae    656 <_init-0x8047da6>
 5e2:	61                   	popa   
 5e3:	74 75                	je     65a <_init-0x8047da2>
 5e5:	73 00                	jae    5e7 <_init-0x8047e15>

Disassembly of section .debug_loc:

00000000 <.debug_loc>:
       0:	00 00                	add    %al,(%eax)
       2:	00 00                	add    %al,(%eax)
       4:	01 00                	add    %eax,(%eax)
       6:	00 00                	add    %al,(%eax)
       8:	02 00                	add    (%eax),%al
       a:	74 04                	je     10 <_init-0x80483ec>
       c:	01 00                	add    %eax,(%eax)
       e:	00 00                	add    %al,(%eax)
      10:	03 00                	add    (%eax),%eax
      12:	00 00                	add    %al,(%eax)
      14:	02 00                	add    (%eax),%al
      16:	74 08                	je     20 <_init-0x80483dc>
      18:	03 00                	add    (%eax),%eax
      1a:	00 00                	add    %al,(%eax)
      1c:	e8 02 00 00 02       	call   2000023 <_init-0x60483d9>
      21:	00 75 08             	add    %dh,0x8(%ebp)
      24:	e8 02 00 00 e9       	call   e900002b <_end+0xe0fb4f83>
      29:	02 00                	add    (%eax),%al
      2b:	00 02                	add    %al,(%edx)
      2d:	00 74 04 00          	add    %dh,0x0(%esp,%eax,1)
      31:	00 00                	add    %al,(%eax)
      33:	00 00                	add    %al,(%eax)
      35:	00 00                	add    %al,(%eax)
      37:	00 20                	add    %ah,(%eax)
      39:	00 00                	add    %al,(%eax)
      3b:	00 d5                	add    %dl,%ch
      3d:	02 00                	add    (%eax),%al
      3f:	00 0a                	add    %cl,(%edx)
      41:	00 9e 08 00 00 00    	add    %bl,0x8(%esi)
	...
      53:	00 41 00             	add    %al,0x0(%ecx)
      56:	00 00                	add    %al,(%eax)
      58:	44                   	inc    %esp
      59:	00 00                	add    %al,(%eax)
      5b:	00 01                	add    %al,(%ecx)
      5d:	00 50 44             	add    %dl,0x44(%eax)
      60:	00 00                	add    %al,(%eax)
      62:	00 cb                	add    %cl,%bl
      64:	02 00                	add    (%eax),%al
      66:	00 03                	add    %al,(%ebx)
      68:	00 91 f4 7e 00 00    	add    %dl,0x7ef4(%ecx)
      6e:	00 00                	add    %al,(%eax)
      70:	00 00                	add    %al,(%eax)
      72:	00 00                	add    %al,(%eax)
      74:	4e                   	dec    %esi
      75:	00 00                	add    %al,(%eax)
      77:	00 b4 02 00 00 0a 00 	add    %dh,0xa0000(%edx,%eax,1)
      7e:	9e                   	sahf   
      7f:	08 00                	or     %al,(%eax)
	...
      8d:	00 00                	add    %al,(%eax)
      8f:	00 5d 00             	add    %bl,0x0(%ebp)
      92:	00 00                	add    %al,(%eax)
      94:	a7                   	cmpsl  %es:(%edi),%ds:(%esi)
      95:	02 00                	add    (%eax),%al
      97:	00 03                	add    %al,(%ebx)
      99:	00 91 bc 7f 00 00    	add    %dl,0x7fbc(%ecx)
      9f:	00 00                	add    %al,(%eax)
      a1:	00 00                	add    %al,(%eax)
      a3:	00 00                	add    %al,(%eax)
      a5:	74 00                	je     a7 <_init-0x8048355>
      a7:	00 00                	add    %al,(%eax)
      a9:	85 02                	test   %eax,(%edx)
      ab:	00 00                	add    %al,(%eax)
      ad:	0a 00                	or     (%eax),%al
      af:	9e                   	sahf   
      b0:	08 00                	or     %al,(%eax)
	...
      be:	00 00                	add    %al,(%eax)
      c0:	00 83 00 00 00 85    	add    %al,-0x7b000000(%ebx)
      c6:	02 00                	add    (%eax),%al
      c8:	00 03                	add    %al,(%ebx)
      ca:	00 91 b8 7f 00 00    	add    %dl,0x7fb8(%ecx)
      d0:	00 00                	add    %al,(%eax)
      d2:	00 00                	add    %al,(%eax)
      d4:	00 00                	add    %al,(%eax)
      d6:	9a 00 00 00 63 02 00 	lcall  $0x2,$0x63000000
      dd:	00 0a                	add    %cl,(%edx)
      df:	00 9e 08 00 00 00    	add    %bl,0x8(%esi)
	...
      f1:	00 a9 00 00 00 63    	add    %ch,0x63000000(%ecx)
      f7:	02 00                	add    (%eax),%al
      f9:	00 03                	add    %al,(%ebx)
      fb:	00 91 b4 7f 00 00    	add    %dl,0x7fb4(%ecx)
     101:	00 00                	add    %al,(%eax)
     103:	00 00                	add    %al,(%eax)
     105:	00 00                	add    %al,(%eax)
     107:	c0 00 00             	rolb   $0x0,(%eax)
     10a:	00 41 02             	add    %al,0x2(%ecx)
     10d:	00 00                	add    %al,(%eax)
     10f:	0a 00                	or     (%eax),%al
     111:	9e                   	sahf   
     112:	08 00                	or     %al,(%eax)
	...
     120:	00 00                	add    %al,(%eax)
     122:	00 cf                	add    %cl,%bh
     124:	00 00                	add    %al,(%eax)
     126:	00 41 02             	add    %al,0x2(%ecx)
     129:	00 00                	add    %al,(%eax)
     12b:	03 00                	add    (%eax),%eax
     12d:	91                   	xchg   %eax,%ecx
     12e:	a8 7f                	test   $0x7f,%al
	...
     138:	cf                   	iret   
     139:	00 00                	add    %al,(%eax)
     13b:	00 e8                	add    %ch,%al
     13d:	01 00                	add    %eax,(%eax)
     13f:	00 0a                	add    %cl,(%edx)
     141:	00 9e 08 00 00 00    	add    %bl,0x8(%esi)
     147:	00 00                	add    %al,(%eax)
     149:	00 00                	add    %al,(%eax)
     14b:	00 e8                	add    %ch,%al
     14d:	01 00                	add    %eax,(%eax)
     14f:	00 ed                	add    %ch,%ch
     151:	01 00                	add    %eax,(%eax)
     153:	00 01                	add    %al,(%ecx)
     155:	00 52 fe             	add    %dl,-0x2(%edx)
     158:	01 00                	add    %eax,(%eax)
     15a:	00 41 02             	add    %al,0x2(%ecx)
     15d:	00 00                	add    %al,(%eax)
     15f:	0a 00                	or     (%eax),%al
     161:	9e                   	sahf   
     162:	08 00                	or     %al,(%eax)
	...
     170:	00 00                	add    %al,(%eax)
     172:	00 f0                	add    %dh,%al
     174:	00 00                	add    %al,(%eax)
     176:	00 e8                	add    %ch,%al
     178:	01 00                	add    %eax,(%eax)
     17a:	00 03                	add    %al,(%ebx)
     17c:	00 91 b0 7f fe 01    	add    %dl,0x1fe7fb0(%ecx)
     182:	00 00                	add    %al,(%eax)
     184:	29 02                	sub    %eax,(%edx)
     186:	00 00                	add    %al,(%eax)
     188:	03 00                	add    (%eax),%eax
     18a:	91                   	xchg   %eax,%ecx
     18b:	b0 7f                	mov    $0x7f,%al
	...
     195:	f0 00 00             	lock add %al,(%eax)
     198:	00 bc 01 00 00 0a 00 	add    %bh,0xa0000(%ecx,%eax,1)
     19f:	9e                   	sahf   
     1a0:	08 00                	or     %al,(%eax)
     1a2:	00 00                	add    %al,(%eax)
     1a4:	00 00                	add    %al,(%eax)
     1a6:	00 00                	add    %al,(%eax)
     1a8:	00 bc 01 00 00 c1 01 	add    %bh,0x1c10000(%ecx,%eax,1)
     1af:	00 00                	add    %al,(%eax)
     1b1:	01 00                	add    %eax,(%eax)
     1b3:	52                   	push   %edx
     1b4:	fe 01                	incb   (%ecx)
     1b6:	00 00                	add    %al,(%eax)
     1b8:	29 02                	sub    %eax,(%edx)
     1ba:	00 00                	add    %al,(%eax)
     1bc:	0a 00                	or     (%eax),%al
     1be:	9e                   	sahf   
     1bf:	08 00                	or     %al,(%eax)
	...
     1cd:	00 00                	add    %al,(%eax)
     1cf:	00 11                	add    %dl,(%ecx)
     1d1:	01 00                	add    %eax,(%eax)
     1d3:	00 bc 01 00 00 02 00 	add    %bh,0x20000(%ecx,%eax,1)
     1da:	91                   	xchg   %eax,%ecx
     1db:	4c                   	dec    %esp
     1dc:	fe 01                	incb   (%ecx)
     1de:	00 00                	add    %al,(%eax)
     1e0:	13 02                	adc    (%edx),%eax
     1e2:	00 00                	add    %al,(%eax)
     1e4:	02 00                	add    (%eax),%al
     1e6:	91                   	xchg   %eax,%ecx
     1e7:	4c                   	dec    %esp
	...
     1f0:	11 01                	adc    %eax,(%ecx)
     1f2:	00 00                	add    %al,(%eax)
     1f4:	8e 01                	mov    (%ecx),%es
     1f6:	00 00                	add    %al,(%eax)
     1f8:	0a 00                	or     (%eax),%al
     1fa:	9e                   	sahf   
     1fb:	08 00                	or     %al,(%eax)
     1fd:	00 00                	add    %al,(%eax)
     1ff:	00 00                	add    %al,(%eax)
     201:	00 00                	add    %al,(%eax)
     203:	00 8e 01 00 00 93    	add    %cl,-0x6cffffff(%esi)
     209:	01 00                	add    %eax,(%eax)
     20b:	00 01                	add    %al,(%ecx)
     20d:	00 50 fe             	add    %dl,-0x2(%eax)
     210:	01 00                	add    %eax,(%eax)
     212:	00 13                	add    %dl,(%ebx)
     214:	02 00                	add    (%eax),%al
     216:	00 0a                	add    %cl,(%edx)
     218:	00 9e 08 00 00 00    	add    %bl,0x8(%esi)
	...
     22a:	00 38                	add    %bh,(%eax)
     22c:	01 00                	add    %eax,(%eax)
     22e:	00 8e 01 00 00 02    	add    %cl,0x2000001(%esi)
     234:	00 91 5c fe 01 00    	add    %dl,0x1fe5c(%ecx)
     23a:	00 08                	add    %cl,(%eax)
     23c:	02 00                	add    (%eax),%al
     23e:	00 01                	add    %al,(%ecx)
     240:	00 53 00             	add    %dl,0x0(%ebx)
     243:	00 00                	add    %al,(%eax)
     245:	00 00                	add    %al,(%eax)
     247:	00 00                	add    %al,(%eax)
     249:	00 38                	add    %bh,(%eax)
     24b:	01 00                	add    %eax,(%eax)
     24d:	00 6a 01             	add    %ch,0x1(%edx)
     250:	00 00                	add    %al,(%eax)
     252:	0a 00                	or     (%eax),%al
     254:	9e                   	sahf   
     255:	08 00                	or     %al,(%eax)
     257:	00 00                	add    %al,(%eax)
     259:	00 00                	add    %al,(%eax)
     25b:	00 00                	add    %al,(%eax)
     25d:	00 6a 01             	add    %ch,0x1(%edx)
     260:	00 00                	add    %al,(%eax)
     262:	6e                   	outsb  %ds:(%esi),(%dx)
     263:	01 00                	add    %eax,(%eax)
     265:	00 01                	add    %al,(%ecx)
     267:	00 50 fe             	add    %dl,-0x2(%eax)
     26a:	01 00                	add    %eax,(%eax)
     26c:	00 08                	add    %cl,(%eax)
     26e:	02 00                	add    (%eax),%al
     270:	00 0a                	add    %cl,(%edx)
     272:	00 9e 08 00 00 00    	add    %bl,0x8(%esi)
	...
     284:	00 f0                	add    %dh,%al
     286:	02 00                	add    (%eax),%al
     288:	00 f1                	add    %dh,%cl
     28a:	02 00                	add    (%eax),%al
     28c:	00 02                	add    %al,(%edx)
     28e:	00 74 04 f1          	add    %dh,-0xf(%esp,%eax,1)
     292:	02 00                	add    (%eax),%al
     294:	00 f3                	add    %dh,%bl
     296:	02 00                	add    (%eax),%al
     298:	00 02                	add    %al,(%edx)
     29a:	00 74 08 f3          	add    %dh,-0xd(%eax,%ecx,1)
     29e:	02 00                	add    (%eax),%al
     2a0:	00 3d 03 00 00 02    	add    %bh,0x2000003
     2a6:	00 75 08             	add    %dh,0x8(%ebp)
     2a9:	3d 03 00 00 3e       	cmp    $0x3e000003,%eax
     2ae:	03 00                	add    (%eax),%eax
     2b0:	00 02                	add    %al,(%edx)
     2b2:	00 74 08 3e          	add    %dh,0x3e(%eax,%ecx,1)
     2b6:	03 00                	add    (%eax),%eax
     2b8:	00 40 03             	add    %al,0x3(%eax)
     2bb:	00 00                	add    %al,(%eax)
     2bd:	02 00                	add    (%eax),%al
     2bf:	74 04                	je     2c5 <_init-0x8048137>
     2c1:	40                   	inc    %eax
     2c2:	03 00                	add    (%eax),%eax
     2c4:	00 67 0c             	add    %ah,0xc(%edi)
     2c7:	00 00                	add    %al,(%eax)
     2c9:	02 00                	add    (%eax),%al
     2cb:	75 08                	jne    2d5 <_init-0x8048127>
	...
     2d5:	f0 02 00             	lock add (%eax),%al
     2d8:	00 2a                	add    %ch,(%edx)
     2da:	03 00                	add    (%eax),%eax
     2dc:	00 0a                	add    %cl,(%edx)
     2de:	00 9e 08 00 00 00    	add    %bl,0x8(%esi)
     2e4:	00 00                	add    %al,(%eax)
     2e6:	00 00                	add    %al,(%eax)
     2e8:	00 2a                	add    %ch,(%edx)
     2ea:	03 00                	add    (%eax),%eax
     2ec:	00 35 03 00 00 06    	add    %dh,0x6000003
     2f2:	00 53 93             	add    %dl,-0x6d(%ebx)
     2f5:	04 56                	add    $0x56,%al
     2f7:	93                   	xchg   %eax,%ebx
     2f8:	04 3f                	add    $0x3f,%al
     2fa:	03 00                	add    (%eax),%eax
     2fc:	00 8b 03 00 00 0a    	add    %cl,0xa000003(%ebx)
     302:	00 9e 08 00 00 00    	add    %bl,0x8(%esi)
     308:	00 00                	add    %al,(%eax)
     30a:	00 00                	add    %al,(%eax)
     30c:	00 09                	add    %cl,(%ecx)
     30e:	04 00                	add    $0x0,%al
     310:	00 26                	add    %ah,(%esi)
     312:	04 00                	add    $0x0,%al
     314:	00 06                	add    %al,(%esi)
     316:	00 53 93             	add    %dl,-0x6d(%ebx)
     319:	04 56                	add    $0x56,%al
     31b:	93                   	xchg   %eax,%ebx
     31c:	04 db                	add    $0xdb,%al
     31e:	05 00 00 e5 05       	add    $0x5e50000,%eax
     323:	00 00                	add    %al,(%eax)
     325:	0a 00                	or     (%eax),%al
     327:	9e                   	sahf   
     328:	08 00                	or     %al,(%eax)
     32a:	00 00                	add    %al,(%eax)
     32c:	00 00                	add    %al,(%eax)
     32e:	00 00                	add    %al,(%eax)
     330:	00 e5                	add    %ah,%ch
     332:	05 00 00 ea 05       	add    $0x5ea0000,%eax
     337:	00 00                	add    %al,(%eax)
     339:	06                   	push   %es
     33a:	00 53 93             	add    %dl,-0x6d(%ebx)
     33d:	04 56                	add    $0x56,%al
     33f:	93                   	xchg   %eax,%ebx
     340:	04 00                	add    $0x0,%al
     342:	00 00                	add    %al,(%eax)
     344:	00 00                	add    %al,(%eax)
     346:	00 00                	add    %al,(%eax)
     348:	00 9d 03 00 00 cb    	add    %bl,-0x34fffffd(%ebp)
     34e:	03 00                	add    (%eax),%eax
     350:	00 01                	add    %al,(%ecx)
     352:	00 57 26             	add    %dl,0x26(%edi)
     355:	04 00                	add    $0x0,%al
     357:	00 f8                	add    %bh,%al
     359:	04 00                	add    $0x0,%al
     35b:	00 01                	add    %al,(%ecx)
     35d:	00 57 ea             	add    %dl,-0x16(%edi)
     360:	05 00 00 98 06       	add    $0x6980000,%eax
     365:	00 00                	add    %al,(%eax)
     367:	01 00                	add    %eax,(%eax)
     369:	57                   	push   %edi
     36a:	ba 08 00 00 6a       	mov    $0x6a000008,%edx
     36f:	09 00                	or     %eax,(%eax)
     371:	00 01                	add    %al,(%ecx)
     373:	00 57 14             	add    %dl,0x14(%edi)
     376:	0c 00                	or     $0x0,%al
     378:	00 31                	add    %dh,(%ecx)
     37a:	0c 00                	or     $0x0,%al
     37c:	00 01                	add    %al,(%ecx)
     37e:	00 57 00             	add    %dl,0x0(%edi)
     381:	00 00                	add    %al,(%eax)
     383:	00 00                	add    %al,(%eax)
     385:	00 00                	add    %al,(%eax)
     387:	00 9d 03 00 00 c0    	add    %bl,-0x3ffffffd(%ebp)
     38d:	03 00                	add    (%eax),%eax
     38f:	00 0a                	add    %cl,(%edx)
     391:	00 9e 08 00 00 00    	add    %bl,0x8(%esi)
     397:	00 00                	add    %al,(%eax)
     399:	00 00                	add    %al,(%eax)
     39b:	00 c0                	add    %al,%al
     39d:	03 00                	add    (%eax),%eax
     39f:	00 c8                	add    %cl,%al
     3a1:	03 00                	add    (%eax),%eax
     3a3:	00 06                	add    %al,(%esi)
     3a5:	00 53 93             	add    %dl,-0x6d(%ebx)
     3a8:	04 56                	add    $0x56,%al
     3aa:	93                   	xchg   %eax,%ebx
     3ab:	04 c8                	add    $0xc8,%al
     3ad:	03 00                	add    (%eax),%eax
     3af:	00 04 04             	add    %al,(%esp,%eax,1)
     3b2:	00 00                	add    %al,(%eax)
     3b4:	06                   	push   %es
     3b5:	00 53 93             	add    %dl,-0x6d(%ebx)
     3b8:	04 56                	add    $0x56,%al
     3ba:	93                   	xchg   %eax,%ebx
     3bb:	04 26                	add    $0x26,%al
     3bd:	04 00                	add    $0x0,%al
     3bf:	00 5a 04             	add    %bl,0x4(%edx)
     3c2:	00 00                	add    %al,(%eax)
     3c4:	0a 00                	or     (%eax),%al
     3c6:	9e                   	sahf   
     3c7:	08 00                	or     %al,(%eax)
     3c9:	00 00                	add    %al,(%eax)
     3cb:	00 00                	add    %al,(%eax)
     3cd:	00 00                	add    %al,(%eax)
     3cf:	00 db                	add    %bl,%bl
     3d1:	04 00                	add    $0x0,%al
     3d3:	00 db                	add    %bl,%bl
     3d5:	05 00 00 06 00       	add    $0x60000,%eax
     3da:	53                   	push   %ebx
     3db:	93                   	xchg   %eax,%ebx
     3dc:	04 56                	add    $0x56,%al
     3de:	93                   	xchg   %eax,%ebx
     3df:	04 98                	add    $0x98,%al
     3e1:	06                   	push   %es
     3e2:	00 00                	add    %al,(%eax)
     3e4:	ba 08 00 00 06       	mov    $0x6000008,%edx
     3e9:	00 53 93             	add    %dl,-0x6d(%ebx)
     3ec:	04 56                	add    $0x56,%al
     3ee:	93                   	xchg   %eax,%ebx
     3ef:	04 6a                	add    $0x6a,%al
     3f1:	09 00                	or     %eax,(%eax)
     3f3:	00 14 0c             	add    %dl,(%esp,%ecx,1)
     3f6:	00 00                	add    %al,(%eax)
     3f8:	06                   	push   %es
     3f9:	00 53 93             	add    %dl,-0x6d(%ebx)
     3fc:	04 56                	add    $0x56,%al
     3fe:	93                   	xchg   %eax,%ebx
     3ff:	04 14                	add    $0x14,%al
     401:	0c 00                	or     $0x0,%al
     403:	00 31                	add    %dh,(%ecx)
     405:	0c 00                	or     $0x0,%al
     407:	00 0a                	add    %cl,(%edx)
     409:	00 9e 08 00 00 00    	add    %bl,0x8(%esi)
     40f:	00 00                	add    %al,(%eax)
     411:	00 00                	add    %al,(%eax)
     413:	00 31                	add    %dh,(%ecx)
     415:	0c 00                	or     $0x0,%al
     417:	00 67 0c             	add    %ah,0xc(%edi)
     41a:	00 00                	add    %al,(%eax)
     41c:	06                   	push   %es
     41d:	00 53 93             	add    %dl,-0x6d(%ebx)
     420:	04 56                	add    $0x56,%al
     422:	93                   	xchg   %eax,%ebx
     423:	04 00                	add    $0x0,%al
     425:	00 00                	add    %al,(%eax)
     427:	00 00                	add    %al,(%eax)
     429:	00 00                	add    %al,(%eax)
     42b:	00 a3 04 00 00 c8    	add    %ah,-0x37fffffc(%ebx)
     431:	04 00                	add    $0x0,%al
     433:	00 01                	add    %al,(%ecx)
     435:	00 52 c8             	add    %dl,-0x38(%edx)
     438:	04 00                	add    $0x0,%al
     43a:	00 f8                	add    %bh,%al
     43c:	04 00                	add    $0x0,%al
     43e:	00 02                	add    %al,(%edx)
     440:	00 91 58 ea 05 00    	add    %dl,0x5ea58(%ecx)
     446:	00 f6                	add    %dh,%dh
     448:	05 00 00 01 00       	add    $0x10000,%eax
     44d:	52                   	push   %edx
     44e:	f6 05 00 00 98 06 00 	testb  $0x0,0x6980000
     455:	00 02                	add    %al,(%edx)
     457:	00 91 58 5c 09 00    	add    %dl,0x95c58(%ecx)
     45d:	00 63 09             	add    %ah,0x9(%ebx)
     460:	00 00                	add    %al,(%eax)
     462:	01 00                	add    %eax,(%eax)
     464:	52                   	push   %edx
     465:	63 09                	arpl   %cx,(%ecx)
     467:	00 00                	add    %al,(%eax)
     469:	6a 09                	push   $0x9
     46b:	00 00                	add    %al,(%eax)
     46d:	02 00                	add    (%eax),%al
     46f:	91                   	xchg   %eax,%ecx
     470:	58                   	pop    %eax
	...
     479:	a3 04 00 00 cd       	mov    %eax,0xcd000004
     47e:	04 00                	add    $0x0,%al
     480:	00 0a                	add    %cl,(%edx)
     482:	00 9e 08 00 00 00    	add    %bl,0x8(%esi)
     488:	00 00                	add    %al,(%eax)
     48a:	00 00                	add    %al,(%eax)
     48c:	00 cd                	add    %cl,%ch
     48e:	04 00                	add    $0x0,%al
     490:	00 d7                	add    %dl,%bh
     492:	04 00                	add    $0x0,%al
     494:	00 06                	add    %al,(%esi)
     496:	00 52 93             	add    %dl,-0x6d(%edx)
     499:	04 51                	add    $0x51,%al
     49b:	93                   	xchg   %eax,%ebx
     49c:	04 d7                	add    $0xd7,%al
     49e:	04 00                	add    $0x0,%al
     4a0:	00 f2                	add    %dh,%dl
     4a2:	04 00                	add    $0x0,%al
     4a4:	00 06                	add    %al,(%esi)
     4a6:	00 52 93             	add    %dl,-0x6d(%edx)
     4a9:	04 51                	add    $0x51,%al
     4ab:	93                   	xchg   %eax,%ebx
     4ac:	04 ea                	add    $0xea,%al
     4ae:	05 00 00 3a 06       	add    $0x63a0000,%eax
     4b3:	00 00                	add    %al,(%eax)
     4b5:	0a 00                	or     (%eax),%al
     4b7:	9e                   	sahf   
     4b8:	08 00                	or     %al,(%eax)
     4ba:	00 00                	add    %al,(%eax)
     4bc:	00 00                	add    %al,(%eax)
     4be:	00 00                	add    %al,(%eax)
     4c0:	00 76 06             	add    %dh,0x6(%esi)
     4c3:	00 00                	add    %al,(%eax)
     4c5:	8c 06                	mov    %es,(%esi)
     4c7:	00 00                	add    %al,(%eax)
     4c9:	06                   	push   %es
     4ca:	00 52 93             	add    %dl,-0x6d(%edx)
     4cd:	04 51                	add    $0x51,%al
     4cf:	93                   	xchg   %eax,%ebx
     4d0:	04 5c                	add    $0x5c,%al
     4d2:	09 00                	or     %eax,(%eax)
     4d4:	00 65 09             	add    %ah,0x9(%ebp)
     4d7:	00 00                	add    %al,(%eax)
     4d9:	0a 00                	or     (%eax),%al
     4db:	9e                   	sahf   
     4dc:	08 00                	or     %al,(%eax)
     4de:	00 00                	add    %al,(%eax)
     4e0:	00 00                	add    %al,(%eax)
     4e2:	00 00                	add    %al,(%eax)
     4e4:	00 65 09             	add    %ah,0x9(%ebp)
     4e7:	00 00                	add    %al,(%eax)
     4e9:	6a 09                	push   $0x9
     4eb:	00 00                	add    %al,(%eax)
     4ed:	06                   	push   %es
     4ee:	00 52 93             	add    %dl,-0x6d(%edx)
     4f1:	04 51                	add    $0x51,%al
     4f3:	93                   	xchg   %eax,%ebx
     4f4:	04 00                	add    $0x0,%al
     4f6:	00 00                	add    %al,(%eax)
     4f8:	00 00                	add    %al,(%eax)
     4fa:	00 00                	add    %al,(%eax)
     4fc:	00 5d 04             	add    %bl,0x4(%ebp)
     4ff:	00 00                	add    %al,(%eax)
     501:	88 04 00             	mov    %al,(%eax,%eax,1)
     504:	00 01                	add    %al,(%ecx)
     506:	00 51 ba             	add    %dl,-0x46(%ecx)
     509:	08 00                	or     %al,(%eax)
     50b:	00 eb                	add    %ch,%bl
     50d:	08 00                	or     %al,(%eax)
     50f:	00 01                	add    %al,(%ecx)
     511:	00 51 00             	add    %dl,0x0(%ecx)
     514:	00 00                	add    %al,(%eax)
     516:	00 00                	add    %al,(%eax)
     518:	00 00                	add    %al,(%eax)
     51a:	00 5d 04             	add    %bl,0x4(%ebp)
     51d:	00 00                	add    %al,(%eax)
     51f:	94                   	xchg   %eax,%esp
     520:	04 00                	add    $0x0,%al
     522:	00 0a                	add    %cl,(%edx)
     524:	00 9e 08 00 00 00    	add    %bl,0x8(%esi)
     52a:	00 00                	add    %al,(%eax)
     52c:	00 00                	add    %al,(%eax)
     52e:	00 94 04 00 00 9a 04 	add    %dl,0x49a0000(%esp,%eax,1)
     535:	00 00                	add    %al,(%eax)
     537:	06                   	push   %es
     538:	00 53 93             	add    %dl,-0x6d(%ebx)
     53b:	04 56                	add    $0x56,%al
     53d:	93                   	xchg   %eax,%ebx
     53e:	04 9a                	add    $0x9a,%al
     540:	04 00                	add    $0x0,%al
     542:	00 d9                	add    %bl,%cl
     544:	04 00                	add    $0x0,%al
     546:	00 06                	add    %al,(%esi)
     548:	00 53 93             	add    %dl,-0x6d(%ebx)
     54b:	04 56                	add    $0x56,%al
     54d:	93                   	xchg   %eax,%ebx
     54e:	04 ea                	add    $0xea,%al
     550:	05 00 00 98 06       	add    $0x6980000,%eax
     555:	00 00                	add    %al,(%eax)
     557:	06                   	push   %es
     558:	00 53 93             	add    %dl,-0x6d(%ebx)
     55b:	04 56                	add    $0x56,%al
     55d:	93                   	xchg   %eax,%ebx
     55e:	04 ba                	add    $0xba,%al
     560:	08 00                	or     %al,(%eax)
     562:	00 0f                	add    %cl,(%edi)
     564:	09 00                	or     %eax,(%eax)
     566:	00 0a                	add    %cl,(%edx)
     568:	00 9e 08 00 00 00    	add    %bl,0x8(%esi)
     56e:	00 00                	add    %al,(%eax)
     570:	00 00                	add    %al,(%eax)
     572:	00 4a 09             	add    %cl,0x9(%edx)
     575:	00 00                	add    %al,(%eax)
     577:	6a 09                	push   $0x9
     579:	00 00                	add    %al,(%eax)
     57b:	06                   	push   %es
     57c:	00 53 93             	add    %dl,-0x6d(%ebx)
     57f:	04 56                	add    $0x56,%al
     581:	93                   	xchg   %eax,%ebx
     582:	04 00                	add    $0x0,%al
     584:	00 00                	add    %al,(%eax)
     586:	00 00                	add    %al,(%eax)
     588:	00 00                	add    %al,(%eax)
     58a:	00 d0                	add    %dl,%al
     58c:	03 00                	add    (%eax),%eax
     58e:	00 26                	add    %ah,(%esi)
     590:	04 00                	add    $0x0,%al
     592:	00 01                	add    %al,(%ecx)
     594:	00 57 f8             	add    %dl,-0x8(%edi)
     597:	04 00                	add    $0x0,%al
     599:	00 fa                	add    %bh,%dl
     59b:	04 00                	add    $0x0,%al
     59d:	00 01                	add    %al,(%ecx)
     59f:	00 52 fa             	add    %dl,-0x6(%edx)
     5a2:	04 00                	add    $0x0,%al
     5a4:	00 db                	add    %bl,%bl
     5a6:	05 00 00 01 00       	add    $0x10000,%eax
     5ab:	57                   	push   %edi
     5ac:	98                   	cwtl   
     5ad:	06                   	push   %es
     5ae:	00 00                	add    %al,(%eax)
     5b0:	ba 08 00 00 01       	mov    $0x1000008,%edx
     5b5:	00 57 6a             	add    %dl,0x6a(%edi)
     5b8:	09 00                	or     %eax,(%eax)
     5ba:	00 14 0c             	add    %dl,(%esp,%ecx,1)
     5bd:	00 00                	add    %al,(%eax)
     5bf:	01 00                	add    %eax,(%eax)
     5c1:	57                   	push   %edi
     5c2:	31 0c 00             	xor    %ecx,(%eax,%eax,1)
     5c5:	00 67 0c             	add    %ah,0xc(%edi)
     5c8:	00 00                	add    %al,(%eax)
     5ca:	01 00                	add    %eax,(%eax)
     5cc:	57                   	push   %edi
	...
     5d5:	d0 03                	rolb   (%ebx)
     5d7:	00 00                	add    %al,(%eax)
     5d9:	f8                   	clc    
     5da:	03 00                	add    (%eax),%eax
     5dc:	00 0a                	add    %cl,(%edx)
     5de:	00 9e 08 00 00 00    	add    %bl,0x8(%esi)
     5e4:	00 00                	add    %al,(%eax)
     5e6:	00 00                	add    %al,(%eax)
     5e8:	00 f8                	add    %bh,%al
     5ea:	03 00                	add    (%eax),%eax
     5ec:	00 02                	add    %al,(%edx)
     5ee:	04 00                	add    $0x0,%al
     5f0:	00 06                	add    %al,(%esi)
     5f2:	00 52 93             	add    %dl,-0x6d(%edx)
     5f5:	04 51                	add    $0x51,%al
     5f7:	93                   	xchg   %eax,%ebx
     5f8:	04 02                	add    $0x2,%al
     5fa:	04 00                	add    $0x0,%al
     5fc:	00 07                	add    %al,(%edi)
     5fe:	04 00                	add    $0x0,%al
     600:	00 06                	add    %al,(%esi)
     602:	00 52 93             	add    %dl,-0x6d(%edx)
     605:	04 51                	add    $0x51,%al
     607:	93                   	xchg   %eax,%ebx
     608:	04 f8                	add    $0xf8,%al
     60a:	04 00                	add    $0x0,%al
     60c:	00 2a                	add    %ch,(%edx)
     60e:	05 00 00 0a 00       	add    $0xa0000,%eax
     613:	9e                   	sahf   
     614:	08 00                	or     %al,(%eax)
     616:	00 00                	add    %al,(%eax)
     618:	00 00                	add    %al,(%eax)
     61a:	00 00                	add    %al,(%eax)
     61c:	00 b2 05 00 00 cf    	add    %dh,-0x30fffffb(%edx)
     622:	05 00 00 06 00       	add    $0x60000,%eax
     627:	52                   	push   %edx
     628:	93                   	xchg   %eax,%ebx
     629:	04 51                	add    $0x51,%al
     62b:	93                   	xchg   %eax,%ebx
     62c:	04 31                	add    $0x31,%al
     62e:	0c 00                	or     $0x0,%al
     630:	00 4e 0c             	add    %cl,0xc(%esi)
     633:	00 00                	add    %al,(%eax)
     635:	0a 00                	or     (%eax),%al
     637:	9e                   	sahf   
     638:	08 00                	or     %al,(%eax)
	...
     646:	00 00                	add    %al,(%eax)
     648:	00 77 05             	add    %dh,0x5(%edi)
     64b:	00 00                	add    %al,(%eax)
     64d:	9d                   	popf   
     64e:	05 00 00 01 00       	add    $0x10000,%eax
     653:	52                   	push   %edx
     654:	9d                   	popf   
     655:	05 00 00 db 05       	add    $0x5db0000,%eax
     65a:	00 00                	add    %al,(%eax)
     65c:	02 00                	add    (%eax),%al
     65e:	91                   	xchg   %eax,%ecx
     65f:	50                   	push   %eax
     660:	98                   	cwtl   
     661:	06                   	push   %es
     662:	00 00                	add    %al,(%eax)
     664:	9e                   	sahf   
     665:	06                   	push   %es
     666:	00 00                	add    %al,(%eax)
     668:	01 00                	add    %eax,(%eax)
     66a:	52                   	push   %edx
     66b:	9e                   	sahf   
     66c:	06                   	push   %es
     66d:	00 00                	add    %al,(%eax)
     66f:	a5                   	movsl  %ds:(%esi),%es:(%edi)
     670:	07                   	pop    %es
     671:	00 00                	add    %al,(%eax)
     673:	02 00                	add    (%eax),%al
     675:	91                   	xchg   %eax,%ecx
     676:	50                   	push   %eax
     677:	6a 09                	push   $0x9
     679:	00 00                	add    %al,(%eax)
     67b:	73 09                	jae    686 <_init-0x8047d76>
     67d:	00 00                	add    %al,(%eax)
     67f:	01 00                	add    %eax,(%eax)
     681:	52                   	push   %edx
     682:	73 09                	jae    68d <_init-0x8047d6f>
     684:	00 00                	add    %al,(%eax)
     686:	7a 09                	jp     691 <_init-0x8047d6b>
     688:	00 00                	add    %al,(%eax)
     68a:	02 00                	add    (%eax),%al
     68c:	91                   	xchg   %eax,%ecx
     68d:	50                   	push   %eax
     68e:	22 0a                	and    (%edx),%cl
     690:	00 00                	add    %al,(%eax)
     692:	6c                   	insb   (%dx),%es:(%edi)
     693:	0b 00                	or     (%eax),%eax
     695:	00 02                	add    %al,(%edx)
     697:	00 91 50 5d 0c 00    	add    %dl,0xc5d50(%ecx)
     69d:	00 67 0c             	add    %ah,0xc(%edi)
     6a0:	00 00                	add    %al,(%eax)
     6a2:	02 00                	add    (%eax),%al
     6a4:	91                   	xchg   %eax,%ecx
     6a5:	50                   	push   %eax
	...
     6ae:	77 05                	ja     6b5 <_init-0x8047d47>
     6b0:	00 00                	add    %al,(%eax)
     6b2:	a2 05 00 00 0a       	mov    %al,0xa000005
     6b7:	00 9e 08 00 00 00    	add    %bl,0x8(%esi)
     6bd:	00 00                	add    %al,(%eax)
     6bf:	00 00                	add    %al,(%eax)
     6c1:	00 a2 05 00 00 ac    	add    %ah,-0x53fffffb(%edx)
     6c7:	05 00 00 06 00       	add    $0x60000,%eax
     6cc:	52                   	push   %edx
     6cd:	93                   	xchg   %eax,%ebx
     6ce:	04 51                	add    $0x51,%al
     6d0:	93                   	xchg   %eax,%ebx
     6d1:	04 ac                	add    $0xac,%al
     6d3:	05 00 00 af 05       	add    $0x5af0000,%eax
     6d8:	00 00                	add    %al,(%eax)
     6da:	06                   	push   %es
     6db:	00 52 93             	add    %dl,-0x6d(%edx)
     6de:	04 51                	add    $0x51,%al
     6e0:	93                   	xchg   %eax,%ebx
     6e1:	04 98                	add    $0x98,%al
     6e3:	06                   	push   %es
     6e4:	00 00                	add    %al,(%eax)
     6e6:	e2 06                	loop   6ee <_init-0x8047d0e>
     6e8:	00 00                	add    %al,(%eax)
     6ea:	0a 00                	or     (%eax),%al
     6ec:	9e                   	sahf   
     6ed:	08 00                	or     %al,(%eax)
     6ef:	00 00                	add    %al,(%eax)
     6f1:	00 00                	add    %al,(%eax)
     6f3:	00 00                	add    %al,(%eax)
     6f5:	00 7c 07 00          	add    %bh,0x0(%edi,%eax,1)
     6f9:	00 99 07 00 00 06    	add    %bl,0x6000007(%ecx)
     6ff:	00 52 93             	add    %dl,-0x6d(%edx)
     702:	04 51                	add    $0x51,%al
     704:	93                   	xchg   %eax,%ebx
     705:	04 6a                	add    $0x6a,%al
     707:	09 00                	or     %eax,(%eax)
     709:	00 75 09             	add    %dh,0x9(%ebp)
     70c:	00 00                	add    %al,(%eax)
     70e:	0a 00                	or     (%eax),%al
     710:	9e                   	sahf   
     711:	08 00                	or     %al,(%eax)
     713:	00 00                	add    %al,(%eax)
     715:	00 00                	add    %al,(%eax)
     717:	00 00                	add    %al,(%eax)
     719:	00 75 09             	add    %dh,0x9(%ebp)
     71c:	00 00                	add    %al,(%eax)
     71e:	7a 09                	jp     729 <_init-0x8047cd3>
     720:	00 00                	add    %al,(%eax)
     722:	06                   	push   %es
     723:	00 52 93             	add    %dl,-0x6d(%edx)
     726:	04 51                	add    $0x51,%al
     728:	93                   	xchg   %eax,%ebx
     729:	04 00                	add    $0x0,%al
     72b:	00 00                	add    %al,(%eax)
     72d:	00 00                	add    %al,(%eax)
     72f:	00 00                	add    %al,(%eax)
     731:	00 3f                	add    %bh,(%edi)
     733:	07                   	pop    %es
     734:	00 00                	add    %al,(%eax)
     736:	64                   	fs
     737:	07                   	pop    %es
     738:	00 00                	add    %al,(%eax)
     73a:	01 00                	add    %eax,(%eax)
     73c:	52                   	push   %edx
     73d:	64                   	fs
     73e:	07                   	pop    %es
     73f:	00 00                	add    %al,(%eax)
     741:	a5                   	movsl  %ds:(%esi),%es:(%edi)
     742:	07                   	pop    %es
     743:	00 00                	add    %al,(%eax)
     745:	02 00                	add    (%eax),%al
     747:	91                   	xchg   %eax,%ecx
     748:	40                   	inc    %eax
     749:	ca 0a 00             	lret   $0xa
     74c:	00 d0                	add    %dl,%al
     74e:	0a 00                	or     (%eax),%al
     750:	00 01                	add    %al,(%ecx)
     752:	00 52 d0             	add    %dl,-0x30(%edx)
     755:	0a 00                	or     (%eax),%al
     757:	00 6c 0b 00          	add    %ch,0x0(%ebx,%ecx,1)
     75b:	00 02                	add    %al,(%edx)
     75d:	00 91 40 5d 0c 00    	add    %dl,0xc5d40(%ecx)
     763:	00 60 0c             	add    %ah,0xc(%eax)
     766:	00 00                	add    %al,(%eax)
     768:	01 00                	add    %eax,(%eax)
     76a:	52                   	push   %edx
     76b:	60                   	pusha  
     76c:	0c 00                	or     $0x0,%al
     76e:	00 67 0c             	add    %ah,0xc(%edi)
     771:	00 00                	add    %al,(%eax)
     773:	02 00                	add    (%eax),%al
     775:	91                   	xchg   %eax,%ecx
     776:	40                   	inc    %eax
	...
     77f:	3f                   	aas    
     780:	07                   	pop    %es
     781:	00 00                	add    %al,(%eax)
     783:	69 07 00 00 0a 00    	imul   $0xa0000,(%edi),%eax
     789:	9e                   	sahf   
     78a:	08 00                	or     %al,(%eax)
     78c:	00 00                	add    %al,(%eax)
     78e:	00 00                	add    %al,(%eax)
     790:	00 00                	add    %al,(%eax)
     792:	00 69 07             	add    %ch,0x7(%ecx)
     795:	00 00                	add    %al,(%eax)
     797:	73 07                	jae    7a0 <_init-0x8047c5c>
     799:	00 00                	add    %al,(%eax)
     79b:	06                   	push   %es
     79c:	00 52 93             	add    %dl,-0x6d(%edx)
     79f:	04 51                	add    $0x51,%al
     7a1:	93                   	xchg   %eax,%ebx
     7a2:	04 73                	add    $0x73,%al
     7a4:	07                   	pop    %es
     7a5:	00 00                	add    %al,(%eax)
     7a7:	79 07                	jns    7b0 <_init-0x8047c4c>
     7a9:	00 00                	add    %al,(%eax)
     7ab:	06                   	push   %es
     7ac:	00 52 93             	add    %dl,-0x6d(%edx)
     7af:	04 51                	add    $0x51,%al
     7b1:	93                   	xchg   %eax,%ebx
     7b2:	04 ca                	add    $0xca,%al
     7b4:	0a 00                	or     (%eax),%al
     7b6:	00 14 0b             	add    %dl,(%ebx,%ecx,1)
     7b9:	00 00                	add    %al,(%eax)
     7bb:	0a 00                	or     (%eax),%al
     7bd:	9e                   	sahf   
     7be:	08 00                	or     %al,(%eax)
     7c0:	00 00                	add    %al,(%eax)
     7c2:	00 00                	add    %al,(%eax)
     7c4:	00 00                	add    %al,(%eax)
     7c6:	00 4a 0b             	add    %cl,0xb(%edx)
     7c9:	00 00                	add    %al,(%eax)
     7cb:	60                   	pusha  
     7cc:	0b 00                	or     (%eax),%eax
     7ce:	00 06                	add    %al,(%esi)
     7d0:	00 52 93             	add    %dl,-0x6d(%edx)
     7d3:	04 51                	add    $0x51,%al
     7d5:	93                   	xchg   %eax,%ebx
     7d6:	04 5d                	add    $0x5d,%al
     7d8:	0c 00                	or     $0x0,%al
     7da:	00 62 0c             	add    %ah,0xc(%edx)
     7dd:	00 00                	add    %al,(%eax)
     7df:	0a 00                	or     (%eax),%al
     7e1:	9e                   	sahf   
     7e2:	08 00                	or     %al,(%eax)
     7e4:	00 00                	add    %al,(%eax)
     7e6:	00 00                	add    %al,(%eax)
     7e8:	00 00                	add    %al,(%eax)
     7ea:	00 62 0c             	add    %ah,0xc(%edx)
     7ed:	00 00                	add    %al,(%eax)
     7ef:	67 0c 00             	addr16 or $0x0,%al
     7f2:	00 06                	add    %al,(%esi)
     7f4:	00 52 93             	add    %dl,-0x6d(%edx)
     7f7:	04 51                	add    $0x51,%al
     7f9:	93                   	xchg   %eax,%ebx
     7fa:	04 00                	add    $0x0,%al
     7fc:	00 00                	add    %al,(%eax)
     7fe:	00 00                	add    %al,(%eax)
     800:	00 00                	add    %al,(%eax)
     802:	00 fc                	add    %bh,%ah
     804:	06                   	push   %es
     805:	00 00                	add    %al,(%eax)
     807:	21 07                	and    %eax,(%edi)
     809:	00 00                	add    %al,(%eax)
     80b:	01 00                	add    %eax,(%eax)
     80d:	51                   	push   %ecx
     80e:	22 0a                	and    (%edx),%cl
     810:	00 00                	add    %al,(%eax)
     812:	4c                   	dec    %esp
     813:	0a 00                	or     (%eax),%al
     815:	00 01                	add    %al,(%ecx)
     817:	00 51 00             	add    %dl,0x0(%ecx)
     81a:	00 00                	add    %al,(%eax)
     81c:	00 00                	add    %al,(%eax)
     81e:	00 00                	add    %al,(%eax)
     820:	00 fc                	add    %bh,%ah
     822:	06                   	push   %es
     823:	00 00                	add    %al,(%eax)
     825:	28 07                	sub    %al,(%edi)
     827:	00 00                	add    %al,(%eax)
     829:	0a 00                	or     (%eax),%al
     82b:	9e                   	sahf   
     82c:	08 00                	or     %al,(%eax)
     82e:	00 00                	add    %al,(%eax)
     830:	00 00                	add    %al,(%eax)
     832:	00 00                	add    %al,(%eax)
     834:	00 28                	add    %ch,(%eax)
     836:	07                   	pop    %es
     837:	00 00                	add    %al,(%eax)
     839:	33 07                	xor    (%edi),%eax
     83b:	00 00                	add    %al,(%eax)
     83d:	02 00                	add    (%eax),%al
     83f:	91                   	xchg   %eax,%ecx
     840:	48                   	dec    %eax
     841:	33 07                	xor    (%edi),%eax
     843:	00 00                	add    %al,(%eax)
     845:	a5                   	movsl  %ds:(%esi),%es:(%edi)
     846:	07                   	pop    %es
     847:	00 00                	add    %al,(%eax)
     849:	02 00                	add    (%eax),%al
     84b:	91                   	xchg   %eax,%ecx
     84c:	48                   	dec    %eax
     84d:	22 0a                	and    (%edx),%cl
     84f:	00 00                	add    %al,(%eax)
     851:	70 0a                	jo     85d <_init-0x8047b9f>
     853:	00 00                	add    %al,(%eax)
     855:	0a 00                	or     (%eax),%al
     857:	9e                   	sahf   
     858:	08 00                	or     %al,(%eax)
     85a:	00 00                	add    %al,(%eax)
     85c:	00 00                	add    %al,(%eax)
     85e:	00 00                	add    %al,(%eax)
     860:	00 b2 0a 00 00 6c    	add    %dh,0x6c00000a(%edx)
     866:	0b 00                	or     (%eax),%eax
     868:	00 02                	add    %al,(%edx)
     86a:	00 91 48 5d 0c 00    	add    %dl,0xc5d48(%ecx)
     870:	00 67 0c             	add    %ah,0xc(%edi)
     873:	00 00                	add    %al,(%eax)
     875:	02 00                	add    (%eax),%al
     877:	91                   	xchg   %eax,%ecx
     878:	48                   	dec    %eax
	...
     881:	33 05 00 00 5f 05    	xor    0x55f0000,%eax
     887:	00 00                	add    %al,(%eax)
     889:	01 00                	add    %eax,(%eax)
     88b:	52                   	push   %edx
     88c:	5f                   	pop    %edi
     88d:	05 00 00 db 05       	add    $0x5db0000,%eax
     892:	00 00                	add    %al,(%eax)
     894:	02 00                	add    (%eax),%al
     896:	91                   	xchg   %eax,%ecx
     897:	50                   	push   %eax
     898:	98                   	cwtl   
     899:	06                   	push   %es
     89a:	00 00                	add    %al,(%eax)
     89c:	ba 08 00 00 02       	mov    $0x2000008,%edx
     8a1:	00 91 50 6a 09 00    	add    %dl,0x96a50(%ecx)
     8a7:	00 14 0c             	add    %dl,(%esp,%ecx,1)
     8aa:	00 00                	add    %al,(%eax)
     8ac:	02 00                	add    (%eax),%al
     8ae:	91                   	xchg   %eax,%ecx
     8af:	50                   	push   %eax
     8b0:	4e                   	dec    %esi
     8b1:	0c 00                	or     $0x0,%al
     8b3:	00 67 0c             	add    %ah,0xc(%edi)
     8b6:	00 00                	add    %al,(%eax)
     8b8:	02 00                	add    (%eax),%al
     8ba:	91                   	xchg   %eax,%ecx
     8bb:	50                   	push   %eax
	...
     8c4:	33 05 00 00 63 05    	xor    0x5630000,%eax
     8ca:	00 00                	add    %al,(%eax)
     8cc:	0a 00                	or     (%eax),%al
     8ce:	9e                   	sahf   
     8cf:	08 00                	or     %al,(%eax)
     8d1:	00 00                	add    %al,(%eax)
     8d3:	00 00                	add    %al,(%eax)
     8d5:	00 00                	add    %al,(%eax)
     8d7:	00 63 05             	add    %ah,0x5(%ebx)
     8da:	00 00                	add    %al,(%eax)
     8dc:	6e                   	outsb  %ds:(%esi),(%dx)
     8dd:	05 00 00 02 00       	add    $0x20000,%eax
     8e2:	91                   	xchg   %eax,%ecx
     8e3:	58                   	pop    %eax
     8e4:	6e                   	outsb  %ds:(%esi),(%dx)
     8e5:	05 00 00 db 05       	add    $0x5db0000,%eax
     8ea:	00 00                	add    %al,(%eax)
     8ec:	02 00                	add    (%eax),%al
     8ee:	91                   	xchg   %eax,%ecx
     8ef:	58                   	pop    %eax
     8f0:	98                   	cwtl   
     8f1:	06                   	push   %es
     8f2:	00 00                	add    %al,(%eax)
     8f4:	a5                   	movsl  %ds:(%esi),%es:(%edi)
     8f5:	07                   	pop    %es
     8f6:	00 00                	add    %al,(%eax)
     8f8:	02 00                	add    (%eax),%al
     8fa:	91                   	xchg   %eax,%ecx
     8fb:	58                   	pop    %eax
     8fc:	a5                   	movsl  %ds:(%esi),%es:(%edi)
     8fd:	07                   	pop    %es
     8fe:	00 00                	add    %al,(%eax)
     900:	f2 07                	repnz pop %es
     902:	00 00                	add    %al,(%eax)
     904:	0a 00                	or     (%eax),%al
     906:	9e                   	sahf   
     907:	08 00                	or     %al,(%eax)
     909:	00 00                	add    %al,(%eax)
     90b:	00 00                	add    %al,(%eax)
     90d:	00 00                	add    %al,(%eax)
     90f:	00 9e 08 00 00 ba    	add    %bl,-0x45fffff8(%esi)
     915:	08 00                	or     %al,(%eax)
     917:	00 02                	add    %al,(%edx)
     919:	00 91 58 6a 09 00    	add    %dl,0x96a58(%ecx)
     91f:	00 7a 09             	add    %bh,0x9(%edx)
     922:	00 00                	add    %al,(%eax)
     924:	02 00                	add    (%eax),%al
     926:	91                   	xchg   %eax,%ecx
     927:	58                   	pop    %eax
     928:	22 0a                	and    (%edx),%cl
     92a:	00 00                	add    %al,(%eax)
     92c:	6c                   	insb   (%dx),%es:(%edi)
     92d:	0b 00                	or     (%eax),%eax
     92f:	00 02                	add    %al,(%edx)
     931:	00 91 58 5d 0c 00    	add    %dl,0xc5d58(%ecx)
     937:	00 67 0c             	add    %ah,0xc(%edi)
     93a:	00 00                	add    %al,(%eax)
     93c:	02 00                	add    (%eax),%al
     93e:	91                   	xchg   %eax,%ecx
     93f:	58                   	pop    %eax
	...
     948:	48                   	dec    %eax
     949:	08 00                	or     %al,(%eax)
     94b:	00 70 08             	add    %dh,0x8(%eax)
     94e:	00 00                	add    %al,(%eax)
     950:	01 00                	add    %eax,(%eax)
     952:	51                   	push   %ecx
     953:	6c                   	insb   (%dx),%es:(%edi)
     954:	0b 00                	or     (%eax),%eax
     956:	00 96 0b 00 00 01    	add    %dl,0x100000b(%esi)
     95c:	00 51 4e             	add    %dl,0x4e(%ecx)
     95f:	0c 00                	or     $0x0,%al
     961:	00 5d 0c             	add    %bl,0xc(%ebp)
     964:	00 00                	add    %al,(%eax)
     966:	01 00                	add    %eax,(%eax)
     968:	51                   	push   %ecx
	...
     971:	48                   	dec    %eax
     972:	08 00                	or     %al,(%eax)
     974:	00 77 08             	add    %dh,0x8(%edi)
     977:	00 00                	add    %al,(%eax)
     979:	0a 00                	or     (%eax),%al
     97b:	9e                   	sahf   
     97c:	08 00                	or     %al,(%eax)
     97e:	00 00                	add    %al,(%eax)
     980:	00 00                	add    %al,(%eax)
     982:	00 00                	add    %al,(%eax)
     984:	00 77 08             	add    %dh,0x8(%edi)
     987:	00 00                	add    %al,(%eax)
     989:	ba 08 00 00 03       	mov    $0x3000008,%edx
     98e:	00 91 b8 7f 6c 0b    	add    %dl,0xb6c7fb8(%ecx)
     994:	00 00                	add    %al,(%eax)
     996:	ba 0b 00 00 0a       	mov    $0xa00000b,%edx
     99b:	00 9e 08 00 00 00    	add    %bl,0x8(%esi)
     9a1:	00 00                	add    %al,(%eax)
     9a3:	00 00                	add    %al,(%eax)
     9a5:	00 fc                	add    %bh,%ah
     9a7:	0b 00                	or     (%eax),%eax
     9a9:	00 14 0c             	add    %dl,(%esp,%ecx,1)
     9ac:	00 00                	add    %al,(%eax)
     9ae:	03 00                	add    (%eax),%eax
     9b0:	91                   	xchg   %eax,%ecx
     9b1:	b8 7f 4e 0c 00       	mov    $0xc4e7f,%eax
     9b6:	00 58 0c             	add    %bl,0xc(%eax)
     9b9:	00 00                	add    %al,(%eax)
     9bb:	0a 00                	or     (%eax),%al
     9bd:	9e                   	sahf   
     9be:	08 00                	or     %al,(%eax)
     9c0:	00 00                	add    %al,(%eax)
     9c2:	00 00                	add    %al,(%eax)
     9c4:	00 00                	add    %al,(%eax)
     9c6:	00 58 0c             	add    %bl,0xc(%eax)
     9c9:	00 00                	add    %al,(%eax)
     9cb:	5d                   	pop    %ebp
     9cc:	0c 00                	or     $0x0,%al
     9ce:	00 03                	add    %al,(%ebx)
     9d0:	00 91 b8 7f 00 00    	add    %dl,0x7fb8(%ecx)
     9d6:	00 00                	add    %al,(%eax)
     9d8:	00 00                	add    %al,(%eax)
     9da:	00 00                	add    %al,(%eax)
     9dc:	0c 08                	or     $0x8,%al
     9de:	00 00                	add    %al,(%eax)
     9e0:	30 08                	xor    %cl,(%eax)
     9e2:	00 00                	add    %al,(%eax)
     9e4:	01 00                	add    %eax,(%eax)
     9e6:	51                   	push   %ecx
     9e7:	7a 09                	jp     9f2 <_init-0x8047a0a>
     9e9:	00 00                	add    %al,(%eax)
     9eb:	a4                   	movsb  %ds:(%esi),%es:(%edi)
     9ec:	09 00                	or     %eax,(%eax)
     9ee:	00 01                	add    %al,(%ecx)
     9f0:	00 51 00             	add    %dl,0x0(%ecx)
     9f3:	00 00                	add    %al,(%eax)
     9f5:	00 00                	add    %al,(%eax)
     9f7:	00 00                	add    %al,(%eax)
     9f9:	00 0c 08             	add    %cl,(%eax,%ecx,1)
     9fc:	00 00                	add    %al,(%eax)
     9fe:	37                   	aaa    
     9ff:	08 00                	or     %al,(%eax)
     a01:	00 0a                	add    %cl,(%edx)
     a03:	00 9e 08 00 00 00    	add    %bl,0x8(%esi)
     a09:	00 00                	add    %al,(%eax)
     a0b:	00 00                	add    %al,(%eax)
     a0d:	00 37                	add    %dh,(%edi)
     a0f:	08 00                	or     %al,(%eax)
     a11:	00 42 08             	add    %al,0x8(%edx)
     a14:	00 00                	add    %al,(%eax)
     a16:	02 00                	add    (%eax),%al
     a18:	91                   	xchg   %eax,%ecx
     a19:	58                   	pop    %eax
     a1a:	42                   	inc    %edx
     a1b:	08 00                	or     %al,(%eax)
     a1d:	00 ba 08 00 00 02    	add    %bh,0x2000008(%edx)
     a23:	00 91 58 7a 09 00    	add    %dl,0x97a58(%ecx)
     a29:	00 c8                	add    %cl,%al
     a2b:	09 00                	or     %eax,(%eax)
     a2d:	00 0a                	add    %cl,(%edx)
     a2f:	00 9e 08 00 00 00    	add    %bl,0x8(%esi)
     a35:	00 00                	add    %al,(%eax)
     a37:	00 00                	add    %al,(%eax)
     a39:	00 0a                	add    %cl,(%edx)
     a3b:	0a 00                	or     (%eax),%al
     a3d:	00 22                	add    %ah,(%edx)
     a3f:	0a 00                	or     (%eax),%al
     a41:	00 02                	add    %al,(%edx)
     a43:	00 91 58 6c 0b 00    	add    %dl,0xb6c58(%ecx)
     a49:	00 14 0c             	add    %dl,(%esp,%ecx,1)
     a4c:	00 00                	add    %al,(%eax)
     a4e:	02 00                	add    (%eax),%al
     a50:	91                   	xchg   %eax,%ecx
     a51:	58                   	pop    %eax
     a52:	4e                   	dec    %esi
     a53:	0c 00                	or     $0x0,%al
     a55:	00 5d 0c             	add    %bl,0xc(%ebp)
     a58:	00 00                	add    %al,(%eax)
     a5a:	02 00                	add    (%eax),%al
     a5c:	91                   	xchg   %eax,%ecx
     a5d:	58                   	pop    %eax
	...
     a66:	70 0c                	jo     a74 <_init-0x8047988>
     a68:	00 00                	add    %al,(%eax)
     a6a:	71 0c                	jno    a78 <_init-0x8047984>
     a6c:	00 00                	add    %al,(%eax)
     a6e:	02 00                	add    (%eax),%al
     a70:	74 04                	je     a76 <_init-0x8047986>
     a72:	71 0c                	jno    a80 <_init-0x804797c>
     a74:	00 00                	add    %al,(%eax)
     a76:	73 0c                	jae    a84 <_init-0x8047978>
     a78:	00 00                	add    %al,(%eax)
     a7a:	02 00                	add    (%eax),%al
     a7c:	74 08                	je     a86 <_init-0x8047976>
     a7e:	73 0c                	jae    a8c <_init-0x8047970>
     a80:	00 00                	add    %al,(%eax)
     a82:	c6                   	(bad)  
     a83:	0c 00                	or     $0x0,%al
     a85:	00 02                	add    %al,(%edx)
     a87:	00 75 08             	add    %dh,0x8(%ebp)
     a8a:	c6                   	(bad)  
     a8b:	0c 00                	or     $0x0,%al
     a8d:	00 c7                	add    %al,%bh
     a8f:	0c 00                	or     $0x0,%al
     a91:	00 02                	add    %al,(%edx)
     a93:	00 74 04 00          	add    %dh,0x0(%esp,%eax,1)
     a97:	00 00                	add    %al,(%eax)
     a99:	00 00                	add    %al,(%eax)
     a9b:	00 00                	add    %al,(%eax)
     a9d:	00 70 0c             	add    %dh,0xc(%eax)
     aa0:	00 00                	add    %al,(%eax)
     aa2:	9b                   	fwait
     aa3:	0c 00                	or     $0x0,%al
     aa5:	00 0a                	add    %cl,(%edx)
     aa7:	00 9e 08 00 00 00    	add    %bl,0x8(%esi)
     aad:	00 00                	add    %al,(%eax)
     aaf:	00 00                	add    %al,(%eax)
     ab1:	00 9b 0c 00 00 a5    	add    %bl,-0x5afffff4(%ebx)
     ab7:	0c 00                	or     $0x0,%al
     ab9:	00 06                	add    %al,(%esi)
     abb:	00 52 93             	add    %dl,-0x6d(%edx)
     abe:	04 51                	add    $0x51,%al
     ac0:	93                   	xchg   %eax,%ebx
     ac1:	04 b4                	add    $0xb4,%al
     ac3:	0c 00                	or     $0x0,%al
     ac5:	00 bc 0c 00 00 06 00 	add    %bh,0x60000(%esp,%ecx,1)
     acc:	52                   	push   %edx
     acd:	93                   	xchg   %eax,%ebx
     ace:	04 51                	add    $0x51,%al
     ad0:	93                   	xchg   %eax,%ebx
     ad1:	04 00                	add    $0x0,%al
     ad3:	00 00                	add    %al,(%eax)
     ad5:	00 00                	add    %al,(%eax)
     ad7:	00 00                	add    %al,(%eax)
     ad9:	00 70 0c             	add    %dh,0xc(%eax)
     adc:	00 00                	add    %al,(%eax)
     ade:	9b                   	fwait
     adf:	0c 00                	or     $0x0,%al
     ae1:	00 0a                	add    %cl,(%edx)
     ae3:	00 9e 08 01 00 00    	add    %bl,0x108(%esi)
     ae9:	00 00                	add    %al,(%eax)
     aeb:	00 00                	add    %al,(%eax)
     aed:	00 9b 0c 00 00 aa    	add    %bl,-0x55fffff4(%ebx)
     af3:	0c 00                	or     $0x0,%al
     af5:	00 06                	add    %al,(%esi)
     af7:	00 53 93             	add    %dl,-0x6d(%ebx)
     afa:	04 56                	add    $0x56,%al
     afc:	93                   	xchg   %eax,%ebx
     afd:	04 b4                	add    $0xb4,%al
     aff:	0c 00                	or     $0x0,%al
     b01:	00 bc 0c 00 00 06 00 	add    %bh,0x60000(%esp,%ecx,1)
     b08:	53                   	push   %ebx
     b09:	93                   	xchg   %eax,%ebx
     b0a:	04 56                	add    $0x56,%al
     b0c:	93                   	xchg   %eax,%ebx
     b0d:	04 00                	add    $0x0,%al
     b0f:	00 00                	add    %al,(%eax)
     b11:	00 00                	add    %al,(%eax)
     b13:	00 00                	add    %al,(%eax)
     b15:	00 70 0c             	add    %dh,0xc(%eax)
     b18:	00 00                	add    %al,(%eax)
     b1a:	9b                   	fwait
     b1b:	0c 00                	or     $0x0,%al
     b1d:	00 0a                	add    %cl,(%edx)
     b1f:	00 9e 08 00 00 00    	add    %bl,0x8(%esi)
     b25:	00 00                	add    %al,(%eax)
     b27:	00 00                	add    %al,(%eax)
     b29:	00 9b 0c 00 00 aa    	add    %bl,-0x55fffff4(%ebx)
     b2f:	0c 00                	or     $0x0,%al
     b31:	00 06                	add    %al,(%esi)
     b33:	00 53 93             	add    %dl,-0x6d(%ebx)
     b36:	04 56                	add    $0x56,%al
     b38:	93                   	xchg   %eax,%ebx
     b39:	04 b4                	add    $0xb4,%al
     b3b:	0c 00                	or     $0x0,%al
     b3d:	00 bc 0c 00 00 06 00 	add    %bh,0x60000(%esp,%ecx,1)
     b44:	53                   	push   %ebx
     b45:	93                   	xchg   %eax,%ebx
     b46:	04 56                	add    $0x56,%al
     b48:	93                   	xchg   %eax,%ebx
     b49:	04 bc                	add    $0xbc,%al
     b4b:	0c 00                	or     $0x0,%al
     b4d:	00 c4                	add    %al,%ah
     b4f:	0c 00                	or     $0x0,%al
     b51:	00 06                	add    %al,(%esi)
     b53:	00 53 93             	add    %dl,-0x6d(%ebx)
     b56:	04 56                	add    $0x56,%al
     b58:	93                   	xchg   %eax,%ebx
     b59:	04 00                	add    $0x0,%al
     b5b:	00 00                	add    %al,(%eax)
     b5d:	00 00                	add    %al,(%eax)
     b5f:	00 00                	add    %al,(%eax)
     b61:	00 7d 0c             	add    %bh,0xc(%ebp)
     b64:	00 00                	add    %al,(%eax)
     b66:	9b                   	fwait
     b67:	0c 00                	or     $0x0,%al
     b69:	00 02                	add    %al,(%edx)
     b6b:	00 91 00 9b 0c 00    	add    %dl,0xc9b00(%ecx)
     b71:	00 b7 0c 00 00 01    	add    %dh,0x100000c(%edi)
     b77:	00 50 b7             	add    %dl,-0x49(%eax)
     b7a:	0c 00                	or     $0x0,%al
     b7c:	00 bc 0c 00 00 01 00 	add    %bh,0x10000(%esp,%ecx,1)
     b83:	50                   	push   %eax
	...
     b8c:	d0 0c 00             	rorb   (%eax,%eax,1)
     b8f:	00 d1                	add    %dl,%cl
     b91:	0c 00                	or     $0x0,%al
     b93:	00 02                	add    %al,(%edx)
     b95:	00 74 04 d1          	add    %dh,-0x2f(%esp,%eax,1)
     b99:	0c 00                	or     $0x0,%al
     b9b:	00 d3                	add    %dl,%bl
     b9d:	0c 00                	or     $0x0,%al
     b9f:	00 02                	add    %al,(%edx)
     ba1:	00 74 08 d3          	add    %dh,-0x2d(%eax,%ecx,1)
     ba5:	0c 00                	or     $0x0,%al
     ba7:	00 ad 0d 00 00 02    	add    %ch,0x200000d(%ebp)
     bad:	00 75 08             	add    %dh,0x8(%ebp)
     bb0:	ad                   	lods   %ds:(%esi),%eax
     bb1:	0d 00 00 b0 0d       	or     $0xdb00000,%eax
     bb6:	00 00                	add    %al,(%eax)
     bb8:	02 00                	add    (%eax),%al
     bba:	74 04                	je     bc0 <_init-0x804783c>
     bbc:	b0 0d                	mov    $0xd,%al
     bbe:	00 00                	add    %al,(%eax)
     bc0:	ce                   	into   
     bc1:	0d 00 00 02 00       	or     $0x20000,%eax
     bc6:	75 08                	jne    bd0 <_init-0x804782c>
     bc8:	ce                   	into   
     bc9:	0d 00 00 d0 0d       	or     $0xdd00000,%eax
     bce:	00 00                	add    %al,(%eax)
     bd0:	02 00                	add    (%eax),%al
     bd2:	74 04                	je     bd8 <_init-0x8047824>
     bd4:	d0 0d 00 00 a4 0e    	rorb   0xea40000
     bda:	00 00                	add    %al,(%eax)
     bdc:	02 00                	add    (%eax),%al
     bde:	75 08                	jne    be8 <_init-0x8047814>
     be0:	a4                   	movsb  %ds:(%esi),%es:(%edi)
     be1:	0e                   	push   %cs
     be2:	00 00                	add    %al,(%eax)
     be4:	a8 0e                	test   $0xe,%al
     be6:	00 00                	add    %al,(%eax)
     be8:	02 00                	add    (%eax),%al
     bea:	74 04                	je     bf0 <_init-0x804780c>
     bec:	a8 0e                	test   $0xe,%al
     bee:	00 00                	add    %al,(%eax)
     bf0:	bc 0e 00 00 02       	mov    $0x200000e,%esp
     bf5:	00 75 08             	add    %dh,0x8(%ebp)
	...
     c00:	d0 0c 00             	rorb   (%eax,%eax,1)
     c03:	00 a6 0d 00 00 02    	add    %ah,0x200000d(%esi)
     c09:	00 30                	add    %dh,(%eax)
     c0b:	9f                   	lahf   
     c0c:	a6                   	cmpsb  %es:(%edi),%ds:(%esi)
     c0d:	0d 00 00 ae 0d       	or     $0xdae0000,%eax
     c12:	00 00                	add    %al,(%eax)
     c14:	01 00                	add    %eax,(%eax)
     c16:	50                   	push   %eax
     c17:	ae                   	scas   %es:(%edi),%al
     c18:	0d 00 00 c2 0d       	or     $0xdc20000,%eax
     c1d:	00 00                	add    %al,(%eax)
     c1f:	02 00                	add    (%eax),%al
     c21:	30 9f c2 0d 00 00    	xor    %bl,0xdc2(%edi)
     c27:	ca 0d 00             	lret   $0xd
     c2a:	00 03                	add    %al,(%ebx)
     c2c:	00 09                	add    %cl,(%ecx)
     c2e:	ff 9f ca 0d 00 00    	lcall  *0xdca(%edi)
     c34:	cf                   	iret   
     c35:	0d 00 00 01 00       	or     $0x10000,%eax
     c3a:	50                   	push   %eax
     c3b:	cf                   	iret   
     c3c:	0d 00 00 a0 0e       	or     $0xea00000,%eax
     c41:	00 00                	add    %al,(%eax)
     c43:	02 00                	add    (%eax),%al
     c45:	30 9f a0 0e 00 00    	xor    %bl,0xea0(%edi)
     c4b:	a5                   	movsl  %ds:(%esi),%es:(%edi)
     c4c:	0e                   	push   %cs
     c4d:	00 00                	add    %al,(%eax)
     c4f:	02 00                	add    (%eax),%al
     c51:	91                   	xchg   %eax,%ecx
     c52:	40                   	inc    %eax
     c53:	a5                   	movsl  %ds:(%esi),%es:(%edi)
     c54:	0e                   	push   %cs
     c55:	00 00                	add    %al,(%eax)
     c57:	bc 0e 00 00 02       	mov    $0x200000e,%esp
     c5c:	00 30                	add    %dh,(%eax)
     c5e:	9f                   	lahf   
	...
     c67:	ed                   	in     (%dx),%eax
     c68:	0c 00                	or     $0x0,%al
     c6a:	00 fb                	add    %bh,%bl
     c6c:	0c 00                	or     $0x0,%al
     c6e:	00 02                	add    %al,(%edx)
     c70:	00 30                	add    %dh,(%eax)
     c72:	9f                   	lahf   
     c73:	fb                   	sti    
     c74:	0c 00                	or     $0x0,%al
     c76:	00 fd                	add    %bh,%ch
     c78:	0c 00                	or     $0x0,%al
     c7a:	00 01                	add    %al,(%ecx)
     c7c:	00 50 fd             	add    %dl,-0x3(%eax)
     c7f:	0c 00                	or     $0x0,%al
     c81:	00 5f 0d             	add    %bl,0xd(%edi)
     c84:	00 00                	add    %al,(%eax)
     c86:	01 00                	add    %eax,(%eax)
     c88:	53                   	push   %ebx
     c89:	ae                   	scas   %es:(%edi),%al
     c8a:	0d 00 00 cb 0d       	or     $0xdcb0000,%eax
     c8f:	00 00                	add    %al,(%eax)
     c91:	01 00                	add    %eax,(%eax)
     c93:	53                   	push   %ebx
     c94:	cf                   	iret   
     c95:	0d 00 00 fb 0d       	or     $0xdfb0000,%eax
     c9a:	00 00                	add    %al,(%eax)
     c9c:	01 00                	add    %eax,(%eax)
     c9e:	53                   	push   %ebx
	...
     ca7:	ed                   	in     (%dx),%eax
     ca8:	0c 00                	or     $0x0,%al
     caa:	00 80 0d 00 00 0a    	add    %al,0xa00000d(%eax)
     cb0:	00 9e 08 00 00 00    	add    %bl,0x8(%esi)
     cb6:	00 00                	add    %al,(%eax)
     cb8:	00 00                	add    %al,(%eax)
     cba:	00 80 0d 00 00 a6    	add    %al,-0x59fffff3(%eax)
     cc0:	0d 00 00 06 00       	or     $0x60000,%eax
     cc5:	53                   	push   %ebx
     cc6:	93                   	xchg   %eax,%ebx
     cc7:	04 56                	add    $0x56,%al
     cc9:	93                   	xchg   %eax,%ebx
     cca:	04 ae                	add    $0xae,%al
     ccc:	0d 00 00 24 0e       	or     $0xe240000,%eax
     cd1:	00 00                	add    %al,(%eax)
     cd3:	0a 00                	or     (%eax),%al
     cd5:	9e                   	sahf   
     cd6:	08 00                	or     %al,(%eax)
     cd8:	00 00                	add    %al,(%eax)
     cda:	00 00                	add    %al,(%eax)
     cdc:	00 00                	add    %al,(%eax)
     cde:	00 24 0e             	add    %ah,(%esi,%ecx,1)
     ce1:	00 00                	add    %al,(%eax)
     ce3:	6d                   	insl   (%dx),%es:(%edi)
     ce4:	0e                   	push   %cs
     ce5:	00 00                	add    %al,(%eax)
     ce7:	06                   	push   %es
     ce8:	00 53 93             	add    %dl,-0x6d(%ebx)
     ceb:	04 56                	add    $0x56,%al
     ced:	93                   	xchg   %eax,%ebx
     cee:	04 a5                	add    $0xa5,%al
     cf0:	0e                   	push   %cs
     cf1:	00 00                	add    %al,(%eax)
     cf3:	b7 0e                	mov    $0xe,%bh
     cf5:	00 00                	add    %al,(%eax)
     cf7:	0a 00                	or     (%eax),%al
     cf9:	9e                   	sahf   
     cfa:	08 00                	or     %al,(%eax)
     cfc:	00 00                	add    %al,(%eax)
     cfe:	00 00                	add    %al,(%eax)
     d00:	00 00                	add    %al,(%eax)
     d02:	00 b7 0e 00 00 bc    	add    %dh,-0x43fffff2(%edi)
     d08:	0e                   	push   %cs
     d09:	00 00                	add    %al,(%eax)
     d0b:	06                   	push   %es
     d0c:	00 53 93             	add    %dl,-0x6d(%ebx)
     d0f:	04 56                	add    $0x56,%al
     d11:	93                   	xchg   %eax,%ebx
     d12:	04 00                	add    $0x0,%al
     d14:	00 00                	add    %al,(%eax)
     d16:	00 00                	add    %al,(%eax)
     d18:	00 00                	add    %al,(%eax)
     d1a:	00 ed                	add    %ch,%ch
     d1c:	0c 00                	or     $0x0,%al
     d1e:	00 24 0d 00 00 02 00 	add    %ah,0x20000(,%ecx,1)
     d25:	30 9f 24 0d 00 00    	xor    %bl,0xd24(%edi)
     d2b:	47                   	inc    %edi
     d2c:	0d 00 00 02 00       	or     $0x20000,%eax
     d31:	31 9f 47 0d 00 00    	xor    %ebx,0xd47(%edi)
     d37:	a6                   	cmpsb  %es:(%edi),%ds:(%esi)
     d38:	0d 00 00 01 00       	or     $0x10000,%eax
     d3d:	57                   	push   %edi
     d3e:	ae                   	scas   %es:(%edi),%al
     d3f:	0d 00 00 cf 0d       	or     $0xdcf0000,%eax
     d44:	00 00                	add    %al,(%eax)
     d46:	02 00                	add    (%eax),%al
     d48:	30 9f cf 0d 00 00    	xor    %bl,0xdcf(%edi)
     d4e:	a3 0e 00 00 01       	mov    %eax,0x100000e
     d53:	00 57 a5             	add    %dl,-0x5b(%edi)
     d56:	0e                   	push   %cs
     d57:	00 00                	add    %al,(%eax)
     d59:	bc 0e 00 00 01       	mov    $0x100000e,%esp
     d5e:	00 57 00             	add    %dl,0x0(%edi)
     d61:	00 00                	add    %al,(%eax)
     d63:	00 00                	add    %al,(%eax)
     d65:	00 00                	add    %al,(%eax)
     d67:	00 ed                	add    %ch,%ch
     d69:	0c 00                	or     $0x0,%al
     d6b:	00 3a                	add    %bh,(%edx)
     d6d:	0d 00 00 0a 00       	or     $0xa0000,%eax
     d72:	9e                   	sahf   
     d73:	08 00                	or     %al,(%eax)
     d75:	00 00                	add    %al,(%eax)
     d77:	00 00                	add    %al,(%eax)
     d79:	00 00                	add    %al,(%eax)
     d7b:	00 3a                	add    %bh,(%edx)
     d7d:	0d 00 00 47 0d       	or     $0xd470000,%eax
     d82:	00 00                	add    %al,(%eax)
     d84:	02 00                	add    (%eax),%al
     d86:	91                   	xchg   %eax,%ecx
     d87:	40                   	inc    %eax
     d88:	47                   	inc    %edi
     d89:	0d 00 00 a6 0d       	or     $0xda60000,%eax
     d8e:	00 00                	add    %al,(%eax)
     d90:	02 00                	add    (%eax),%al
     d92:	91                   	xchg   %eax,%ecx
     d93:	40                   	inc    %eax
     d94:	ae                   	scas   %es:(%edi),%al
     d95:	0d 00 00 cf 0d       	or     $0xdcf0000,%eax
     d9a:	00 00                	add    %al,(%eax)
     d9c:	0a 00                	or     (%eax),%al
     d9e:	9e                   	sahf   
     d9f:	08 00                	or     %al,(%eax)
     da1:	00 00                	add    %al,(%eax)
     da3:	00 00                	add    %al,(%eax)
     da5:	00 00                	add    %al,(%eax)
     da7:	00 cf                	add    %cl,%bh
     da9:	0d 00 00 bc 0e       	or     $0xebc0000,%eax
     dae:	00 00                	add    %al,(%eax)
     db0:	02 00                	add    (%eax),%al
     db2:	91                   	xchg   %eax,%ecx
     db3:	40                   	inc    %eax
	...
     dbc:	ed                   	in     (%dx),%eax
     dbd:	0c 00                	or     $0x0,%al
     dbf:	00 32                	add    %dh,(%edx)
     dc1:	0e                   	push   %cs
     dc2:	00 00                	add    %al,(%eax)
     dc4:	0a 00                	or     (%eax),%al
     dc6:	9e                   	sahf   
     dc7:	08 00                	or     %al,(%eax)
     dc9:	00 00                	add    %al,(%eax)
     dcb:	00 00                	add    %al,(%eax)
     dcd:	00 00                	add    %al,(%eax)
     dcf:	00 32                	add    %dh,(%edx)
     dd1:	0e                   	push   %cs
     dd2:	00 00                	add    %al,(%eax)
     dd4:	4b                   	dec    %ebx
     dd5:	0e                   	push   %cs
     dd6:	00 00                	add    %al,(%eax)
     dd8:	06                   	push   %es
     dd9:	00 50 93             	add    %dl,-0x6d(%eax)
     ddc:	04 52                	add    $0x52,%al
     dde:	93                   	xchg   %eax,%ebx
     ddf:	04 4c                	add    $0x4c,%al
     de1:	0e                   	push   %cs
     de2:	00 00                	add    %al,(%eax)
     de4:	66 0e                	pushw  %cs
     de6:	00 00                	add    %al,(%eax)
     de8:	0a 00                	or     (%eax),%al
     dea:	91                   	xchg   %eax,%ecx
     deb:	bc 7f 93 04 91       	mov    $0x9104937f,%esp
     df0:	b8 7f 93 04 a5       	mov    $0xa504937f,%eax
     df5:	0e                   	push   %cs
     df6:	00 00                	add    %al,(%eax)
     df8:	bc 0e 00 00 0a       	mov    $0xa00000e,%esp
     dfd:	00 9e 08 00 00 00    	add    %bl,0x8(%esi)
	...
     e0f:	00 ed                	add    %ch,%ch
     e11:	0c 00                	or     $0x0,%al
     e13:	00 87 0e 00 00 0a    	add    %al,0xa00000e(%edi)
     e19:	00 9e 08 00 00 00    	add    %bl,0x8(%esi)
     e1f:	00 00                	add    %al,(%eax)
     e21:	00 00                	add    %al,(%eax)
     e23:	00 87 0e 00 00 9a    	add    %al,-0x65fffff2(%edi)
     e29:	0e                   	push   %cs
     e2a:	00 00                	add    %al,(%eax)
     e2c:	06                   	push   %es
     e2d:	00 50 93             	add    %dl,-0x6d(%eax)
     e30:	04 52                	add    $0x52,%al
     e32:	93                   	xchg   %eax,%ebx
     e33:	04 a5                	add    $0xa5,%al
     e35:	0e                   	push   %cs
     e36:	00 00                	add    %al,(%eax)
     e38:	bc 0e 00 00 0a       	mov    $0xa00000e,%esp
     e3d:	00 9e 08 00 00 00    	add    %bl,0x8(%esi)
	...
     e4f:	00 e1                	add    %ah,%cl
     e51:	0d 00 00 2d 0e       	or     $0xe2d0000,%eax
     e56:	00 00                	add    %al,(%eax)
     e58:	02 00                	add    (%eax),%al
     e5a:	91                   	xchg   %eax,%ecx
     e5b:	5c                   	pop    %esp
	...
     e64:	e1 0d                	loope  e73 <_init-0x8047589>
     e66:	00 00                	add    %al,(%eax)
     e68:	02 0e                	add    (%esi),%cl
     e6a:	00 00                	add    %al,(%eax)
     e6c:	0a 00                	or     (%eax),%al
     e6e:	9e                   	sahf   
     e6f:	08 00                	or     %al,(%eax)
     e71:	00 00                	add    %al,(%eax)
     e73:	00 00                	add    %al,(%eax)
     e75:	00 00                	add    %al,(%eax)
     e77:	00 02                	add    %al,(%edx)
     e79:	0e                   	push   %cs
     e7a:	00 00                	add    %al,(%eax)
     e7c:	0d 0e 00 00 06       	or     $0x600000e,%eax
     e81:	00 50 93             	add    %dl,-0x6d(%eax)
     e84:	04 52                	add    $0x52,%al
     e86:	93                   	xchg   %eax,%ebx
     e87:	04 1c                	add    $0x1c,%al
     e89:	0e                   	push   %cs
     e8a:	00 00                	add    %al,(%eax)
     e8c:	2d 0e 00 00 06       	sub    $0x600000e,%eax
     e91:	00 50 93             	add    %dl,-0x6d(%eax)
     e94:	04 52                	add    $0x52,%al
     e96:	93                   	xchg   %eax,%ebx
     e97:	04 00                	add    $0x0,%al
     e99:	00 00                	add    %al,(%eax)
     e9b:	00 00                	add    %al,(%eax)
     e9d:	00 00                	add    %al,(%eax)
     e9f:	00 e1                	add    %ah,%cl
     ea1:	0d 00 00 02 0e       	or     $0xe020000,%eax
     ea6:	00 00                	add    %al,(%eax)
     ea8:	0a 00                	or     (%eax),%al
     eaa:	9e                   	sahf   
     eab:	08 01                	or     %al,(%ecx)
     ead:	00 00                	add    %al,(%eax)
     eaf:	00 00                	add    %al,(%eax)
     eb1:	00 00                	add    %al,(%eax)
     eb3:	00 02                	add    %al,(%edx)
     eb5:	0e                   	push   %cs
     eb6:	00 00                	add    %al,(%eax)
     eb8:	12 0e                	adc    (%esi),%cl
     eba:	00 00                	add    %al,(%eax)
     ebc:	06                   	push   %es
     ebd:	00 53 93             	add    %dl,-0x6d(%ebx)
     ec0:	04 56                	add    $0x56,%al
     ec2:	93                   	xchg   %eax,%ebx
     ec3:	04 1c                	add    $0x1c,%al
     ec5:	0e                   	push   %cs
     ec6:	00 00                	add    %al,(%eax)
     ec8:	2d 0e 00 00 06       	sub    $0x600000e,%eax
     ecd:	00 53 93             	add    %dl,-0x6d(%ebx)
     ed0:	04 56                	add    $0x56,%al
     ed2:	93                   	xchg   %eax,%ebx
     ed3:	04 00                	add    $0x0,%al
     ed5:	00 00                	add    %al,(%eax)
     ed7:	00 00                	add    %al,(%eax)
     ed9:	00 00                	add    %al,(%eax)
     edb:	00 e1                	add    %ah,%cl
     edd:	0d 00 00 02 0e       	or     $0xe020000,%eax
     ee2:	00 00                	add    %al,(%eax)
     ee4:	0a 00                	or     (%eax),%al
     ee6:	9e                   	sahf   
     ee7:	08 00                	or     %al,(%eax)
     ee9:	00 00                	add    %al,(%eax)
     eeb:	00 00                	add    %al,(%eax)
     eed:	00 00                	add    %al,(%eax)
     eef:	00 02                	add    %al,(%edx)
     ef1:	0e                   	push   %cs
     ef2:	00 00                	add    %al,(%eax)
     ef4:	12 0e                	adc    (%esi),%cl
     ef6:	00 00                	add    %al,(%eax)
     ef8:	06                   	push   %es
     ef9:	00 53 93             	add    %dl,-0x6d(%ebx)
     efc:	04 56                	add    $0x56,%al
     efe:	93                   	xchg   %eax,%ebx
     eff:	04 1c                	add    $0x1c,%al
     f01:	0e                   	push   %cs
     f02:	00 00                	add    %al,(%eax)
     f04:	2d 0e 00 00 06       	sub    $0x600000e,%eax
     f09:	00 53 93             	add    %dl,-0x6d(%ebx)
     f0c:	04 56                	add    $0x56,%al
     f0e:	93                   	xchg   %eax,%ebx
     f0f:	04 00                	add    $0x0,%al
     f11:	00 00                	add    %al,(%eax)
     f13:	00 00                	add    %al,(%eax)
     f15:	00 00                	add    %al,(%eax)
     f17:	00 e1                	add    %ah,%cl
     f19:	0d 00 00 02 0e       	or     $0xe020000,%eax
     f1e:	00 00                	add    %al,(%eax)
     f20:	02 00                	add    (%eax),%al
     f22:	91                   	xchg   %eax,%ecx
     f23:	5c                   	pop    %esp
     f24:	02 0e                	add    (%esi),%cl
     f26:	00 00                	add    %al,(%eax)
     f28:	1f                   	pop    %ds
     f29:	0e                   	push   %cs
     f2a:	00 00                	add    %al,(%eax)
     f2c:	01 00                	add    %eax,(%eax)
     f2e:	51                   	push   %ecx
     f2f:	1f                   	pop    %ds
     f30:	0e                   	push   %cs
     f31:	00 00                	add    %al,(%eax)
     f33:	2d 0e 00 00 01       	sub    $0x100000e,%eax
     f38:	00 51 00             	add    %dl,0x0(%ecx)
     f3b:	00 00                	add    %al,(%eax)
     f3d:	00 00                	add    %al,(%eax)
     f3f:	00 00                	add    %al,(%eax)
     f41:	00 c0                	add    %al,%al
     f43:	0e                   	push   %cs
     f44:	00 00                	add    %al,(%eax)
     f46:	c1 0e 00             	rorl   $0x0,(%esi)
     f49:	00 02                	add    %al,(%edx)
     f4b:	00 74 04 c1          	add    %dh,-0x3f(%esp,%eax,1)
     f4f:	0e                   	push   %cs
     f50:	00 00                	add    %al,(%eax)
     f52:	c3                   	ret    
     f53:	0e                   	push   %cs
     f54:	00 00                	add    %al,(%eax)
     f56:	02 00                	add    (%eax),%al
     f58:	74 08                	je     f62 <_init-0x804749a>
     f5a:	c3                   	ret    
     f5b:	0e                   	push   %cs
     f5c:	00 00                	add    %al,(%eax)
     f5e:	dc 0e                	fmull  (%esi)
     f60:	00 00                	add    %al,(%eax)
     f62:	02 00                	add    (%eax),%al
     f64:	75 08                	jne    f6e <_init-0x804748e>
     f66:	dc 0e                	fmull  (%esi)
     f68:	00 00                	add    %al,(%eax)
     f6a:	dd 0e                	fisttpll (%esi)
     f6c:	00 00                	add    %al,(%eax)
     f6e:	02 00                	add    (%eax),%al
     f70:	74 04                	je     f76 <_init-0x8047486>
	...
     f7a:	c0 0e 00             	rorb   $0x0,(%esi)
     f7d:	00 db                	add    %bl,%bl
     f7f:	0e                   	push   %cs
     f80:	00 00                	add    %al,(%eax)
     f82:	02 00                	add    (%eax),%al
     f84:	30 9f db 0e 00 00    	xor    %bl,0xedb(%edi)
     f8a:	dd 0e                	fisttpll (%esi)
     f8c:	00 00                	add    %al,(%eax)
     f8e:	01 00                	add    %eax,(%eax)
     f90:	50                   	push   %eax
	...
     f9d:	01 00                	add    %eax,(%eax)
     f9f:	00 00                	add    %al,(%eax)
     fa1:	02 00                	add    (%eax),%al
     fa3:	74 04                	je     fa9 <_init-0x8047453>
     fa5:	01 00                	add    %eax,(%eax)
     fa7:	00 00                	add    %al,(%eax)
     fa9:	03 00                	add    (%eax),%eax
     fab:	00 00                	add    %al,(%eax)
     fad:	02 00                	add    (%eax),%al
     faf:	74 08                	je     fb9 <_init-0x8047443>
     fb1:	03 00                	add    (%eax),%eax
     fb3:	00 00                	add    %al,(%eax)
     fb5:	2d 00 00 00 02       	sub    $0x2000000,%eax
     fba:	00 75 08             	add    %dh,0x8(%ebp)
     fbd:	2d 00 00 00 2e       	sub    $0x2e000000,%eax
     fc2:	00 00                	add    %al,(%eax)
     fc4:	00 02                	add    %al,(%edx)
     fc6:	00 74 08 2e          	add    %dh,0x2e(%eax,%ecx,1)
     fca:	00 00                	add    %al,(%eax)
     fcc:	00 30                	add    %dh,(%eax)
     fce:	00 00                	add    %al,(%eax)
     fd0:	00 02                	add    %al,(%edx)
     fd2:	00 74 04 30          	add    %dh,0x30(%esp,%eax,1)
     fd6:	00 00                	add    %al,(%eax)
     fd8:	00 b1 00 00 00 02    	add    %dh,0x2000000(%ecx)
     fde:	00 75 08             	add    %dh,0x8(%ebp)
	...
     fed:	20 00                	and    %al,(%eax)
     fef:	00 00                	add    %al,(%eax)
     ff1:	02 00                	add    (%eax),%al
     ff3:	30 9f 20 00 00 00    	xor    %bl,0x20(%edi)
     ff9:	28 00                	sub    %al,(%eax)
     ffb:	00 00                	add    %al,(%eax)
     ffd:	01 00                	add    %eax,(%eax)
     fff:	53                   	push   %ebx
    1000:	28 00                	sub    %al,(%eax)
    1002:	00 00                	add    %al,(%eax)
    1004:	2f                   	das    
    1005:	00 00                	add    %al,(%eax)
    1007:	00 01                	add    %al,(%ecx)
    1009:	00 50 2f             	add    %dl,0x2f(%eax)
    100c:	00 00                	add    %al,(%eax)
    100e:	00 a4 00 00 00 02 00 	add    %ah,0x20000(%eax,%eax,1)
    1015:	30 9f a4 00 00 00    	xor    %bl,0xa4(%edi)
    101b:	b1 00                	mov    $0x0,%cl
    101d:	00 00                	add    %al,(%eax)
    101f:	03 00                	add    (%eax),%eax
    1021:	09 ff                	or     %edi,%edi
    1023:	9f                   	lahf   
	...
    1030:	20 00                	and    %al,(%eax)
    1032:	00 00                	add    %al,(%eax)
    1034:	02 00                	add    (%eax),%al
    1036:	30 9f 2f 00 00 00    	xor    %bl,0x2f(%edi)
    103c:	3d 00 00 00 02       	cmp    $0x2000000,%eax
    1041:	00 30                	add    %dh,(%eax)
    1043:	9f                   	lahf   
    1044:	3d 00 00 00 55       	cmp    $0x55000000,%eax
    1049:	00 00                	add    %al,(%eax)
    104b:	00 08                	add    %cl,(%eax)
    104d:	00 91 00 06 33 24    	add    %dl,0x24330600(%ecx)
    1053:	23 01                	and    (%ecx),%eax
    1055:	9f                   	lahf   
    1056:	55                   	push   %ebp
    1057:	00 00                	add    %al,(%eax)
    1059:	00 b1 00 00 00 08    	add    %dh,0x8000000(%ecx)
    105f:	00 91 00 06 32 24    	add    %dl,0x24320600(%ecx)
    1065:	23 01                	and    (%ecx),%eax
    1067:	9f                   	lahf   
	...
    1074:	20 00                	and    %al,(%eax)
    1076:	00 00                	add    %al,(%eax)
    1078:	02 00                	add    (%eax),%al
    107a:	30 9f 2f 00 00 00    	xor    %bl,0x2f(%edi)
    1080:	80 00 00             	addb   $0x0,(%eax)
    1083:	00 02                	add    %al,(%edx)
    1085:	00 30                	add    %dh,(%eax)
    1087:	9f                   	lahf   
    1088:	99                   	cltd   
    1089:	00 00                	add    %al,(%eax)
    108b:	00 a4 00 00 00 01 00 	add    %ah,0x10000(%eax,%eax,1)
    1092:	51                   	push   %ecx
    1093:	a4                   	movsb  %ds:(%esi),%es:(%edi)
    1094:	00 00                	add    %al,(%eax)
    1096:	00 b1 00 00 00 02    	add    %dh,0x2000000(%ecx)
    109c:	00 30                	add    %dh,(%eax)
    109e:	9f                   	lahf   
	...
    10a7:	c0 00 00             	rolb   $0x0,(%eax)
    10aa:	00 c1                	add    %al,%cl
    10ac:	00 00                	add    %al,(%eax)
    10ae:	00 02                	add    %al,(%edx)
    10b0:	00 74 04 c1          	add    %dh,-0x3f(%esp,%eax,1)
    10b4:	00 00                	add    %al,(%eax)
    10b6:	00 c8                	add    %cl,%al
    10b8:	00 00                	add    %al,(%eax)
    10ba:	00 02                	add    %al,(%edx)
    10bc:	00 74 08 c8          	add    %dh,-0x38(%eax,%ecx,1)
    10c0:	00 00                	add    %al,(%eax)
    10c2:	00 d8                	add    %bl,%al
    10c4:	00 00                	add    %al,(%eax)
    10c6:	00 02                	add    %al,(%edx)
    10c8:	00 75 08             	add    %dh,0x8(%ebp)
    10cb:	d8 00                	fadds  (%eax)
    10cd:	00 00                	add    %al,(%eax)
    10cf:	e0 00                	loopne 10d1 <_init-0x804732b>
    10d1:	00 00                	add    %al,(%eax)
    10d3:	02 00                	add    (%eax),%al
    10d5:	74 04                	je     10db <_init-0x8047321>
    10d7:	e0 00                	loopne 10d9 <_init-0x8047323>
    10d9:	00 00                	add    %al,(%eax)
    10db:	16                   	push   %ss
    10dc:	01 00                	add    %eax,(%eax)
    10de:	00 02                	add    %al,(%edx)
    10e0:	00 75 08             	add    %dh,0x8(%ebp)
	...
    10eb:	c0 00 00             	rolb   $0x0,(%eax)
    10ee:	00 d3                	add    %dl,%bl
    10f0:	00 00                	add    %al,(%eax)
    10f2:	00 02                	add    %al,(%edx)
    10f4:	00 30                	add    %dh,(%eax)
    10f6:	9f                   	lahf   
    10f7:	d3 00                	roll   %cl,(%eax)
    10f9:	00 00                	add    %al,(%eax)
    10fb:	d9 00                	flds   (%eax)
    10fd:	00 00                	add    %al,(%eax)
    10ff:	01 00                	add    %eax,(%eax)
    1101:	50                   	push   %eax
    1102:	d9 00                	flds   (%eax)
    1104:	00 00                	add    %al,(%eax)
    1106:	16                   	push   %ss
    1107:	01 00                	add    %eax,(%eax)
    1109:	00 02                	add    %al,(%edx)
    110b:	00 30                	add    %dh,(%eax)
    110d:	9f                   	lahf   
	...
    1116:	20 01                	and    %al,(%ecx)
    1118:	00 00                	add    %al,(%eax)
    111a:	21 01                	and    %eax,(%ecx)
    111c:	00 00                	add    %al,(%eax)
    111e:	02 00                	add    (%eax),%al
    1120:	74 04                	je     1126 <_init-0x80472d6>
    1122:	21 01                	and    %eax,(%ecx)
    1124:	00 00                	add    %al,(%eax)
    1126:	23 01                	and    (%ecx),%eax
    1128:	00 00                	add    %al,(%eax)
    112a:	02 00                	add    (%eax),%al
    112c:	74 08                	je     1136 <_init-0x80472c6>
    112e:	23 01                	and    (%ecx),%eax
    1130:	00 00                	add    %al,(%eax)
    1132:	55                   	push   %ebp
    1133:	01 00                	add    %eax,(%eax)
    1135:	00 02                	add    %al,(%edx)
    1137:	00 75 08             	add    %dh,0x8(%ebp)
    113a:	55                   	push   %ebp
    113b:	01 00                	add    %eax,(%eax)
    113d:	00 56 01             	add    %dl,0x1(%esi)
    1140:	00 00                	add    %al,(%eax)
    1142:	02 00                	add    (%eax),%al
    1144:	74 08                	je     114e <_init-0x80472ae>
    1146:	56                   	push   %esi
    1147:	01 00                	add    %eax,(%eax)
    1149:	00 58 01             	add    %bl,0x1(%eax)
    114c:	00 00                	add    %al,(%eax)
    114e:	02 00                	add    (%eax),%al
    1150:	74 04                	je     1156 <_init-0x80472a6>
    1152:	58                   	pop    %eax
    1153:	01 00                	add    %eax,(%eax)
    1155:	00 aa 01 00 00 02    	add    %ch,0x2000001(%edx)
    115b:	00 75 08             	add    %dh,0x8(%ebp)
	...
    1166:	20 01                	and    %al,(%ecx)
    1168:	00 00                	add    %al,(%eax)
    116a:	48                   	dec    %eax
    116b:	01 00                	add    %eax,(%eax)
    116d:	00 02                	add    %al,(%edx)
    116f:	00 30                	add    %dh,(%eax)
    1171:	9f                   	lahf   
    1172:	48                   	dec    %eax
    1173:	01 00                	add    %eax,(%eax)
    1175:	00 57 01             	add    %dl,0x1(%edi)
    1178:	00 00                	add    %al,(%eax)
    117a:	01 00                	add    %eax,(%eax)
    117c:	50                   	push   %eax
    117d:	57                   	push   %edi
    117e:	01 00                	add    %eax,(%eax)
    1180:	00 aa 01 00 00 02    	add    %ch,0x2000001(%edx)
    1186:	00 30                	add    %dh,(%eax)
    1188:	9f                   	lahf   
	...
    1191:	b0 01                	mov    $0x1,%al
    1193:	00 00                	add    %al,(%eax)
    1195:	b1 01                	mov    $0x1,%cl
    1197:	00 00                	add    %al,(%eax)
    1199:	02 00                	add    (%eax),%al
    119b:	74 04                	je     11a1 <_init-0x804725b>
    119d:	b1 01                	mov    $0x1,%cl
    119f:	00 00                	add    %al,(%eax)
    11a1:	b3 01                	mov    $0x1,%bl
    11a3:	00 00                	add    %al,(%eax)
    11a5:	02 00                	add    (%eax),%al
    11a7:	74 08                	je     11b1 <_init-0x804724b>
    11a9:	b3 01                	mov    $0x1,%bl
    11ab:	00 00                	add    %al,(%eax)
    11ad:	0e                   	push   %cs
    11ae:	02 00                	add    (%eax),%al
    11b0:	00 02                	add    %al,(%edx)
    11b2:	00 75 08             	add    %dh,0x8(%ebp)
    11b5:	0e                   	push   %cs
    11b6:	02 00                	add    (%eax),%al
    11b8:	00 10                	add    %dl,(%eax)
    11ba:	02 00                	add    (%eax),%al
    11bc:	00 02                	add    %al,(%edx)
    11be:	00 74 04 10          	add    %dh,0x10(%esp,%eax,1)
    11c2:	02 00                	add    (%eax),%al
    11c4:	00 2f                	add    %ch,(%edi)
    11c6:	02 00                	add    (%eax),%al
    11c8:	00 02                	add    %al,(%edx)
    11ca:	00 75 08             	add    %dh,0x8(%ebp)
    11cd:	2f                   	das    
    11ce:	02 00                	add    (%eax),%al
    11d0:	00 30                	add    %dh,(%eax)
    11d2:	02 00                	add    (%eax),%al
    11d4:	00 02                	add    %al,(%edx)
    11d6:	00 74 04 30          	add    %dh,0x30(%esp,%eax,1)
    11da:	02 00                	add    (%eax),%al
    11dc:	00 34 02             	add    %dh,(%edx,%eax,1)
    11df:	00 00                	add    %al,(%eax)
    11e1:	02 00                	add    (%eax),%al
    11e3:	75 08                	jne    11ed <_init-0x804720f>
	...
    11ed:	b0 01                	mov    $0x1,%al
    11ef:	00 00                	add    %al,(%eax)
    11f1:	02 02                	add    (%edx),%al
    11f3:	00 00                	add    %al,(%eax)
    11f5:	0a 00                	or     (%eax),%al
    11f7:	9e                   	sahf   
    11f8:	08 00                	or     %al,(%eax)
    11fa:	00 00                	add    %al,(%eax)
    11fc:	00 00                	add    %al,(%eax)
    11fe:	00 00                	add    %al,(%eax)
    1200:	00 02                	add    %al,(%edx)
    1202:	02 00                	add    (%eax),%al
    1204:	00 0f                	add    %cl,(%edi)
    1206:	02 00                	add    (%eax),%al
    1208:	00 02                	add    %al,(%edx)
    120a:	00 91 68 0f 02 00    	add    %dl,0x20f68(%ecx)
    1210:	00 20                	add    %ah,(%eax)
    1212:	02 00                	add    (%eax),%al
    1214:	00 0a                	add    %cl,(%edx)
    1216:	00 9e 08 00 00 00    	add    %bl,0x8(%esi)
    121c:	00 00                	add    %al,(%eax)
    121e:	00 00                	add    %al,(%eax)
    1220:	00 20                	add    %ah,(%eax)
    1222:	02 00                	add    (%eax),%al
    1224:	00 30                	add    %dh,(%eax)
    1226:	02 00                	add    (%eax),%al
    1228:	00 02                	add    %al,(%edx)
    122a:	00 91 68 30 02 00    	add    %dl,0x23068(%ecx)
    1230:	00 34 02             	add    %dh,(%edx,%eax,1)
    1233:	00 00                	add    %al,(%eax)
    1235:	0a 00                	or     (%eax),%al
    1237:	9e                   	sahf   
    1238:	08 00                	or     %al,(%eax)
	...
    1246:	00 00                	add    %al,(%eax)
    1248:	00 b0 01 00 00 e5    	add    %dh,-0x1affffff(%eax)
    124e:	01 00                	add    %eax,(%eax)
    1250:	00 02                	add    %al,(%edx)
    1252:	00 30                	add    %dh,(%eax)
    1254:	9f                   	lahf   
    1255:	e5 01                	in     $0x1,%eax
    1257:	00 00                	add    %al,(%eax)
    1259:	ed                   	in     (%dx),%eax
    125a:	01 00                	add    %eax,(%eax)
    125c:	00 01                	add    %al,(%ecx)
    125e:	00 50 f0             	add    %dl,-0x10(%eax)
    1261:	01 00                	add    %eax,(%eax)
    1263:	00 f4                	add    %dh,%ah
    1265:	01 00                	add    %eax,(%eax)
    1267:	00 01                	add    %al,(%ecx)
    1269:	00 50 0f             	add    %dl,0xf(%eax)
    126c:	02 00                	add    (%eax),%al
    126e:	00 13                	add    %dl,(%ebx)
    1270:	02 00                	add    (%eax),%al
    1272:	00 01                	add    %al,(%ecx)
    1274:	00 50 30             	add    %dl,0x30(%eax)
    1277:	02 00                	add    (%eax),%al
    1279:	00 34 02             	add    %dh,(%edx,%eax,1)
    127c:	00 00                	add    %al,(%eax)
    127e:	02 00                	add    (%eax),%al
    1280:	30 9f 00 00 00 00    	xor    %bl,0x0(%edi)
	...
    128e:	01 00                	add    %eax,(%eax)
    1290:	00 00                	add    %al,(%eax)
    1292:	02 00                	add    (%eax),%al
    1294:	74 04                	je     129a <_init-0x8047162>
    1296:	01 00                	add    %eax,(%eax)
    1298:	00 00                	add    %al,(%eax)
    129a:	03 00                	add    (%eax),%eax
    129c:	00 00                	add    %al,(%eax)
    129e:	02 00                	add    (%eax),%al
    12a0:	74 08                	je     12aa <_init-0x8047152>
    12a2:	03 00                	add    (%eax),%eax
    12a4:	00 00                	add    %al,(%eax)
    12a6:	59                   	pop    %ecx
    12a7:	00 00                	add    %al,(%eax)
    12a9:	00 02                	add    %al,(%edx)
    12ab:	00 75 08             	add    %dh,0x8(%ebp)
    12ae:	59                   	pop    %ecx
    12af:	00 00                	add    %al,(%eax)
    12b1:	00 5a 00             	add    %bl,0x0(%edx)
    12b4:	00 00                	add    %al,(%eax)
    12b6:	02 00                	add    (%eax),%al
    12b8:	74 04                	je     12be <_init-0x804713e>
	...
    12c2:	17                   	pop    %ss
    12c3:	00 00                	add    %al,(%eax)
    12c5:	00 58 00             	add    %bl,0x0(%eax)
    12c8:	00 00                	add    %al,(%eax)
    12ca:	01 00                	add    %eax,(%eax)
    12cc:	53                   	push   %ebx
    12cd:	58                   	pop    %eax
    12ce:	00 00                	add    %al,(%eax)
    12d0:	00 5a 00             	add    %bl,0x0(%edx)
    12d3:	00 00                	add    %al,(%eax)
    12d5:	03 00                	add    (%eax),%eax
    12d7:	91                   	xchg   %eax,%ecx
    12d8:	04 9f                	add    $0x9f,%al
	...
    12e2:	17                   	pop    %ss
    12e3:	00 00                	add    %al,(%eax)
    12e5:	00 33                	add    %dh,(%ebx)
    12e7:	00 00                	add    %al,(%eax)
    12e9:	00 05 00 03 a4 b0    	add    %al,0xb0a40300
    12ef:	04 08                	add    $0x8,%al
	...
    12f9:	34 00                	xor    $0x0,%al
    12fb:	00 00                	add    %al,(%eax)
    12fd:	58                   	pop    %eax
    12fe:	00 00                	add    %al,(%eax)
    1300:	00 01                	add    %al,(%ecx)
    1302:	00 53 58             	add    %dl,0x58(%ebx)
    1305:	00 00                	add    %al,(%eax)
    1307:	00 5a 00             	add    %bl,0x0(%edx)
    130a:	00 00                	add    %al,(%eax)
    130c:	03 00                	add    (%eax),%eax
    130e:	91                   	xchg   %eax,%ecx
    130f:	04 9f                	add    $0x9f,%al
	...
    1319:	34 00                	xor    $0x0,%al
    131b:	00 00                	add    %al,(%eax)
    131d:	53                   	push   %ebx
    131e:	00 00                	add    %al,(%eax)
    1320:	00 05 00 03 a4 b0    	add    %al,0xb0a40300
    1326:	04 08                	add    $0x8,%al
	...
    1330:	60                   	pusha  
    1331:	00 00                	add    %al,(%eax)
    1333:	00 61 00             	add    %ah,0x0(%ecx)
    1336:	00 00                	add    %al,(%eax)
    1338:	02 00                	add    (%eax),%al
    133a:	74 04                	je     1340 <_init-0x80470bc>
    133c:	61                   	popa   
    133d:	00 00                	add    %al,(%eax)
    133f:	00 63 00             	add    %ah,0x0(%ebx)
    1342:	00 00                	add    %al,(%eax)
    1344:	02 00                	add    (%eax),%al
    1346:	74 08                	je     1350 <_init-0x80470ac>
    1348:	63 00                	arpl   %ax,(%eax)
    134a:	00 00                	add    %al,(%eax)
    134c:	b9 00 00 00 02       	mov    $0x2000000,%ecx
    1351:	00 75 08             	add    %dh,0x8(%ebp)
    1354:	b9 00 00 00 ba       	mov    $0xba000000,%ecx
    1359:	00 00                	add    %al,(%eax)
    135b:	00 02                	add    %al,(%edx)
    135d:	00 74 04 00          	add    %dh,0x0(%esp,%eax,1)
    1361:	00 00                	add    %al,(%eax)
    1363:	00 00                	add    %al,(%eax)
    1365:	00 00                	add    %al,(%eax)
    1367:	00 77 00             	add    %dh,0x0(%edi)
    136a:	00 00                	add    %al,(%eax)
    136c:	b8 00 00 00 01       	mov    $0x1000000,%eax
    1371:	00 53 b8             	add    %dl,-0x48(%ebx)
    1374:	00 00                	add    %al,(%eax)
    1376:	00 ba 00 00 00 03    	add    %bh,0x3000000(%edx)
    137c:	00 91 04 9f 00 00    	add    %dl,0x9f04(%ecx)
    1382:	00 00                	add    %al,(%eax)
    1384:	00 00                	add    %al,(%eax)
    1386:	00 00                	add    %al,(%eax)
    1388:	77 00                	ja     138a <_init-0x8047072>
    138a:	00 00                	add    %al,(%eax)
    138c:	93                   	xchg   %eax,%ebx
    138d:	00 00                	add    %al,(%eax)
    138f:	00 05 00 03 a4 b0    	add    %al,0xb0a40300
    1395:	04 08                	add    $0x8,%al
	...
    139f:	94                   	xchg   %eax,%esp
    13a0:	00 00                	add    %al,(%eax)
    13a2:	00 b8 00 00 00 01    	add    %bh,0x1000000(%eax)
    13a8:	00 53 b8             	add    %dl,-0x48(%ebx)
    13ab:	00 00                	add    %al,(%eax)
    13ad:	00 ba 00 00 00 03    	add    %bh,0x3000000(%edx)
    13b3:	00 91 04 9f 00 00    	add    %dl,0x9f04(%ecx)
    13b9:	00 00                	add    %al,(%eax)
    13bb:	00 00                	add    %al,(%eax)
    13bd:	00 00                	add    %al,(%eax)
    13bf:	94                   	xchg   %eax,%esp
    13c0:	00 00                	add    %al,(%eax)
    13c2:	00 b3 00 00 00 05    	add    %dh,0x5000000(%ebx)
    13c8:	00 03                	add    %al,(%ebx)
    13ca:	a4                   	movsb  %ds:(%esi),%es:(%edi)
    13cb:	b0 04                	mov    $0x4,%al
    13cd:	08 00                	or     %al,(%eax)
    13cf:	00 00                	add    %al,(%eax)
    13d1:	00 00                	add    %al,(%eax)
    13d3:	00 00                	add    %al,(%eax)
    13d5:	00 c0                	add    %al,%al
    13d7:	00 00                	add    %al,(%eax)
    13d9:	00 c1                	add    %al,%cl
    13db:	00 00                	add    %al,(%eax)
    13dd:	00 02                	add    %al,(%edx)
    13df:	00 74 04 c1          	add    %dh,-0x3f(%esp,%eax,1)
    13e3:	00 00                	add    %al,(%eax)
    13e5:	00 c3                	add    %al,%bl
    13e7:	00 00                	add    %al,(%eax)
    13e9:	00 02                	add    %al,(%edx)
    13eb:	00 74 08 c3          	add    %dh,-0x3d(%eax,%ecx,1)
    13ef:	00 00                	add    %al,(%eax)
    13f1:	00 19                	add    %bl,(%ecx)
    13f3:	01 00                	add    %eax,(%eax)
    13f5:	00 02                	add    %al,(%edx)
    13f7:	00 75 08             	add    %dh,0x8(%ebp)
    13fa:	19 01                	sbb    %eax,(%ecx)
    13fc:	00 00                	add    %al,(%eax)
    13fe:	1a 01                	sbb    (%ecx),%al
    1400:	00 00                	add    %al,(%eax)
    1402:	02 00                	add    (%eax),%al
    1404:	74 04                	je     140a <_init-0x8046ff2>
	...
    140e:	d7                   	xlat   %ds:(%ebx)
    140f:	00 00                	add    %al,(%eax)
    1411:	00 18                	add    %bl,(%eax)
    1413:	01 00                	add    %eax,(%eax)
    1415:	00 01                	add    %al,(%ecx)
    1417:	00 53 18             	add    %dl,0x18(%ebx)
    141a:	01 00                	add    %eax,(%eax)
    141c:	00 1a                	add    %bl,(%edx)
    141e:	01 00                	add    %eax,(%eax)
    1420:	00 03                	add    %al,(%ebx)
    1422:	00 91 04 9f 00 00    	add    %dl,0x9f04(%ecx)
    1428:	00 00                	add    %al,(%eax)
    142a:	00 00                	add    %al,(%eax)
    142c:	00 00                	add    %al,(%eax)
    142e:	d7                   	xlat   %ds:(%ebx)
    142f:	00 00                	add    %al,(%eax)
    1431:	00 f3                	add    %dh,%bl
    1433:	00 00                	add    %al,(%eax)
    1435:	00 05 00 03 a4 b0    	add    %al,0xb0a40300
    143b:	04 08                	add    $0x8,%al
	...
    1445:	f4                   	hlt    
    1446:	00 00                	add    %al,(%eax)
    1448:	00 18                	add    %bl,(%eax)
    144a:	01 00                	add    %eax,(%eax)
    144c:	00 01                	add    %al,(%ecx)
    144e:	00 53 18             	add    %dl,0x18(%ebx)
    1451:	01 00                	add    %eax,(%eax)
    1453:	00 1a                	add    %bl,(%edx)
    1455:	01 00                	add    %eax,(%eax)
    1457:	00 03                	add    %al,(%ebx)
    1459:	00 91 04 9f 00 00    	add    %dl,0x9f04(%ecx)
    145f:	00 00                	add    %al,(%eax)
    1461:	00 00                	add    %al,(%eax)
    1463:	00 00                	add    %al,(%eax)
    1465:	f4                   	hlt    
    1466:	00 00                	add    %al,(%eax)
    1468:	00 13                	add    %dl,(%ebx)
    146a:	01 00                	add    %eax,(%eax)
    146c:	00 05 00 03 a4 b0    	add    %al,0xb0a40300
    1472:	04 08                	add    $0x8,%al
	...
    1480:	01 00                	add    %eax,(%eax)
    1482:	00 00                	add    %al,(%eax)
    1484:	02 00                	add    (%eax),%al
    1486:	74 04                	je     148c <_init-0x8046f70>
    1488:	01 00                	add    %eax,(%eax)
    148a:	00 00                	add    %al,(%eax)
    148c:	03 00                	add    (%eax),%eax
    148e:	00 00                	add    %al,(%eax)
    1490:	02 00                	add    (%eax),%al
    1492:	74 08                	je     149c <_init-0x8046f60>
    1494:	03 00                	add    (%eax),%eax
    1496:	00 00                	add    %al,(%eax)
    1498:	b1 00                	mov    $0x0,%cl
    149a:	00 00                	add    %al,(%eax)
    149c:	02 00                	add    (%eax),%al
    149e:	75 08                	jne    14a8 <_init-0x8046f54>
    14a0:	b1 00                	mov    $0x0,%cl
    14a2:	00 00                	add    %al,(%eax)
    14a4:	b2 00                	mov    $0x0,%dl
    14a6:	00 00                	add    %al,(%eax)
    14a8:	02 00                	add    (%eax),%al
    14aa:	74 04                	je     14b0 <_init-0x8046f4c>
	...
    14b8:	28 00                	sub    %al,(%eax)
    14ba:	00 00                	add    %al,(%eax)
    14bc:	02 00                	add    (%eax),%al
    14be:	30 9f 28 00 00 00    	xor    %bl,0x28(%edi)
    14c4:	4c                   	dec    %esp
    14c5:	00 00                	add    %al,(%eax)
    14c7:	00 01                	add    %al,(%ecx)
    14c9:	00 53 4e             	add    %dl,0x4e(%ebx)
    14cc:	00 00                	add    %al,(%eax)
    14ce:	00 5b 00             	add    %bl,0x0(%ebx)
    14d1:	00 00                	add    %al,(%eax)
    14d3:	01 00                	add    %eax,(%eax)
    14d5:	53                   	push   %ebx
    14d6:	5b                   	pop    %ebx
    14d7:	00 00                	add    %al,(%eax)
    14d9:	00 70 00             	add    %dh,0x0(%eax)
    14dc:	00 00                	add    %al,(%eax)
    14de:	01 00                	add    %eax,(%eax)
    14e0:	53                   	push   %ebx
    14e1:	8b 00                	mov    (%eax),%eax
    14e3:	00 00                	add    %al,(%eax)
    14e5:	93                   	xchg   %eax,%ebx
    14e6:	00 00                	add    %al,(%eax)
    14e8:	00 01                	add    %al,(%ecx)
    14ea:	00 53 93             	add    %dl,-0x6d(%ebx)
    14ed:	00 00                	add    %al,(%eax)
    14ef:	00 9b 00 00 00 01    	add    %bl,0x1000000(%ebx)
    14f5:	00 53 9b             	add    %dl,-0x65(%ebx)
    14f8:	00 00                	add    %al,(%eax)
    14fa:	00 a8 00 00 00 01    	add    %ch,0x1000000(%eax)
    1500:	00 53 a8             	add    %dl,-0x58(%ebx)
    1503:	00 00                	add    %al,(%eax)
    1505:	00 ae 00 00 00 01    	add    %ch,0x1000000(%esi)
    150b:	00 53 ae             	add    %dl,-0x52(%ebx)
    150e:	00 00                	add    %al,(%eax)
    1510:	00 b2 00 00 00 01    	add    %dh,0x1000000(%edx)
    1516:	00 50 00             	add    %dl,0x0(%eax)
	...
    1521:	00 00                	add    %al,(%eax)
    1523:	00 28                	add    %ch,(%eax)
    1525:	00 00                	add    %al,(%eax)
    1527:	00 02                	add    %al,(%edx)
    1529:	00 30                	add    %dh,(%eax)
    152b:	9f                   	lahf   
    152c:	28 00                	sub    %al,(%eax)
    152e:	00 00                	add    %al,(%eax)
    1530:	8b 00                	mov    (%eax),%eax
    1532:	00 00                	add    %al,(%eax)
    1534:	02 00                	add    (%eax),%al
    1536:	91                   	xchg   %eax,%ecx
    1537:	5c                   	pop    %esp
    1538:	8b 00                	mov    (%eax),%eax
    153a:	00 00                	add    %al,(%eax)
    153c:	8d 00                	lea    (%eax),%eax
    153e:	00 00                	add    %al,(%eax)
    1540:	01 00                	add    %eax,(%eax)
    1542:	50                   	push   %eax
    1543:	8d 00                	lea    (%eax),%eax
    1545:	00 00                	add    %al,(%eax)
    1547:	a8 00                	test   $0x0,%al
    1549:	00 00                	add    %al,(%eax)
    154b:	02 00                	add    (%eax),%al
    154d:	91                   	xchg   %eax,%ecx
    154e:	5c                   	pop    %esp
	...
    155b:	28 00                	sub    %al,(%eax)
    155d:	00 00                	add    %al,(%eax)
    155f:	02 00                	add    (%eax),%al
    1561:	30 9f 3c 00 00 00    	xor    %bl,0x3c(%edi)
    1567:	44                   	inc    %esp
    1568:	00 00                	add    %al,(%eax)
    156a:	00 01                	add    %al,(%ecx)
    156c:	00 50 44             	add    %dl,0x44(%eax)
    156f:	00 00                	add    %al,(%eax)
    1571:	00 6d 00             	add    %ch,0x0(%ebp)
    1574:	00 00                	add    %al,(%eax)
    1576:	04 00                	add    $0x0,%al
    1578:	70 e3                	jo     155d <_init-0x8046e9f>
    157a:	00 9f 8d 00 00 00    	add    %bl,0x8d(%edi)
    1580:	9d                   	popf   
    1581:	00 00                	add    %al,(%eax)
    1583:	00 04 00             	add    %al,(%eax,%eax,1)
    1586:	70 e3                	jo     156b <_init-0x8046e91>
    1588:	00 9f 9d 00 00 00    	add    %bl,0x9d(%edi)
    158e:	a6                   	cmpsb  %es:(%edi),%ds:(%esi)
    158f:	00 00                	add    %al,(%eax)
    1591:	00 01                	add    %al,(%ecx)
    1593:	00 50 00             	add    %dl,0x0(%eax)
	...
    159e:	00 00                	add    %al,(%eax)
    15a0:	00 01                	add    %al,(%ecx)
    15a2:	00 00                	add    %al,(%eax)
    15a4:	00 02                	add    %al,(%edx)
    15a6:	00 74 04 01          	add    %dh,0x1(%esp,%eax,1)
    15aa:	00 00                	add    %al,(%eax)
    15ac:	00 03                	add    %al,(%ebx)
    15ae:	00 00                	add    %al,(%eax)
    15b0:	00 02                	add    %al,(%edx)
    15b2:	00 74 08 03          	add    %dh,0x3(%eax,%ecx,1)
    15b6:	00 00                	add    %al,(%eax)
    15b8:	00 34 00             	add    %dh,(%eax,%eax,1)
    15bb:	00 00                	add    %al,(%eax)
    15bd:	02 00                	add    (%eax),%al
    15bf:	75 08                	jne    15c9 <_init-0x8046e33>
    15c1:	34 00                	xor    $0x0,%al
    15c3:	00 00                	add    %al,(%eax)
    15c5:	35 00 00 00 02       	xor    $0x2000000,%eax
    15ca:	00 74 04 00          	add    %dh,0x0(%esp,%eax,1)
	...
    15d6:	00 00                	add    %al,(%eax)
    15d8:	00 33                	add    %dh,(%ebx)
    15da:	00 00                	add    %al,(%eax)
    15dc:	00 0a                	add    %cl,(%edx)
    15de:	00 9e 08 00 00 00    	add    %bl,0x8(%esi)
    15e4:	00 00                	add    %al,(%eax)
    15e6:	00 00                	add    %al,(%eax)
    15e8:	00 33                	add    %dh,(%ebx)
    15ea:	00 00                	add    %al,(%eax)
    15ec:	00 35 00 00 00 06    	add    %dh,0x6000000
    15f2:	00 50 93             	add    %dl,-0x6d(%eax)
    15f5:	04 52                	add    $0x52,%al
    15f7:	93                   	xchg   %eax,%ebx
    15f8:	04 00                	add    $0x0,%al
	...
    1602:	00 00                	add    %al,(%eax)
    1604:	00 1d 00 00 00 02    	add    %bl,0x2000000
    160a:	00 30                	add    %dh,(%eax)
    160c:	9f                   	lahf   
    160d:	1d 00 00 00 1f       	sbb    $0x1f000000,%eax
    1612:	00 00                	add    %al,(%eax)
    1614:	00 01                	add    %al,(%ecx)
    1616:	00 50 1f             	add    %dl,0x1f(%eax)
    1619:	00 00                	add    %al,(%eax)
    161b:	00 35 00 00 00 01    	add    %dh,0x1000000
    1621:	00 51 00             	add    %dl,0x0(%ecx)
    1624:	00 00                	add    %al,(%eax)
    1626:	00 00                	add    %al,(%eax)
    1628:	00 00                	add    %al,(%eax)
    162a:	00 40 00             	add    %al,0x0(%eax)
    162d:	00 00                	add    %al,(%eax)
    162f:	41                   	inc    %ecx
    1630:	00 00                	add    %al,(%eax)
    1632:	00 02                	add    %al,(%edx)
    1634:	00 74 04 41          	add    %dh,0x41(%esp,%eax,1)
    1638:	00 00                	add    %al,(%eax)
    163a:	00 43 00             	add    %al,0x0(%ebx)
    163d:	00 00                	add    %al,(%eax)
    163f:	02 00                	add    (%eax),%al
    1641:	74 08                	je     164b <_init-0x8046db1>
    1643:	43                   	inc    %ebx
    1644:	00 00                	add    %al,(%eax)
    1646:	00 7a 00             	add    %bh,0x0(%edx)
    1649:	00 00                	add    %al,(%eax)
    164b:	02 00                	add    (%eax),%al
    164d:	75 08                	jne    1657 <_init-0x8046da5>
    164f:	7a 00                	jp     1651 <_init-0x8046dab>
    1651:	00 00                	add    %al,(%eax)
    1653:	7b 00                	jnp    1655 <_init-0x8046da7>
    1655:	00 00                	add    %al,(%eax)
    1657:	02 00                	add    (%eax),%al
    1659:	74 08                	je     1663 <_init-0x8046d99>
    165b:	7b 00                	jnp    165d <_init-0x8046d9f>
    165d:	00 00                	add    %al,(%eax)
    165f:	80 00 00             	addb   $0x0,(%eax)
    1662:	00 02                	add    %al,(%edx)
    1664:	00 74 04 80          	add    %dh,-0x80(%esp,%eax,1)
    1668:	00 00                	add    %al,(%eax)
    166a:	00 93 00 00 00 02    	add    %dl,0x2000000(%ebx)
    1670:	00 75 08             	add    %dh,0x8(%ebp)
    1673:	93                   	xchg   %eax,%ebx
    1674:	00 00                	add    %al,(%eax)
    1676:	00 94 00 00 00 02 00 	add    %dl,0x20000(%eax,%eax,1)
    167d:	74 08                	je     1687 <_init-0x8046d75>
    167f:	94                   	xchg   %eax,%esp
    1680:	00 00                	add    %al,(%eax)
    1682:	00 98 00 00 00 02    	add    %bl,0x2000000(%eax)
    1688:	00 74 04 98          	add    %dh,-0x68(%esp,%eax,1)
    168c:	00 00                	add    %al,(%eax)
    168e:	00 b1 00 00 00 02    	add    %dh,0x2000000(%ecx)
    1694:	00 75 08             	add    %dh,0x8(%ebp)
    1697:	b1 00                	mov    $0x0,%cl
    1699:	00 00                	add    %al,(%eax)
    169b:	b2 00                	mov    $0x0,%dl
    169d:	00 00                	add    %al,(%eax)
    169f:	02 00                	add    (%eax),%al
    16a1:	74 08                	je     16ab <_init-0x8046d51>
    16a3:	b2 00                	mov    $0x0,%dl
    16a5:	00 00                	add    %al,(%eax)
    16a7:	b3 00                	mov    $0x0,%bl
    16a9:	00 00                	add    %al,(%eax)
    16ab:	02 00                	add    (%eax),%al
    16ad:	74 04                	je     16b3 <_init-0x8046d49>
    16af:	b3 00                	mov    $0x0,%bl
    16b1:	00 00                	add    %al,(%eax)
    16b3:	c2 00 00             	ret    $0x0
    16b6:	00 02                	add    %al,(%edx)
    16b8:	00 75 08             	add    %dh,0x8(%ebp)
	...
    16c3:	40                   	inc    %eax
    16c4:	00 00                	add    %al,(%eax)
    16c6:	00 74 00 00          	add    %dh,0x0(%eax,%eax,1)
    16ca:	00 0a                	add    %cl,(%edx)
    16cc:	00 9e 08 00 00 00    	add    %bl,0x8(%esi)
    16d2:	00 00                	add    %al,(%eax)
    16d4:	00 00                	add    %al,(%eax)
    16d6:	00 74 00 00          	add    %dh,0x0(%eax,%eax,1)
    16da:	00 7c 00 00          	add    %bh,0x0(%eax,%eax,1)
    16de:	00 06                	add    %al,(%esi)
    16e0:	00 50 93             	add    %dl,-0x6d(%eax)
    16e3:	04 52                	add    $0x52,%al
    16e5:	93                   	xchg   %eax,%ebx
    16e6:	04 7c                	add    $0x7c,%al
    16e8:	00 00                	add    %al,(%eax)
    16ea:	00 8a 00 00 00 0a    	add    %cl,0xa000000(%edx)
    16f0:	00 9e 08 00 00 00    	add    %bl,0x8(%esi)
    16f6:	00 00                	add    %al,(%eax)
    16f8:	00 00                	add    %al,(%eax)
    16fa:	00 8a 00 00 00 95    	add    %cl,-0x6b000000(%edx)
    1700:	00 00                	add    %al,(%eax)
    1702:	00 06                	add    %al,(%esi)
    1704:	00 50 93             	add    %dl,-0x6d(%eax)
    1707:	04 52                	add    $0x52,%al
    1709:	93                   	xchg   %eax,%ebx
    170a:	04 95                	add    $0x95,%al
    170c:	00 00                	add    %al,(%eax)
    170e:	00 a4 00 00 00 0a 00 	add    %ah,0xa0000(%eax,%eax,1)
    1715:	9e                   	sahf   
    1716:	08 00                	or     %al,(%eax)
    1718:	00 00                	add    %al,(%eax)
    171a:	00 00                	add    %al,(%eax)
    171c:	00 00                	add    %al,(%eax)
    171e:	00 a4 00 00 00 b3 00 	add    %ah,0xb30000(%eax,%eax,1)
    1725:	00 00                	add    %al,(%eax)
    1727:	06                   	push   %es
    1728:	00 50 93             	add    %dl,-0x6d(%eax)
    172b:	04 52                	add    $0x52,%al
    172d:	93                   	xchg   %eax,%ebx
    172e:	04 b3                	add    $0xb3,%al
    1730:	00 00                	add    %al,(%eax)
    1732:	00 c2                	add    %al,%dl
    1734:	00 00                	add    %al,(%eax)
    1736:	00 0a                	add    %cl,(%edx)
    1738:	00 9e 08 00 00 00    	add    %bl,0x8(%esi)
	...

Disassembly of section .debug_pubtypes:

00000000 <.debug_pubtypes>:
   0:	50                   	push   %eax
   1:	00 00                	add    %al,(%eax)
   3:	00 02                	add    %al,(%edx)
   5:	00 00                	add    %al,(%eax)
   7:	00 00                	add    %al,(%eax)
   9:	00 61 07             	add    %ah,0x7(%ecx)
   c:	00 00                	add    %al,(%eax)
   e:	21 00                	and    %eax,(%eax)
  10:	00 00                	add    %al,(%eax)
  12:	73 33                	jae    47 <_init-0x80483b5>
  14:	32 5f 74             	xor    0x74(%edi),%bl
  17:	00 33                	add    %dh,(%ebx)
  19:	00 00                	add    %al,(%eax)
  1b:	00 75 33             	add    %dh,0x33(%ebp)
  1e:	32 5f 74             	xor    0x74(%edi),%bl
  21:	00 4c 00 00          	add    %cl,0x0(%eax,%eax,1)
  25:	00 75 38             	add    %dh,0x38(%ebp)
  28:	5f                   	pop    %edi
  29:	74 00                	je     2b <_init-0x80483d1>
  2b:	73 00                	jae    2d <_init-0x80483cf>
  2d:	00 00                	add    %al,(%eax)
  2f:	75 36                	jne    67 <_init-0x8048395>
  31:	34 5f                	xor    $0x5f,%al
  33:	74 00                	je     35 <_init-0x80483c7>
  35:	85 00                	test   %eax,(%eax)
  37:	00 00                	add    %al,(%eax)
  39:	5f                   	pop    %edi
  3a:	6c                   	insb   (%dx),%es:(%edi)
  3b:	63 61 63             	arpl   %sp,0x63(%ecx)
  3e:	68 65 5f 73 00       	push   $0x735f65
  43:	e4 00                	in     $0x0,%al
  45:	00 00                	add    %al,(%eax)
  47:	6c                   	insb   (%dx),%es:(%edi)
  48:	63 61 63             	arpl   %sp,0x63(%ecx)
  4b:	68 65 5f 74 00       	push   $0x745f65
  50:	00 00                	add    %al,(%eax)
  52:	00 00                	add    %al,(%eax)
  54:	50                   	push   %eax
  55:	00 00                	add    %al,(%eax)
  57:	00 02                	add    %al,(%edx)
  59:	00 61 07             	add    %ah,0x7(%ecx)
  5c:	00 00                	add    %al,(%eax)
  5e:	66                   	data16
  5f:	02 00                	add    (%eax),%al
  61:	00 6e 00             	add    %ch,0x0(%esi)
  64:	00 00                	add    %al,(%eax)
  66:	73 33                	jae    9b <_init-0x8048361>
  68:	32 5f 74             	xor    0x74(%edi),%bl
  6b:	00 79 00             	add    %bh,0x0(%ecx)
  6e:	00 00                	add    %al,(%eax)
  70:	75 33                	jne    a5 <_init-0x8048357>
  72:	32 5f 74             	xor    0x74(%edi),%bl
  75:	00 84 00 00 00 75 38 	add    %al,0x38750000(%eax,%eax,1)
  7c:	5f                   	pop    %edi
  7d:	74 00                	je     7f <_init-0x804837d>
  7f:	8f 00                	popl   (%eax)
  81:	00 00                	add    %al,(%eax)
  83:	75 36                	jne    bb <_init-0x8048341>
  85:	34 5f                	xor    $0x5f,%al
  87:	74 00                	je     89 <_init-0x8048373>
  89:	9a 00 00 00 5f 6c 63 	lcall  $0x636c,$0x5f000000
  90:	61                   	popa   
  91:	63 68 65             	arpl   %bp,0x65(%eax)
  94:	5f                   	pop    %edi
  95:	73 00                	jae    97 <_init-0x8048365>
  97:	f9                   	stc    
  98:	00 00                	add    %al,(%eax)
  9a:	00 6c 63 61          	add    %ch,0x61(%ebx,%eiz,2)
  9e:	63 68 65             	arpl   %bp,0x65(%eax)
  a1:	5f                   	pop    %edi
  a2:	74 00                	je     a4 <_init-0x8048358>
  a4:	00 00                	add    %al,(%eax)
  a6:	00 00                	add    %al,(%eax)
  a8:	93                   	xchg   %eax,%ebx
  a9:	00 00                	add    %al,(%eax)
  ab:	00 02                	add    %al,(%edx)
  ad:	00 c7                	add    %al,%bh
  af:	09 00                	or     %eax,(%eax)
  b1:	00 2e                	add    %ch,(%esi)
  b3:	06                   	push   %es
  b4:	00 00                	add    %al,(%eax)
  b6:	21 00                	and    %eax,(%eax)
  b8:	00 00                	add    %al,(%eax)
  ba:	73 69                	jae    125 <_init-0x80482d7>
  bc:	7a 65                	jp     123 <_init-0x80482d9>
  be:	5f                   	pop    %edi
  bf:	74 00                	je     c1 <_init-0x804833b>
  c1:	6b 00 00             	imul   $0x0,(%eax),%eax
  c4:	00 5f 5f             	add    %bl,0x5f(%edi)
  c7:	71 75                	jno    13e <_init-0x80482be>
  c9:	61                   	popa   
  ca:	64                   	fs
  cb:	5f                   	pop    %edi
  cc:	74 00                	je     ce <_init-0x804832e>
  ce:	76 00                	jbe    d0 <_init-0x804832c>
  d0:	00 00                	add    %al,(%eax)
  d2:	5f                   	pop    %edi
  d3:	5f                   	pop    %edi
  d4:	6f                   	outsl  %ds:(%esi),(%dx)
  d5:	66 66 5f             	data32 pop %di
  d8:	74 00                	je     da <_init-0x8048322>
  da:	88 00                	mov    %al,(%eax)
  dc:	00 00                	add    %al,(%eax)
  de:	5f                   	pop    %edi
  df:	5f                   	pop    %edi
  e0:	6f                   	outsl  %ds:(%esi),(%dx)
  e1:	66                   	data16
  e2:	66                   	data16
  e3:	36                   	ss
  e4:	34 5f                	xor    $0x5f,%al
  e6:	74 00                	je     e8 <_init-0x8048314>
  e8:	a2 00 00 00 46       	mov    %al,0x46000000
  ed:	49                   	dec    %ecx
  ee:	4c                   	dec    %esp
  ef:	45                   	inc    %ebp
  f0:	00 6e 02             	add    %ch,0x2(%esi)
  f3:	00 00                	add    %al,(%eax)
  f5:	5f                   	pop    %edi
  f6:	5f                   	pop    %edi
  f7:	67 6e                	outsb  %ds:(%si),(%dx)
  f9:	75 63                	jne    15e <_init-0x804829e>
  fb:	5f                   	pop    %edi
  fc:	76 61                	jbe    15f <_init-0x804829d>
  fe:	5f                   	pop    %edi
  ff:	6c                   	insb   (%dx),%es:(%edi)
 100:	69 73 74 00 83 02 00 	imul   $0x28300,0x74(%ebx),%esi
 107:	00 5f 49             	add    %bl,0x49(%edi)
 10a:	4f                   	dec    %edi
 10b:	5f                   	pop    %edi
 10c:	6c                   	insb   (%dx),%es:(%edi)
 10d:	6f                   	outsl  %ds:(%esi),(%dx)
 10e:	63 6b 5f             	arpl   %bp,0x5f(%ebx)
 111:	74 00                	je     113 <_init-0x80482e9>
 113:	8a 02                	mov    (%edx),%al
 115:	00 00                	add    %al,(%eax)
 117:	5f                   	pop    %edi
 118:	49                   	dec    %ecx
 119:	4f                   	dec    %edi
 11a:	5f                   	pop    %edi
 11b:	6d                   	insl   (%dx),%es:(%edi)
 11c:	61                   	popa   
 11d:	72 6b                	jb     18a <_init-0x8048272>
 11f:	65                   	gs
 120:	72 00                	jb     122 <_init-0x80482da>
 122:	ad                   	lods   %ds:(%esi),%eax
 123:	00 00                	add    %al,(%eax)
 125:	00 5f 49             	add    %bl,0x49(%edi)
 128:	4f                   	dec    %edi
 129:	5f                   	pop    %edi
 12a:	46                   	inc    %esi
 12b:	49                   	dec    %ecx
 12c:	4c                   	dec    %esp
 12d:	45                   	inc    %ebp
 12e:	00 fe                	add    %bh,%dh
 130:	02 00                	add    (%eax),%al
 132:	00 76 61             	add    %dh,0x61(%esi)
 135:	5f                   	pop    %edi
 136:	6c                   	insb   (%dx),%es:(%edi)
 137:	69 73 74 00 00 00 00 	imul   $0x0,0x74(%ebx),%esi
 13e:	00 22                	add    %ah,(%edx)
 140:	00 00                	add    %al,(%eax)
 142:	00 02                	add    %al,(%edx)
 144:	00 f5                	add    %dh,%ch
 146:	0f 00 00             	sldt   (%eax)
 149:	26 01 00             	add    %eax,%es:(%eax)
 14c:	00 74 00 00          	add    %dh,0x0(%eax,%eax,1)
 150:	00 73 33             	add    %dh,0x33(%ebx)
 153:	32 5f 74             	xor    0x74(%edi),%bl
 156:	00 7f 00             	add    %bh,0x0(%edi)
 159:	00 00                	add    %al,(%eax)
 15b:	75 33                	jne    190 <_init-0x804826c>
 15d:	32 5f 74             	xor    0x74(%edi),%bl
 160:	00 00                	add    %al,(%eax)
 162:	00 00                	add    %al,(%eax)
 164:	00 4d 00             	add    %cl,0x0(%ebp)
 167:	00 00                	add    %al,(%eax)
 169:	02 00                	add    (%eax),%al
 16b:	1b 11                	sbb    (%ecx),%edx
 16d:	00 00                	add    %al,(%eax)
 16f:	53                   	push   %ebx
 170:	01 00                	add    %eax,(%eax)
 172:	00 67 00             	add    %ah,0x0(%edi)
 175:	00 00                	add    %al,(%eax)
 177:	5f                   	pop    %edi
 178:	5f                   	pop    %edi
 179:	74 69                	je     1e4 <_init-0x8048218>
 17b:	6d                   	insl   (%dx),%es:(%edi)
 17c:	65                   	gs
 17d:	5f                   	pop    %edi
 17e:	74 00                	je     180 <_init-0x804827c>
 180:	72 00                	jb     182 <_init-0x804827a>
 182:	00 00                	add    %al,(%eax)
 184:	5f                   	pop    %edi
 185:	5f                   	pop    %edi
 186:	73 75                	jae    1fd <_init-0x80481ff>
 188:	73 65                	jae    1ef <_init-0x804820d>
 18a:	63 6f 6e             	arpl   %bp,0x6e(%edi)
 18d:	64                   	fs
 18e:	73 5f                	jae    1ef <_init-0x804820d>
 190:	74 00                	je     192 <_init-0x804826a>
 192:	84 00                	test   %al,(%eax)
 194:	00 00                	add    %al,(%eax)
 196:	74 69                	je     201 <_init-0x80481fb>
 198:	6d                   	insl   (%dx),%es:(%edi)
 199:	65                   	gs
 19a:	76 61                	jbe    1fd <_init-0x80481ff>
 19c:	6c                   	insb   (%dx),%es:(%edi)
 19d:	00 ad 00 00 00 73    	add    %ch,0x73000000(%ebp)
 1a3:	33 32                	xor    (%edx),%esi
 1a5:	5f                   	pop    %edi
 1a6:	74 00                	je     1a8 <_init-0x8048254>
 1a8:	b8 00 00 00 75       	mov    $0x75000000,%eax
 1ad:	36                   	ss
 1ae:	34 5f                	xor    $0x5f,%al
 1b0:	74 00                	je     1b2 <_init-0x804824a>
 1b2:	00 00                	add    %al,(%eax)
	...

Disassembly of section .debug_ranges:

00000000 <.debug_ranges>:
   0:	f0 00 00             	lock add %al,(%eax)
   3:	00 fa                	add    %bh,%dl
   5:	00 00                	add    %al,(%eax)
   7:	00 fe                	add    %bh,%dh
   9:	01 00                	add    %eax,(%eax)
   b:	00 29                	add    %ch,(%ecx)
   d:	02 00                	add    (%eax),%al
   f:	00 11                	add    %dl,(%ecx)
  11:	01 00                	add    %eax,(%eax)
  13:	00 cd                	add    %cl,%ch
  15:	01 00                	add    %eax,(%eax)
  17:	00 fd                	add    %bh,%ch
  19:	00 00                	add    %al,(%eax)
  1b:	00 0b                	add    %cl,(%ebx)
  1d:	01 00                	add    %eax,(%eax)
	...
  27:	00 f0                	add    %dh,%al
  29:	00 00                	add    %al,(%eax)
  2b:	00 fa                	add    %bh,%dl
  2d:	00 00                	add    %al,(%eax)
  2f:	00 fe                	add    %bh,%dh
  31:	01 00                	add    %eax,(%eax)
  33:	00 29                	add    %ch,(%ecx)
  35:	02 00                	add    (%eax),%al
  37:	00 11                	add    %dl,(%ecx)
  39:	01 00                	add    %eax,(%eax)
  3b:	00 cd                	add    %cl,%ch
  3d:	01 00                	add    %eax,(%eax)
  3f:	00 fd                	add    %bh,%ch
  41:	00 00                	add    %al,(%eax)
  43:	00 0b                	add    %cl,(%ebx)
  45:	01 00                	add    %eax,(%eax)
	...
  4f:	00 14 01             	add    %dl,(%ecx,%eax,1)
  52:	00 00                	add    %al,(%eax)
  54:	22 01                	and    (%ecx),%al
  56:	00 00                	add    %al,(%eax)
  58:	fe 01                	incb   (%ecx)
  5a:	00 00                	add    %al,(%eax)
  5c:	13 02                	adc    (%edx),%eax
  5e:	00 00                	add    %al,(%eax)
  60:	a4                   	movsb  %ds:(%esi),%es:(%edi)
  61:	01 00                	add    %eax,(%eax)
  63:	00 a7 01 00 00 9b    	add    %ah,-0x64ffffff(%edi)
  69:	01 00                	add    %eax,(%eax)
  6b:	00 9e 01 00 00 2c    	add    %bl,0x2c000001(%esi)
  71:	01 00                	add    %eax,(%eax)
  73:	00 99 01 00 00 25    	add    %bl,0x25000001(%ecx)
  79:	01 00                	add    %eax,(%eax)
  7b:	00 29                	add    %ch,(%ecx)
  7d:	01 00                	add    %eax,(%eax)
	...
  87:	00 14 01             	add    %dl,(%ecx,%eax,1)
  8a:	00 00                	add    %al,(%eax)
  8c:	22 01                	and    (%ecx),%al
  8e:	00 00                	add    %al,(%eax)
  90:	fe 01                	incb   (%ecx)
  92:	00 00                	add    %al,(%eax)
  94:	13 02                	adc    (%edx),%eax
  96:	00 00                	add    %al,(%eax)
  98:	a4                   	movsb  %ds:(%esi),%es:(%edi)
  99:	01 00                	add    %eax,(%eax)
  9b:	00 a7 01 00 00 9b    	add    %ah,-0x64ffffff(%edi)
  a1:	01 00                	add    %eax,(%eax)
  a3:	00 9e 01 00 00 2c    	add    %bl,0x2c000001(%esi)
  a9:	01 00                	add    %eax,(%eax)
  ab:	00 99 01 00 00 25    	add    %bl,0x25000001(%ecx)
  b1:	01 00                	add    %eax,(%eax)
  b3:	00 29                	add    %ch,(%ecx)
  b5:	01 00                	add    %eax,(%eax)
	...
  bf:	00 38                	add    %bh,(%eax)
  c1:	01 00                	add    %eax,(%eax)
  c3:	00 73 01             	add    %dh,0x1(%ebx)
  c6:	00 00                	add    %al,(%eax)
  c8:	fe 01                	incb   (%ecx)
  ca:	00 00                	add    %al,(%eax)
  cc:	08 02                	or     %al,(%edx)
  ce:	00 00                	add    %al,(%eax)
  d0:	7e 01                	jle    d3 <_init-0x8048329>
  d2:	00 00                	add    %al,(%eax)
  d4:	81 01 00 00 75 01    	addl   $0x1750000,(%ecx)
  da:	00 00                	add    %al,(%eax)
  dc:	78 01                	js     df <_init-0x804831d>
	...
  e6:	00 00                	add    %al,(%eax)
  e8:	38 01                	cmp    %al,(%ecx)
  ea:	00 00                	add    %al,(%eax)
  ec:	73 01                	jae    ef <_init-0x804830d>
  ee:	00 00                	add    %al,(%eax)
  f0:	fe 01                	incb   (%ecx)
  f2:	00 00                	add    %al,(%eax)
  f4:	08 02                	or     %al,(%edx)
  f6:	00 00                	add    %al,(%eax)
  f8:	7e 01                	jle    fb <_init-0x8048301>
  fa:	00 00                	add    %al,(%eax)
  fc:	81 01 00 00 75 01    	addl   $0x1750000,(%ecx)
 102:	00 00                	add    %al,(%eax)
 104:	78 01                	js     107 <_init-0x80482f5>
	...
 10e:	00 00                	add    %al,(%eax)
 110:	93                   	xchg   %eax,%ebx
 111:	03 00                	add    (%eax),%eax
 113:	00 9a 03 00 00 14    	add    %bl,0x14000003(%edx)
 119:	0c 00                	or     $0x0,%al
 11b:	00 31                	add    %dh,(%ecx)
 11d:	0c 00                	or     $0x0,%al
 11f:	00 c0                	add    %al,%al
 121:	08 00                	or     %al,(%eax)
 123:	00 70 09             	add    %dh,0x9(%eax)
 126:	00 00                	add    %al,(%eax)
 128:	f0 05 00 00 98 06    	lock add $0x6980000,%eax
 12e:	00 00                	add    %al,(%eax)
 130:	28 04 00             	sub    %al,(%eax,%eax,1)
 133:	00 f8                	add    %bh,%al
 135:	04 00                	add    $0x0,%al
 137:	00 9d 03 00 00 c8    	add    %bl,-0x37fffffd(%ebp)
 13d:	03 00                	add    (%eax),%eax
	...
 147:	00 93 03 00 00 9a    	add    %dl,-0x65fffffd(%ebx)
 14d:	03 00                	add    (%eax),%eax
 14f:	00 14 0c             	add    %dl,(%esp,%ecx,1)
 152:	00 00                	add    %al,(%eax)
 154:	31 0c 00             	xor    %ecx,(%eax,%eax,1)
 157:	00 c0                	add    %al,%al
 159:	08 00                	or     %al,(%eax)
 15b:	00 70 09             	add    %dh,0x9(%eax)
 15e:	00 00                	add    %al,(%eax)
 160:	f0 05 00 00 98 06    	lock add $0x6980000,%eax
 166:	00 00                	add    %al,(%eax)
 168:	28 04 00             	sub    %al,(%eax,%eax,1)
 16b:	00 f8                	add    %bh,%al
 16d:	04 00                	add    $0x0,%al
 16f:	00 9d 03 00 00 c8    	add    %bl,-0x37fffffd(%ebp)
 175:	03 00                	add    (%eax),%eax
	...
 17f:	00 9d 04 00 00 a0    	add    %bl,-0x5ffffffc(%ebp)
 185:	04 00                	add    $0x0,%al
 187:	00 60 09             	add    %ah,0x9(%eax)
 18a:	00 00                	add    %al,(%eax)
 18c:	70 09                	jo     197 <_init-0x8048265>
 18e:	00 00                	add    %al,(%eax)
 190:	f0 05 00 00 98 06    	lock add $0x6980000,%eax
 196:	00 00                	add    %al,(%eax)
 198:	a3 04 00 00 d7       	mov    %eax,0xd7000004
 19d:	04 00                	add    $0x0,%al
	...
 1a7:	00 9d 04 00 00 a0    	add    %bl,-0x5ffffffc(%ebp)
 1ad:	04 00                	add    $0x0,%al
 1af:	00 60 09             	add    %ah,0x9(%eax)
 1b2:	00 00                	add    %al,(%eax)
 1b4:	70 09                	jo     1bf <_init-0x804823d>
 1b6:	00 00                	add    %al,(%eax)
 1b8:	f0 05 00 00 98 06    	lock add $0x6980000,%eax
 1be:	00 00                	add    %al,(%eax)
 1c0:	a3 04 00 00 d7       	mov    %eax,0xd7000004
 1c5:	04 00                	add    $0x0,%al
	...
 1cf:	00 5d 04             	add    %bl,0x4(%ebp)
 1d2:	00 00                	add    %al,(%eax)
 1d4:	9a 04 00 00 c0 08 00 	lcall  $0x8,$0xc0000004
 1db:	00 60 09             	add    %ah,0x9(%eax)
	...
 1e6:	00 00                	add    %al,(%eax)
 1e8:	5d                   	pop    %ebp
 1e9:	04 00                	add    $0x0,%al
 1eb:	00 9a 04 00 00 c0    	add    %bl,-0x3ffffffc(%edx)
 1f1:	08 00                	or     %al,(%eax)
 1f3:	00 60 09             	add    %ah,0x9(%eax)
	...
 1fe:	00 00                	add    %al,(%eax)
 200:	cb                   	lret   
 201:	03 00                	add    (%eax),%eax
 203:	00 cd                	add    %cl,%ch
 205:	03 00                	add    (%eax),%eax
 207:	00 31                	add    %dh,(%ecx)
 209:	0c 00                	or     $0x0,%al
 20b:	00 67 0c             	add    %ah,0xc(%edi)
 20e:	00 00                	add    %al,(%eax)
 210:	70 09                	jo     21b <_init-0x80481e1>
 212:	00 00                	add    %al,(%eax)
 214:	14 0c                	adc    $0xc,%al
 216:	00 00                	add    %al,(%eax)
 218:	98                   	cwtl   
 219:	06                   	push   %es
 21a:	00 00                	add    %al,(%eax)
 21c:	c0 08 00             	rorb   $0x0,(%eax)
 21f:	00 f8                	add    %bh,%al
 221:	04 00                	add    $0x0,%al
 223:	00 e0                	add    %ah,%al
 225:	05 00 00 d0 03       	add    $0x3d00000,%eax
 22a:	00 00                	add    %al,(%eax)
 22c:	02 04 00             	add    (%eax,%eax,1),%al
	...
 237:	00 cb                	add    %cl,%bl
 239:	03 00                	add    (%eax),%eax
 23b:	00 cd                	add    %cl,%ch
 23d:	03 00                	add    (%eax),%eax
 23f:	00 31                	add    %dh,(%ecx)
 241:	0c 00                	or     $0x0,%al
 243:	00 67 0c             	add    %ah,0xc(%edi)
 246:	00 00                	add    %al,(%eax)
 248:	70 09                	jo     253 <_init-0x80481a9>
 24a:	00 00                	add    %al,(%eax)
 24c:	14 0c                	adc    $0xc,%al
 24e:	00 00                	add    %al,(%eax)
 250:	98                   	cwtl   
 251:	06                   	push   %es
 252:	00 00                	add    %al,(%eax)
 254:	c0 08 00             	rorb   $0x0,(%eax)
 257:	00 f8                	add    %bh,%al
 259:	04 00                	add    $0x0,%al
 25b:	00 e0                	add    %ah,%al
 25d:	05 00 00 d0 03       	add    $0x3d00000,%eax
 262:	00 00                	add    %al,(%eax)
 264:	02 04 00             	add    (%eax,%eax,1),%al
	...
 26f:	00 71 05             	add    %dh,0x5(%ecx)
 272:	00 00                	add    %al,(%eax)
 274:	74 05                	je     27b <_init-0x8048181>
 276:	00 00                	add    %al,(%eax)
 278:	5d                   	pop    %ebp
 279:	0c 00                	or     $0x0,%al
 27b:	00 67 0c             	add    %ah,0xc(%edi)
 27e:	00 00                	add    %al,(%eax)
 280:	22 0a                	and    (%edx),%cl
 282:	00 00                	add    %al,(%eax)
 284:	6c                   	insb   (%dx),%es:(%edi)
 285:	0b 00                	or     (%eax),%eax
 287:	00 70 09             	add    %dh,0x9(%eax)
 28a:	00 00                	add    %al,(%eax)
 28c:	7a 09                	jp     297 <_init-0x8048165>
 28e:	00 00                	add    %al,(%eax)
 290:	98                   	cwtl   
 291:	06                   	push   %es
 292:	00 00                	add    %al,(%eax)
 294:	a8 07                	test   $0x7,%al
 296:	00 00                	add    %al,(%eax)
 298:	77 05                	ja     29f <_init-0x804815d>
 29a:	00 00                	add    %al,(%eax)
 29c:	ac                   	lods   %ds:(%esi),%al
 29d:	05 00 00 00 00       	add    $0x0,%eax
 2a2:	00 00                	add    %al,(%eax)
 2a4:	00 00                	add    %al,(%eax)
 2a6:	00 00                	add    %al,(%eax)
 2a8:	71 05                	jno    2af <_init-0x804814d>
 2aa:	00 00                	add    %al,(%eax)
 2ac:	74 05                	je     2b3 <_init-0x8048149>
 2ae:	00 00                	add    %al,(%eax)
 2b0:	5d                   	pop    %ebp
 2b1:	0c 00                	or     $0x0,%al
 2b3:	00 67 0c             	add    %ah,0xc(%edi)
 2b6:	00 00                	add    %al,(%eax)
 2b8:	22 0a                	and    (%edx),%cl
 2ba:	00 00                	add    %al,(%eax)
 2bc:	6c                   	insb   (%dx),%es:(%edi)
 2bd:	0b 00                	or     (%eax),%eax
 2bf:	00 70 09             	add    %dh,0x9(%eax)
 2c2:	00 00                	add    %al,(%eax)
 2c4:	7a 09                	jp     2cf <_init-0x804812d>
 2c6:	00 00                	add    %al,(%eax)
 2c8:	98                   	cwtl   
 2c9:	06                   	push   %es
 2ca:	00 00                	add    %al,(%eax)
 2cc:	a8 07                	test   $0x7,%al
 2ce:	00 00                	add    %al,(%eax)
 2d0:	77 05                	ja     2d7 <_init-0x8048125>
 2d2:	00 00                	add    %al,(%eax)
 2d4:	ac                   	lods   %ds:(%esi),%al
 2d5:	05 00 00 00 00       	add    $0x0,%eax
 2da:	00 00                	add    %al,(%eax)
 2dc:	00 00                	add    %al,(%eax)
 2de:	00 00                	add    %al,(%eax)
 2e0:	39 07                	cmp    %eax,(%edi)
 2e2:	00 00                	add    %al,(%eax)
 2e4:	3c 07                	cmp    $0x7,%al
 2e6:	00 00                	add    %al,(%eax)
 2e8:	5d                   	pop    %ebp
 2e9:	0c 00                	or     $0x0,%al
 2eb:	00 67 0c             	add    %ah,0xc(%edi)
 2ee:	00 00                	add    %al,(%eax)
 2f0:	ca 0a 00             	lret   $0xa
 2f3:	00 6c 0b 00          	add    %ch,0x0(%ebx,%ecx,1)
 2f7:	00 3f                	add    %bh,(%edi)
 2f9:	07                   	pop    %es
 2fa:	00 00                	add    %al,(%eax)
 2fc:	73 07                	jae    305 <_init-0x80480f7>
	...
 306:	00 00                	add    %al,(%eax)
 308:	39 07                	cmp    %eax,(%edi)
 30a:	00 00                	add    %al,(%eax)
 30c:	3c 07                	cmp    $0x7,%al
 30e:	00 00                	add    %al,(%eax)
 310:	5d                   	pop    %ebp
 311:	0c 00                	or     $0x0,%al
 313:	00 67 0c             	add    %ah,0xc(%edi)
 316:	00 00                	add    %al,(%eax)
 318:	ca 0a 00             	lret   $0xa
 31b:	00 6c 0b 00          	add    %ch,0x0(%ebx,%ecx,1)
 31f:	00 3f                	add    %bh,(%edi)
 321:	07                   	pop    %es
 322:	00 00                	add    %al,(%eax)
 324:	73 07                	jae    32d <_init-0x80480cf>
	...
 32e:	00 00                	add    %al,(%eax)
 330:	eb 06                	jmp    338 <_init-0x80480c4>
 332:	00 00                	add    %al,(%eax)
 334:	f9                   	stc    
 335:	06                   	push   %es
 336:	00 00                	add    %al,(%eax)
 338:	22 0a                	and    (%edx),%cl
 33a:	00 00                	add    %al,(%eax)
 33c:	ca 0a 00             	lret   $0xa
 33f:	00 fc                	add    %bh,%ah
 341:	06                   	push   %es
 342:	00 00                	add    %al,(%eax)
 344:	33 07                	xor    (%edi),%eax
	...
 34e:	00 00                	add    %al,(%eax)
 350:	eb 06                	jmp    358 <_init-0x80480a4>
 352:	00 00                	add    %al,(%eax)
 354:	f9                   	stc    
 355:	06                   	push   %es
 356:	00 00                	add    %al,(%eax)
 358:	22 0a                	and    (%edx),%cl
 35a:	00 00                	add    %al,(%eax)
 35c:	ca 0a 00             	lret   $0xa
 35f:	00 fc                	add    %bh,%ah
 361:	06                   	push   %es
 362:	00 00                	add    %al,(%eax)
 364:	33 07                	xor    (%edi),%eax
	...
 36e:	00 00                	add    %al,(%eax)
 370:	2d 05 00 00 30       	sub    $0x30000005,%eax
 375:	05 00 00 4e 0c       	add    $0xc4e0000,%eax
 37a:	00 00                	add    %al,(%eax)
 37c:	5d                   	pop    %ebp
 37d:	0c 00                	or     $0x0,%al
 37f:	00 6c 0b 00          	add    %ch,0x0(%ebx,%ecx,1)
 383:	00 14 0c             	add    %dl,(%esp,%ecx,1)
 386:	00 00                	add    %al,(%eax)
 388:	7a 09                	jp     393 <_init-0x8048069>
 38a:	00 00                	add    %al,(%eax)
 38c:	22 0a                	and    (%edx),%cl
 38e:	00 00                	add    %al,(%eax)
 390:	a8 07                	test   $0x7,%al
 392:	00 00                	add    %al,(%eax)
 394:	c0 08 00             	rorb   $0x0,(%eax)
 397:	00 33                	add    %dh,(%ebx)
 399:	05 00 00 6e 05       	add    $0x56e0000,%eax
	...
 3a6:	00 00                	add    %al,(%eax)
 3a8:	2d 05 00 00 30       	sub    $0x30000005,%eax
 3ad:	05 00 00 4e 0c       	add    $0xc4e0000,%eax
 3b2:	00 00                	add    %al,(%eax)
 3b4:	5d                   	pop    %ebp
 3b5:	0c 00                	or     $0x0,%al
 3b7:	00 6c 0b 00          	add    %ch,0x0(%ebx,%ecx,1)
 3bb:	00 14 0c             	add    %dl,(%esp,%ecx,1)
 3be:	00 00                	add    %al,(%eax)
 3c0:	7a 09                	jp     3cb <_init-0x8048031>
 3c2:	00 00                	add    %al,(%eax)
 3c4:	22 0a                	and    (%edx),%cl
 3c6:	00 00                	add    %al,(%eax)
 3c8:	a8 07                	test   $0x7,%al
 3ca:	00 00                	add    %al,(%eax)
 3cc:	c0 08 00             	rorb   $0x0,(%eax)
 3cf:	00 33                	add    %dh,(%ebx)
 3d1:	05 00 00 6e 05       	add    $0x56e0000,%eax
	...
 3de:	00 00                	add    %al,(%eax)
 3e0:	48                   	dec    %eax
 3e1:	08 00                	or     %al,(%eax)
 3e3:	00 82 08 00 00 4e    	add    %al,0x4e000008(%edx)
 3e9:	0c 00                	or     $0x0,%al
 3eb:	00 5d 0c             	add    %bl,0xc(%ebp)
 3ee:	00 00                	add    %al,(%eax)
 3f0:	6c                   	insb   (%dx),%es:(%edi)
 3f1:	0b 00                	or     (%eax),%eax
 3f3:	00 14 0c             	add    %dl,(%esp,%ecx,1)
	...
 3fe:	00 00                	add    %al,(%eax)
 400:	48                   	dec    %eax
 401:	08 00                	or     %al,(%eax)
 403:	00 82 08 00 00 4e    	add    %al,0x4e000008(%edx)
 409:	0c 00                	or     $0x0,%al
 40b:	00 5d 0c             	add    %bl,0xc(%ebp)
 40e:	00 00                	add    %al,(%eax)
 410:	6c                   	insb   (%dx),%es:(%edi)
 411:	0b 00                	or     (%eax),%eax
 413:	00 14 0c             	add    %dl,(%esp,%ecx,1)
	...
 41e:	00 00                	add    %al,(%eax)
 420:	fb                   	sti    
 421:	07                   	pop    %es
 422:	00 00                	add    %al,(%eax)
 424:	09 08                	or     %ecx,(%eax)
 426:	00 00                	add    %al,(%eax)
 428:	7a 09                	jp     433 <_init-0x8047fc9>
 42a:	00 00                	add    %al,(%eax)
 42c:	22 0a                	and    (%edx),%cl
 42e:	00 00                	add    %al,(%eax)
 430:	0c 08                	or     $0x8,%al
 432:	00 00                	add    %al,(%eax)
 434:	42                   	inc    %edx
 435:	08 00                	or     %al,(%eax)
	...
 43f:	00 fb                	add    %bh,%bl
 441:	07                   	pop    %es
 442:	00 00                	add    %al,(%eax)
 444:	09 08                	or     %ecx,(%eax)
 446:	00 00                	add    %al,(%eax)
 448:	7a 09                	jp     453 <_init-0x8047fa9>
 44a:	00 00                	add    %al,(%eax)
 44c:	22 0a                	and    (%edx),%cl
 44e:	00 00                	add    %al,(%eax)
 450:	0c 08                	or     $0x8,%al
 452:	00 00                	add    %al,(%eax)
 454:	42                   	inc    %edx
 455:	08 00                	or     %al,(%eax)
	...
 45f:	00 d7                	add    %dl,%bh
 461:	0d 00 00 d9 0d       	or     $0xdd90000,%eax
 466:	00 00                	add    %al,(%eax)
 468:	e1 0d                	loope  477 <_init-0x8047f85>
 46a:	00 00                	add    %al,(%eax)
 46c:	24 0e                	and    $0xe,%al
	...
 476:	00 00                	add    %al,(%eax)
 478:	d7                   	xlat   %ds:(%ebx)
 479:	0d 00 00 d9 0d       	or     $0xdd90000,%eax
 47e:	00 00                	add    %al,(%eax)
 480:	e1 0d                	loope  48f <_init-0x8047f6d>
 482:	00 00                	add    %al,(%eax)
 484:	24 0e                	and    $0xe,%al
	...
 48e:	00 00                	add    %al,(%eax)
 490:	0c 00                	or     $0x0,%al
 492:	00 00                	add    %al,(%eax)
 494:	14 00                	adc    $0x0,%al
 496:	00 00                	add    %al,(%eax)
 498:	2f                   	das    
 499:	00 00                	add    %al,(%eax)
 49b:	00 54 00 00          	add    %dl,0x0(%eax,%eax,1)
 49f:	00 17                	add    %dl,(%edi)
 4a1:	00 00                	add    %al,(%eax)
 4a3:	00 2a                	add    %ch,(%edx)
	...
 4ad:	00 00                	add    %al,(%eax)
 4af:	00 0c 00             	add    %cl,(%eax,%eax,1)
 4b2:	00 00                	add    %al,(%eax)
 4b4:	14 00                	adc    $0x0,%al
 4b6:	00 00                	add    %al,(%eax)
 4b8:	2f                   	das    
 4b9:	00 00                	add    %al,(%eax)
 4bb:	00 34 00             	add    %dh,(%eax,%eax,1)
 4be:	00 00                	add    %al,(%eax)
 4c0:	17                   	pop    %ss
 4c1:	00 00                	add    %al,(%eax)
 4c3:	00 2a                	add    %ch,(%edx)
	...
 4cd:	00 00                	add    %al,(%eax)
 4cf:	00 6c 00 00          	add    %ch,0x0(%eax,%eax,1)
 4d3:	00 74 00 00          	add    %dh,0x0(%eax,%eax,1)
 4d7:	00 8f 00 00 00 b4    	add    %cl,-0x4c000000(%edi)
 4dd:	00 00                	add    %al,(%eax)
 4df:	00 77 00             	add    %dh,0x0(%edi)
 4e2:	00 00                	add    %al,(%eax)
 4e4:	8a 00                	mov    (%eax),%al
	...
 4ee:	00 00                	add    %al,(%eax)
 4f0:	6c                   	insb   (%dx),%es:(%edi)
 4f1:	00 00                	add    %al,(%eax)
 4f3:	00 74 00 00          	add    %dh,0x0(%eax,%eax,1)
 4f7:	00 8f 00 00 00 94    	add    %cl,-0x6c000000(%edi)
 4fd:	00 00                	add    %al,(%eax)
 4ff:	00 77 00             	add    %dh,0x0(%edi)
 502:	00 00                	add    %al,(%eax)
 504:	8a 00                	mov    (%eax),%al
	...
 50e:	00 00                	add    %al,(%eax)
 510:	cc                   	int3   
 511:	00 00                	add    %al,(%eax)
 513:	00 d4                	add    %dl,%ah
 515:	00 00                	add    %al,(%eax)
 517:	00 ef                	add    %ch,%bh
 519:	00 00                	add    %al,(%eax)
 51b:	00 14 01             	add    %dl,(%ecx,%eax,1)
 51e:	00 00                	add    %al,(%eax)
 520:	d7                   	xlat   %ds:(%ebx)
 521:	00 00                	add    %al,(%eax)
 523:	00 ea                	add    %ch,%dl
	...
 52d:	00 00                	add    %al,(%eax)
 52f:	00 cc                	add    %cl,%ah
 531:	00 00                	add    %al,(%eax)
 533:	00 d4                	add    %dl,%ah
 535:	00 00                	add    %al,(%eax)
 537:	00 ef                	add    %ch,%bh
 539:	00 00                	add    %al,(%eax)
 53b:	00 f4                	add    %dh,%ah
 53d:	00 00                	add    %al,(%eax)
 53f:	00 d7                	add    %dl,%bh
 541:	00 00                	add    %al,(%eax)
 543:	00 ea                	add    %ch,%dl
	...
